MODULE windows x86 D858E426C6E24BA0BF0A9CB431CEB8051 layer2.pdb
PUBLIC 1000 0 MyException::MyException(char const *,char const *,char const *)
PUBLIC 10d0 0 MyException::~MyException()
PUBLIC 1110 0 MyException::message()
PUBLIC 1140 0 MyException::what()
PUBLIC 1170 0 MyException::getClassName()
PUBLIC 1180 0 MyException::`vector deleting destructor'(unsigned int)
PUBLIC 11a0 0 AlevError::AlevError(char const *,char const *,char const *)
PUBLIC 11d0 0 AlevError::getClassName()
PUBLIC 11e0 0 AlevError::`vector deleting destructor'(unsigned int)
PUBLIC 1200 0 AlevError::~AlevError()
PUBLIC 1210 0 ALEVWrapper::ALEVWrapper()
PUBLIC 1270 0 MyException::MyException(MyException const &)
PUBLIC 1300 0 ALEVWrapper::~ALEVWrapper()
PUBLIC 1380 0 ALEVWrapper::CreateNameSpace(char const *)
PUBLIC 13c0 0 ALEVWrapper::DestroyNameSpace(void const *)
PUBLIC 13d0 0 ALEVWrapper::SetVariableStdValueEx(void const *,char const *,_StdValue *)
PUBLIC 1420 0 ALEVWrapper::DefineVariableEx(void const *,char const *,long,long,_StdValue * (*)(char *,long,_StdArgumentList *),char *,char *)
PUBLIC 1490 0 ALEVWrapper::CreateExpression(void const *,char *)
PUBLIC 14e0 0 ALEVWrapper::DestroyExpression(void *)
PUBLIC 1520 0 ALEVWrapper::EvalExpression(void *,void * *)
PUBLIC 1570 0 ALEVWrapper::ErrorMessage()
PUBLIC 1580 0 ACE_Guard<ACE_Recursive_Thread_Mutex>::acquire()
PUBLIC 1590 0 ACE_Guard<ACE_Recursive_Thread_Mutex>::release()
PUBLIC 15b0 0 ALEVWrapper::`scalar deleting destructor'(unsigned int)
PUBLIC 15d0 0 AlevError::AlevError(AlevError const &)
PUBLIC 15f0 0 ACE_Guard<ACE_Recursive_Thread_Mutex>::ACE_Guard<ACE_Recursive_Thread_Mutex>(ACE_Recursive_Thread_Mutex &)
PUBLIC 1610 0 ACE_Guard<ACE_Recursive_Thread_Mutex>::~ACE_Guard<ACE_Recursive_Thread_Mutex>()
PUBLIC 1630 0 ALEVWrapper::instance()
PUBLIC 16d0 0 ALEVWrapper::close_singleton()
PUBLIC 1760 0 LoadKeyUtils
PUBLIC 17f0 0 GetProductKeyInfo
PUBLIC 1a90 0 GetProductKey
PUBLIC 1b10 0 GetKeyVersion
PUBLIC 1b20 0 CheckProductCode
PUBLIC 1b90 0 CheckProductVersion
PUBLIC 1bd0 0 CheckExpiredKey
PUBLIC 1d00 0 CheckHdSerial
PUBLIC 1e10 0 CheckMacSerial
PUBLIC 1f60 0 UseUtils
PUBLIC 2110 0 DecryptKey
PUBLIC 2160 0 isNormalVersion
PUBLIC 2190 0 isCreditsVersion
PUBLIC 21b0 0 GetCredits
PUBLIC 2200 0 CheckCredits
PUBLIC 2240 0 GetKeyInfo
PUBLIC 2580 0 CheckKey
PUBLIC 2720 0 ComprobarClave
PUBLIC 2740 0 ComprobarClaveCreditos
PUBLIC 2760 0 ShowTextError
PUBLIC 2980 0 GetActivationId
PUBLIC 2a30 8 ComprobarClave__stdcall
PUBLIC 2a50 c ComprobarClaveCreditos__stdcall
PUBLIC 2a70 c ShowTextError__stdcall
PUBLIC 2a90 8 GetActivationId__stdcall
PUBLIC 2ab0 c GetKeyInfo__stdcall
PUBLIC 2ad0 0 GetExpirationDate
PUBLIC 2bb0 0 GetKey
PUBLIC 2c10 0 SetTangoProductKey
PUBLIC 2c80 0 SetKey
PUBLIC 2ce0 0 operator new(unsigned int,void *)
PUBLIC 2cf0 0 operator delete(void *,void *)
PUBLIC 2d00 0 _STL::_Destroy(char *,char *)
PUBLIC 2d10 0 _STL::__copy_trivial(void const *,void const *,void *)
PUBLIC 2d40 0 _STL::uninitialized_copy(char const *,char const *,char *)
PUBLIC 2d70 0 _STL::__ptr_base::__set(void *)
PUBLIC 2d80 0 _STL::_List_iterator_base::_List_iterator_base(_STL::_List_node_base *)
PUBLIC 2d90 0 _STL::_List_iterator_base::_List_iterator_base()
PUBLIC 2da0 0 _STL::_List_iterator_base::_M_incr()
PUBLIC 2db0 0 _STL::_List_iterator_base::operator==(_STL::_List_iterator_base const &)
PUBLIC 2dc0 0 _STL::_List_iterator_base::operator!=(_STL::_List_iterator_base const &)
PUBLIC 2de0 0 _STL::_Rb_tree_base_iterator::operator==(_STL::_Rb_tree_base_iterator const &)
PUBLIC 2df0 0 Python_Guard::release()
PUBLIC 2e10 0 Python_Guard::doacquire_()
PUBLIC 2e30 0 ControllerError::ControllerError(char const *,char const *,char const *)
PUBLIC 2e60 0 ControllerError::getClassName()
PUBLIC 2e70 0 ControllerError::`vector deleting destructor'(unsigned int)
PUBLIC 2e90 0 ControllerError::~ControllerError()
PUBLIC 2ea0 0 ACE_Atomic_Op<ACE_Thread_Mutex,unsigned int>::~ACE_Atomic_Op<ACE_Thread_Mutex,unsigned int>()
PUBLIC 2eb0 0 ControladorBase::HeartBeat()
PUBLIC 2ec0 0 ControladorBase::ParseScriptConfigFromNode(xercesc_2_7::DOMNode const *)
PUBLIC 3010 0 xercesc_2_7::MemBufFormatTarget::`vector deleting destructor'(unsigned int)
PUBLIC 3030 0 ControladorBase::setActivityFromString(_STL::basic_string<char,_STL::char_traits<char>,_STL::allocator<char> > const &)
PUBLIC 30a0 0 ControladorBase::GetProperties()
PUBLIC 3130 0 ParamKeyCheckType::ParamKeyCheckType()
PUBLIC 3190 0 ParamKeyCheckType::~ParamKeyCheckType()
PUBLIC 3200 0 KeyDataResult::KeyDataResult()
PUBLIC 3210 0 KeyDataResult::~KeyDataResult()
PUBLIC 3220 0 CheckToDeleteScript(ScriptBase *)
PUBLIC 3260 0 ControladorBase::ResetHealth()
PUBLIC 3270 0 ControladorBase::needToProcessHealth(TState)
PUBLIC 32a0 0 ControladorBase::SetHealth(TState,_STL::basic_string<char,_STL::char_traits<char>,_STL::allocator<char> > const &,ScriptBase const *,void *,_STL::basic_string<char,_STL::char_traits<char>,_STL::allocator<char> > const &,bool)
PUBLIC 3310 0 ControladorBase::SetTempHealth(TState,_STL::basic_string<char,_STL::char_traits<char>,_STL::allocator<char> > const &,ScriptBase const *,void *,_STL::basic_string<char,_STL::char_traits<char>,_STL::allocator<char> > const &,bool)
PUBLIC 3370 0 ControladorBase::GetHealth()
PUBLIC 3380 0 ControladorBase::GetStatusDescription()
PUBLIC 33a0 0 ControladorBase::SetStatus(TStatus,_STL::basic_string<char,_STL::char_traits<char>,_STL::allocator<char> > const &,bool)
PUBLIC 34b0 0 ControladorBase::SetMonitorStatus(TStatus,_STL::basic_string<char,_STL::char_traits<char>,_STL::allocator<char> > const &,bool)
PUBLIC 3640 0 ControladorBase::SetScriptStorageSettings(_STL::basic_string<char,_STL::char_traits<char>,_STL::allocator<char> > const &,_STL::basic_string<char,_STL::char_traits<char>,_STL::allocator<char> > const &)
PUBLIC 36c0 0 ControladorBase::SendSTGStatus(TSTGStatus,_STL::basic_string<char,_STL::char_traits<char>,_STL::allocator<char> >,bool)
PUBLIC 3730 0 _STL::allocator<ScriptBase *>::allocator<ScriptBase *>()
PUBLIC 3740 0 _STL::allocator<ScriptBase *>::~allocator<ScriptBase *>()
PUBLIC 3750 0 _STL::auto_ptr<MonitorDB>::get()
PUBLIC 3760 0 _STL::auto_ptr<MonitorDB>::operator->()
PUBLIC 3770 0 _STL::auto_ptr<MonitorDB>::auto_ptr<MonitorDB>(MonitorDB *)
PUBLIC 3780 0 _STL::auto_ptr<MonitorDB>::~auto_ptr<MonitorDB>()
PUBLIC 3790 0 _STL::_List_iterator<ScriptBase *,_STL::_Nonconst_traits<ScriptBase *> >::_List_iterator<ScriptBase *,_STL::_Nonconst_traits<ScriptBase *> >()
PUBLIC 37a0 0 _STL::_List_iterator<ScriptBase *,_STL::_Nonconst_traits<ScriptBase *> >::_List_iterator<ScriptBase *,_STL::_Nonconst_traits<ScriptBase *> >(_STL::_List_iterator<ScriptBase *,_STL::_Nonconst_traits<ScriptBase *> > const &)
PUBLIC 37b0 0 _STL::_List_iterator<ScriptBase *,_STL::_Nonconst_traits<ScriptBase *> >::operator*()
PUBLIC 37c0 0 _STL::_List_iterator<ScriptBase *,_STL::_Nonconst_traits<ScriptBase *> >::operator++()
PUBLIC 37d0 0 GuardPoolObject<MyXMLReader>::GuardPoolObject<MyXMLReader>(PoolObject<MyXMLReader> *)
PUBLIC 37e0 0 GuardPoolObject<MyXMLReader>::~GuardPoolObject<MyXMLReader>()
PUBLIC 3800 0 PoolObject<MyXMLReader>::GetObjectA()
PUBLIC 3810 0 IPoolObject<MyXMLReader>::~IPoolObject<MyXMLReader>()
PUBLIC 3820 0 _STL::_List_iterator<ScriptBase *,_STL::_Const_traits<ScriptBase *> >::_List_iterator<ScriptBase *,_STL::_Const_traits<ScriptBase *> >()
PUBLIC 3830 0 _STL::_List_iterator<ScriptBase *,_STL::_Const_traits<ScriptBase *> >::_List_iterator<ScriptBase *,_STL::_Const_traits<ScriptBase *> >(_STL::_List_iterator<ScriptBase *,_STL::_Nonconst_traits<ScriptBase *> > const &)
PUBLIC 3840 0 _STL::_List_iterator<ScriptBase *,_STL::_Const_traits<ScriptBase *> >::operator*()
PUBLIC 3850 0 _STL::_List_iterator<ScriptBase *,_STL::_Const_traits<ScriptBase *> >::operator++()
PUBLIC 3860 0 IPoolObject<MyXMLReader>::`scalar deleting destructor'(unsigned int)
PUBLIC 3880 0 _STL::_List_iterator<ScriptBase *,_STL::_Nonconst_traits<ScriptBase *> >::_List_iterator<ScriptBase *,_STL::_Nonconst_traits<ScriptBase *> >(_STL::_List_node<ScriptBase *> *)
PUBLIC 3890 0 _STL::_List_iterator<ScriptBase *,_STL::_Nonconst_traits<ScriptBase *> >::operator++(int)
PUBLIC 38a0 0 _STL::_List_iterator<ScriptBase *,_STL::_Const_traits<ScriptBase *> >::_List_iterator<ScriptBase *,_STL::_Const_traits<ScriptBase *> >(_STL::_List_node<ScriptBase *> *)
PUBLIC 38b0 0 IPool<MyXMLReader>::~IPool<MyXMLReader>()
PUBLIC 38c0 0 IPool<MyXMLReader>::`vector deleting destructor'(unsigned int)
PUBLIC 38e0 0 _STL::allocator<_STL::_List_node<ScriptBase *> >::~allocator<_STL::_List_node<ScriptBase *> >()
PUBLIC 38f0 0 _STL::allocator<_STL::_List_node<ScriptBase *> >::allocate(unsigned int,void const *)
PUBLIC 3910 0 _STL::allocator<_STL::_List_node<ScriptBase *> >::deallocate(_STL::_List_node<ScriptBase *> *,unsigned int)
PUBLIC 3930 0 PoolObject<MyXMLReader>::GetNext()
PUBLIC 3940 0 PoolObject<MyXMLReader>::SetNext(PoolObject<MyXMLReader> *)
PUBLIC 3950 0 _STL::_Rb_tree_iterator<_STL::pair<_STL::basic_string<char,_STL::char_traits<char>,_STL::allocator<char> > const ,GenericPool<MyXMLReader,ObjectIdCreationPolicy<MyXMLReader> > *>,_STL::_Nonconst_traits<_STL::pair<_STL::basic_string<char,_STL::char_traits<char>,_STL::allocator<char> > const ,GenericPool<MyXMLReader,ObjectIdCreationPolicy<MyXMLReader> > *> > >::operator*()
PUBLIC 3960 0 _STL::pair<_STL::basic_string<char,_STL::char_traits<char>,_STL::allocator<char> > const ,GenericPool<MyXMLReader,ObjectIdCreationPolicy<MyXMLReader> > *>::~pair<_STL::basic_string<char,_STL::char_traits<char>,_STL::allocator<char> > const ,GenericPool<MyXMLReader,ObjectIdCreationPolicy<MyXMLReader> > *>()
PUBLIC 3970 0 _STL::allocator<_STL::_List_node<ScriptBase *> >::allocator<_STL::_List_node<ScriptBase *> >(_STL::allocator<_STL::_List_node<ScriptBase *> > const &)
PUBLIC 3980 0 _STL::allocator<_STL::pair<_STL::basic_string<char,_STL::char_traits<char>,_STL::allocator<char> > const ,GenericPool<MyXMLReader,ObjectIdCreationPolicy<MyXMLReader> > *> >::allocator<_STL::pair<_STL::basic_string<char,_STL::char_traits<char>,_STL::allocator<char> > const ,GenericPool<MyXMLReader,ObjectIdCreationPolicy<MyXMLReader> > *> >()
PUBLIC 3990 0 _STL::allocator<_STL::pair<_STL::basic_string<char,_STL::char_traits<char>,_STL::allocator<char> > const ,GenericPool<MyXMLReader,ObjectIdCreationPolicy<MyXMLReader> > *> >::~allocator<_STL::pair<_STL::basic_string<char,_STL::char_traits<char>,_STL::allocator<char> > const ,GenericPool<MyXMLReader,ObjectIdCreationPolicy<MyXMLReader> > *> >()
PUBLIC 39a0 0 _STL::_Rb_tree_iterator<_STL::pair<_STL::basic_string<char,_STL::char_traits<char>,_STL::allocator<char> > const ,GenericPool<MyXMLReader,ObjectIdCreationPolicy<MyXMLReader> > *>,_STL::_Nonconst_traits<_STL::pair<_STL::basic_string<char,_STL::char_traits<char>,_STL::allocator<char> > const ,GenericPool<MyXMLReader,ObjectIdCreationPolicy<MyXMLReader> > *> > >::_Rb_tree_iterator<_STL::pair<_STL::basic_string<char,_STL::char_traits<char>,_STL::allocator<char> > const ,GenericPool<MyXMLReader,ObjectIdCreationPolicy<MyXMLReader> > *>,_STL::_Nonconst_traits<_STL::pair<_STL::basic_string<char,_STL::char_traits<char>,_STL::allocator<char> > const ,GenericPool<MyXMLReader,ObjectIdCreationPolicy<MyXMLReader> > *> > >(_STL::_Rb_tree_node<_STL::pair<_STL::basic_string<char,_STL::char_traits<char>,_STL::allocator<char> > const ,GenericPool<MyXMLReader,ObjectIdCreationPolicy<MyXMLReader> > *> > *)
PUBLIC 39b0 0 _STL::_Rb_tree_iterator<_STL::pair<_STL::basic_string<char,_STL::char_traits<char>,_STL::allocator<char> > const ,GenericPool<MyXMLReader,ObjectIdCreationPolicy<MyXMLReader> > *>,_STL::_Nonconst_traits<_STL::pair<_STL::basic_string<char,_STL::char_traits<char>,_STL::allocator<char> > const ,GenericPool<MyXMLReader,ObjectIdCreationPolicy<MyXMLReader> > *> > >::_Rb_tree_iterator<_STL::pair<_STL::basic_string<char,_STL::char_traits<char>,_STL::allocator<char> > const ,GenericPool<MyXMLReader,ObjectIdCreationPolicy<MyXMLReader> > *>,_STL::_Nonconst_traits<_STL::pair<_STL::basic_string<char,_STL::char_traits<char>,_STL::allocator<char> > const ,GenericPool<MyXMLReader,ObjectIdCreationPolicy<MyXMLReader> > *> > >(_STL::_Rb_tree_iterator<_STL::pair<_STL::basic_string<char,_STL::char_traits<char>,_STL::allocator<char> > const ,GenericPool<MyXMLReader,ObjectIdCreationPolicy<MyXMLReader> > *>,_STL::_Nonconst_traits<_STL::pair<_STL::basic_string<char,_STL::char_traits<char>,_STL::allocator<char> > const ,GenericPool<MyXMLReader,ObjectIdCreationPolicy<MyXMLReader> > *> > > const &)
PUBLIC 39c0 0 _STL::pair<_STL::basic_string<char,_STL::char_traits<char>,_STL::allocator<char> > const ,GenericPool<MyXMLReader,ObjectIdCreationPolicy<MyXMLReader> > *>::pair<_STL::basic_string<char,_STL::char_traits<char>,_STL::allocator<char> > const ,GenericPool<MyXMLReader,ObjectIdCreationPolicy<MyXMLReader> > *>(_STL::basic_string<char,_STL::char_traits<char>,_STL::allocator<char> > const &,GenericPool<MyXMLReader,ObjectIdCreationPolicy<MyXMLReader> > * const &)
PUBLIC 39e0 0 IPool<MyXMLReader>::IPool<MyXMLReader>()
PUBLIC 39f0 0 ObjectIdCreationPolicy<MyXMLReader>::Create(_STL::basic_string<char,_STL::char_traits<char>,_STL::allocator<char> > const &)
PUBLIC 3a50 0 _STL::_Rb_tree<_STL::basic_string<char,_STL::char_traits<char>,_STL::allocator<char> >,_STL::pair<_STL::basic_string<char,_STL::char_traits<char>,_STL::allocator<char> > const ,GenericPool<MyXMLReader,ObjectIdCreationPolicy<MyXMLReader> > *>,_STL::_Select1st<_STL::pair<_STL::basic_string<char,_STL::char_traits<char>,_STL::allocator<char> > const ,GenericPool<MyXMLReader,ObjectIdCreationPolicy<MyXMLReader> > *> >,_STL::less<_STL::basic_string<char,_STL::char_traits<char>,_STL::allocator<char> > >,_STL::allocator<_STL::pair<_STL::basic_string<char,_STL::char_traits<char>,_STL::allocator<char> > const ,GenericPool<MyXMLReader,ObjectIdCreationPolicy<MyXMLReader> > *> > >::_M_root()
PUBLIC 3a60 0 _STL::_Rb_tree<_STL::basic_string<char,_STL::char_traits<char>,_STL::allocator<char> >,_STL::pair<_STL::basic_string<char,_STL::char_traits<char>,_STL::allocator<char> > const ,GenericPool<MyXMLReader,ObjectIdCreationPolicy<MyXMLReader> > *>,_STL::_Select1st<_STL::pair<_STL::basic_string<char,_STL::char_traits<char>,_STL::allocator<char> > const ,GenericPool<MyXMLReader,ObjectIdCreationPolicy<MyXMLReader> > *> >,_STL::less<_STL::basic_string<char,_STL::char_traits<char>,_STL::allocator<char> > >,_STL::allocator<_STL::pair<_STL::basic_string<char,_STL::char_traits<char>,_STL::allocator<char> > const ,GenericPool<MyXMLReader,ObjectIdCreationPolicy<MyXMLReader> > *> > >::_M_leftmost()
PUBLIC 3a70 0 _STL::_Rb_tree<_STL::basic_string<char,_STL::char_traits<char>,_STL::allocator<char> >,_STL::pair<_STL::basic_string<char,_STL::char_traits<char>,_STL::allocator<char> > const ,GenericPool<MyXMLReader,ObjectIdCreationPolicy<MyXMLReader> > *>,_STL::_Select1st<_STL::pair<_STL::basic_string<char,_STL::char_traits<char>,_STL::allocator<char> > const ,GenericPool<MyXMLReader,ObjectIdCreationPolicy<MyXMLReader> > *> >,_STL::less<_STL::basic_string<char,_STL::char_traits<char>,_STL::allocator<char> > >,_STL::allocator<_STL::pair<_STL::basic_string<char,_STL::char_traits<char>,_STL::allocator<char> > const ,GenericPool<MyXMLReader,ObjectIdCreationPolicy<MyXMLReader> > *> > >::_M_rightmost()
PUBLIC 3a80 0 _STL::_Rb_tree<_STL::basic_string<char,_STL::char_traits<char>,_STL::allocator<char> >,_STL::pair<_STL::basic_string<char,_STL::char_traits<char>,_STL::allocator<char> > const ,GenericPool<MyXMLReader,ObjectIdCreationPolicy<MyXMLReader> > *>,_STL::_Select1st<_STL::pair<_STL::basic_string<char,_STL::char_traits<char>,_STL::allocator<char> > const ,GenericPool<MyXMLReader,ObjectIdCreationPolicy<MyXMLReader> > *> >,_STL::less<_STL::basic_string<char,_STL::char_traits<char>,_STL::allocator<char> > >,_STL::allocator<_STL::pair<_STL::basic_string<char,_STL::char_traits<char>,_STL::allocator<char> > const ,GenericPool<MyXMLReader,ObjectIdCreationPolicy<MyXMLReader> > *> > >::key_comp()
PUBLIC 3a90 0 _STL::allocator<_STL::_Rb_tree_node<_STL::pair<_STL::basic_string<char,_STL::char_traits<char>,_STL::allocator<char> > const ,GenericPool<MyXMLReader,ObjectIdCreationPolicy<MyXMLReader> > *> > >::~allocator<_STL::_Rb_tree_node<_STL::pair<_STL::basic_string<char,_STL::char_traits<char>,_STL::allocator<char> > const ,GenericPool<MyXMLReader,ObjectIdCreationPolicy<MyXMLReader> > *> > >()
PUBLIC 3aa0 0 _STL::allocator<_STL::_Rb_tree_node<_STL::pair<_STL::basic_string<char,_STL::char_traits<char>,_STL::allocator<char> > const ,GenericPool<MyXMLReader,ObjectIdCreationPolicy<MyXMLReader> > *> > >::deallocate(_STL::_Rb_tree_node<_STL::pair<_STL::basic_string<char,_STL::char_traits<char>,_STL::allocator<char> > const ,GenericPool<MyXMLReader,ObjectIdCreationPolicy<MyXMLReader> > *> > *,unsigned int)
PUBLIC 3ac0 0 IPoolObject<MyXMLReader>::IPoolObject<MyXMLReader>()
PUBLIC 3ad0 0 _STL::_Rb_tree<_STL::basic_string<char,_STL::char_traits<char>,_STL::allocator<char> >,_STL::pair<_STL::basic_string<char,_STL::char_traits<char>,_STL::allocator<char> > const ,GenericPool<MyXMLReader,ObjectIdCreationPolicy<MyXMLReader> > *>,_STL::_Select1st<_STL::pair<_STL::basic_string<char,_STL::char_traits<char>,_STL::allocator<char> > const ,GenericPool<MyXMLReader,ObjectIdCreationPolicy<MyXMLReader> > *> >,_STL::less<_STL::basic_string<char,_STL::char_traits<char>,_STL::allocator<char> > >,_STL::allocator<_STL::pair<_STL::basic_string<char,_STL::char_traits<char>,_STL::allocator<char> > const ,GenericPool<MyXMLReader,ObjectIdCreationPolicy<MyXMLReader> > *> > >::_S_color(_STL::_Rb_tree_node<_STL::pair<_STL::basic_string<char,_STL::char_traits<char>,_STL::allocator<char> > const ,GenericPool<MyXMLReader,ObjectIdCreationPolicy<MyXMLReader> > *> > *)
PUBLIC 3ae0 0 _STL::allocator<_STL::_Rb_tree_node<_STL::pair<_STL::basic_string<char,_STL::char_traits<char>,_STL::allocator<char> > const ,GenericPool<MyXMLReader,ObjectIdCreationPolicy<MyXMLReader> > *> > >::allocate(unsigned int,void const *)
PUBLIC 3b00 0 _STL::_Rb_tree<_STL::basic_string<char,_STL::char_traits<char>,_STL::allocator<char> >,_STL::pair<_STL::basic_string<char,_STL::char_traits<char>,_STL::allocator<char> > const ,GenericPool<MyXMLReader,ObjectIdCreationPolicy<MyXMLReader> > *>,_STL::_Select1st<_STL::pair<_STL::basic_string<char,_STL::char_traits<char>,_STL::allocator<char> > const ,GenericPool<MyXMLReader,ObjectIdCreationPolicy<MyXMLReader> > *> >,_STL::less<_STL::basic_string<char,_STL::char_traits<char>,_STL::allocator<char> > >,_STL::allocator<_STL::pair<_STL::basic_string<char,_STL::char_traits<char>,_STL::allocator<char> > const ,GenericPool<MyXMLReader,ObjectIdCreationPolicy<MyXMLReader> > *> > >::_S_left(_STL::_Rb_tree_node<_STL::pair<_STL::basic_string<char,_STL::char_traits<char>,_STL::allocator<char> > const ,GenericPool<MyXMLReader,ObjectIdCreationPolicy<MyXMLReader> > *> > *)
PUBLIC 3b10 0 _STL::_Rb_tree<_STL::basic_string<char,_STL::char_traits<char>,_STL::allocator<char> >,_STL::pair<_STL::basic_string<char,_STL::char_traits<char>,_STL::allocator<char> > const ,GenericPool<MyXMLReader,ObjectIdCreationPolicy<MyXMLReader> > *>,_STL::_Select1st<_STL::pair<_STL::basic_string<char,_STL::char_traits<char>,_STL::allocator<char> > const ,GenericPool<MyXMLReader,ObjectIdCreationPolicy<MyXMLReader> > *> >,_STL::less<_STL::basic_string<char,_STL::char_traits<char>,_STL::allocator<char> > >,_STL::allocator<_STL::pair<_STL::basic_string<char,_STL::char_traits<char>,_STL::allocator<char> > const ,GenericPool<MyXMLReader,ObjectIdCreationPolicy<MyXMLReader> > *> > >::_S_right(_STL::_Rb_tree_node<_STL::pair<_STL::basic_string<char,_STL::char_traits<char>,_STL::allocator<char> > const ,GenericPool<MyXMLReader,ObjectIdCreationPolicy<MyXMLReader> > *> > *)
PUBLIC 3b20 0 _STL::allocator<_STL::_Rb_tree_node<_STL::pair<_STL::basic_string<char,_STL::char_traits<char>,_STL::allocator<char> > const ,GenericPool<MyXMLReader,ObjectIdCreationPolicy<MyXMLReader> > *> > >::allocator<_STL::_Rb_tree_node<_STL::pair<_STL::basic_string<char,_STL::char_traits<char>,_STL::allocator<char> > const ,GenericPool<MyXMLReader,ObjectIdCreationPolicy<MyXMLReader> > *> > >(_STL::allocator<_STL::_Rb_tree_node<_STL::pair<_STL::basic_string<char,_STL::char_traits<char>,_STL::allocator<char> > const ,GenericPool<MyXMLReader,ObjectIdCreationPolicy<MyXMLReader> > *> > > const &)
PUBLIC 3b30 0 _STL::_Rb_tree<_STL::basic_string<char,_STL::char_traits<char>,_STL::allocator<char> >,_STL::pair<_STL::basic_string<char,_STL::char_traits<char>,_STL::allocator<char> > const ,GenericPool<MyXMLReader,ObjectIdCreationPolicy<MyXMLReader> > *>,_STL::_Select1st<_STL::pair<_STL::basic_string<char,_STL::char_traits<char>,_STL::allocator<char> > const ,GenericPool<MyXMLReader,ObjectIdCreationPolicy<MyXMLReader> > *> >,_STL::less<_STL::basic_string<char,_STL::char_traits<char>,_STL::allocator<char> > >,_STL::allocator<_STL::pair<_STL::basic_string<char,_STL::char_traits<char>,_STL::allocator<char> > const ,GenericPool<MyXMLReader,ObjectIdCreationPolicy<MyXMLReader> > *> > >::_S_value(_STL::_Rb_tree_node<_STL::pair<_STL::basic_string<char,_STL::char_traits<char>,_STL::allocator<char> > const ,GenericPool<MyXMLReader,ObjectIdCreationPolicy<MyXMLReader> > *> > *)
PUBLIC 3b40 0 _STL::_Select1st<_STL::pair<_STL::basic_string<char,_STL::char_traits<char>,_STL::allocator<char> > const ,GenericPool<MyXMLReader,ObjectIdCreationPolicy<MyXMLReader> > *> >::operator()(_STL::pair<_STL::basic_string<char,_STL::char_traits<char>,_STL::allocator<char> > const ,GenericPool<MyXMLReader,ObjectIdCreationPolicy<MyXMLReader> > *> const &)
PUBLIC 3b50 0 ACE_Guard<ACE_Thread_Mutex>::locked()
PUBLIC 3b60 0 _STL::operator<<<_STL::char_traits<char> >(_STL::basic_ostream<char,_STL::char_traits<char> > &,char const *)
PUBLIC 3b80 0 ACE_Guard<ACE_Recursive_Thread_Mutex>::ACE_Guard<ACE_Recursive_Thread_Mutex>(ACE_Recursive_Thread_Mutex &,int,int)
PUBLIC 3ba0 0 _STL::operator+<char,_STL::char_traits<char>,_STL::allocator<char> >(_STL::basic_string<char,_STL::char_traits<char>,_STL::allocator<char> > const &,_STL::basic_string<char,_STL::char_traits<char>,_STL::allocator<char> > const &)
PUBLIC 3c50 0 ACE_Guard<ACE_RW_Thread_Mutex>::release()
PUBLIC 3c70 0 _STL::_Destroy<ScriptBase *>(ScriptBase * *)
PUBLIC 3c80 0 _STL::allocator<_STL::_List_node<ScriptBase *> >::allocator<_STL::_List_node<ScriptBase *> ><ScriptBase *>(_STL::allocator<ScriptBase *> const &)
PUBLIC 3c90 0 _STL::_Construct<ScriptBase *,ScriptBase *>(ScriptBase * *,ScriptBase * const &)
PUBLIC 3cb0 0 _STL::operator<<char,_STL::char_traits<char>,_STL::allocator<char> >(_STL::basic_string<char,_STL::char_traits<char>,_STL::allocator<char> > const &,_STL::basic_string<char,_STL::char_traits<char>,_STL::allocator<char> > const &)
PUBLIC 3ce0 0 _STL::allocator<_STL::_Rb_tree_node<_STL::pair<_STL::basic_string<char,_STL::char_traits<char>,_STL::allocator<char> > const ,GenericPool<MyXMLReader,ObjectIdCreationPolicy<MyXMLReader> > *> > >::allocator<_STL::_Rb_tree_node<_STL::pair<_STL::basic_string<char,_STL::char_traits<char>,_STL::allocator<char> > const ,GenericPool<MyXMLReader,ObjectIdCreationPolicy<MyXMLReader> > *> > ><_STL::pair<_STL::basic_string<char,_STL::char_traits<char>,_STL::allocator<char> > const ,GenericPool<MyXMLReader,ObjectIdCreationPolicy<MyXMLReader> > *> >(_STL::allocator<_STL::pair<_STL::basic_string<char,_STL::char_traits<char>,_STL::allocator<char> > const ,GenericPool<MyXMLReader,ObjectIdCreationPolicy<MyXMLReader> > *> > const &)
PUBLIC 3cf0 0 _STL::pointer_to_unary_function<ScriptBase *,bool>::pointer_to_unary_function<ScriptBase *,bool>(bool (*)(ScriptBase *))
PUBLIC 3d00 0 _STL::_Rb_tree<_STL::basic_string<char,_STL::char_traits<char>,_STL::allocator<char> >,_STL::pair<_STL::basic_string<char,_STL::char_traits<char>,_STL::allocator<char> > const ,GenericPool<MyXMLReader,ObjectIdCreationPolicy<MyXMLReader> > *>,_STL::_Select1st<_STL::pair<_STL::basic_string<char,_STL::char_traits<char>,_STL::allocator<char> > const ,GenericPool<MyXMLReader,ObjectIdCreationPolicy<MyXMLReader> > *> >,_STL::less<_STL::basic_string<char,_STL::char_traits<char>,_STL::allocator<char> > >,_STL::allocator<_STL::pair<_STL::basic_string<char,_STL::char_traits<char>,_STL::allocator<char> > const ,GenericPool<MyXMLReader,ObjectIdCreationPolicy<MyXMLReader> > *> > >::_S_right(_STL::_Rb_tree_node_base *)
PUBLIC 3d10 0 _STL::_Rb_tree<_STL::basic_string<char,_STL::char_traits<char>,_STL::allocator<char> >,_STL::pair<_STL::basic_string<char,_STL::char_traits<char>,_STL::allocator<char> > const ,GenericPool<MyXMLReader,ObjectIdCreationPolicy<MyXMLReader> > *>,_STL::_Select1st<_STL::pair<_STL::basic_string<char,_STL::char_traits<char>,_STL::allocator<char> > const ,GenericPool<MyXMLReader,ObjectIdCreationPolicy<MyXMLReader> > *> >,_STL::less<_STL::basic_string<char,_STL::char_traits<char>,_STL::allocator<char> > >,_STL::allocator<_STL::pair<_STL::basic_string<char,_STL::char_traits<char>,_STL::allocator<char> > const ,GenericPool<MyXMLReader,ObjectIdCreationPolicy<MyXMLReader> > *> > >::_S_key(_STL::_Rb_tree_node_base *)
PUBLIC 3d20 0 _STL::_Rb_tree<_STL::basic_string<char,_STL::char_traits<char>,_STL::allocator<char> >,_STL::pair<_STL::basic_string<char,_STL::char_traits<char>,_STL::allocator<char> > const ,GenericPool<MyXMLReader,ObjectIdCreationPolicy<MyXMLReader> > *>,_STL::_Select1st<_STL::pair<_STL::basic_string<char,_STL::char_traits<char>,_STL::allocator<char> > const ,GenericPool<MyXMLReader,ObjectIdCreationPolicy<MyXMLReader> > *> >,_STL::less<_STL::basic_string<char,_STL::char_traits<char>,_STL::allocator<char> > >,_STL::allocator<_STL::pair<_STL::basic_string<char,_STL::char_traits<char>,_STL::allocator<char> > const ,GenericPool<MyXMLReader,ObjectIdCreationPolicy<MyXMLReader> > *> > >::size()
PUBLIC 3d30 0 ACE_Guard<ACE_RW_Thread_Mutex>::ACE_Guard<ACE_RW_Thread_Mutex>(ACE_RW_Thread_Mutex *)
PUBLIC 3d40 0 _STL::_Rb_tree_iterator<_STL::pair<_STL::basic_string<char,_STL::char_traits<char>,_STL::allocator<char> > const ,GenericPool<MyXMLReader,ObjectIdCreationPolicy<MyXMLReader> > *>,_STL::_Nonconst_traits<_STL::pair<_STL::basic_string<char,_STL::char_traits<char>,_STL::allocator<char> > const ,GenericPool<MyXMLReader,ObjectIdCreationPolicy<MyXMLReader> > *> > >::operator++()
PUBLIC 3d60 0 _STL::_Rb_tree_iterator<_STL::pair<_STL::basic_string<char,_STL::char_traits<char>,_STL::allocator<char> > const ,GenericPool<MyXMLReader,ObjectIdCreationPolicy<MyXMLReader> > *>,_STL::_Nonconst_traits<_STL::pair<_STL::basic_string<char,_STL::char_traits<char>,_STL::allocator<char> > const ,GenericPool<MyXMLReader,ObjectIdCreationPolicy<MyXMLReader> > *> > >::operator--()
PUBLIC 3d80 0 ACE_Guard<ACE_Thread_Mutex>::acquire()
PUBLIC 3d90 0 ACE_Guard<ACE_Thread_Mutex>::release()
PUBLIC 3db0 0 ACE_Atomic_Op_Ex<ACE_Thread_Mutex,unsigned int>::ACE_Atomic_Op_Ex<ACE_Thread_Mutex,unsigned int>(ACE_Thread_Mutex &,unsigned int const &)
PUBLIC 3dd0 0 ACE_Read_Guard<ACE_RW_Thread_Mutex>::acquire_read()
PUBLIC 3de0 0 ACE_Write_Guard<ACE_RW_Thread_Mutex>::acquire_write()
PUBLIC 3df0 0 _STL::pair<_STL::basic_string<char,_STL::char_traits<char>,_STL::allocator<char> > const ,GenericPool<MyXMLReader,ObjectIdCreationPolicy<MyXMLReader> > *>::`scalar deleting destructor'(unsigned int)
PUBLIC 3e10 0 _STL::pointer_to_unary_function<ScriptBase *,bool>::operator()(ScriptBase *)
PUBLIC 3e20 0 _STL::_Rb_tree<_STL::basic_string<char,_STL::char_traits<char>,_STL::allocator<char> >,_STL::pair<_STL::basic_string<char,_STL::char_traits<char>,_STL::allocator<char> > const ,GenericPool<MyXMLReader,ObjectIdCreationPolicy<MyXMLReader> > *>,_STL::_Select1st<_STL::pair<_STL::basic_string<char,_STL::char_traits<char>,_STL::allocator<char> > const ,GenericPool<MyXMLReader,ObjectIdCreationPolicy<MyXMLReader> > *> >,_STL::less<_STL::basic_string<char,_STL::char_traits<char>,_STL::allocator<char> > >,_STL::allocator<_STL::pair<_STL::basic_string<char,_STL::char_traits<char>,_STL::allocator<char> > const ,GenericPool<MyXMLReader,ObjectIdCreationPolicy<MyXMLReader> > *> > >::_S_parent(_STL::_Rb_tree_node<_STL::pair<_STL::basic_string<char,_STL::char_traits<char>,_STL::allocator<char> > const ,GenericPool<MyXMLReader,ObjectIdCreationPolicy<MyXMLReader> > *> > *)
PUBLIC 3e30 0 _STL::_Rb_tree<_STL::basic_string<char,_STL::char_traits<char>,_STL::allocator<char> >,_STL::pair<_STL::basic_string<char,_STL::char_traits<char>,_STL::allocator<char> > const ,GenericPool<MyXMLReader,ObjectIdCreationPolicy<MyXMLReader> > *>,_STL::_Select1st<_STL::pair<_STL::basic_string<char,_STL::char_traits<char>,_STL::allocator<char> > const ,GenericPool<MyXMLReader,ObjectIdCreationPolicy<MyXMLReader> > *> >,_STL::less<_STL::basic_string<char,_STL::char_traits<char>,_STL::allocator<char> > >,_STL::allocator<_STL::pair<_STL::basic_string<char,_STL::char_traits<char>,_STL::allocator<char> > const ,GenericPool<MyXMLReader,ObjectIdCreationPolicy<MyXMLReader> > *> > >::begin()
PUBLIC 3e40 0 _STL::pair<_STL::_Rb_tree_iterator<_STL::pair<_STL::basic_string<char,_STL::char_traits<char>,_STL::allocator<char> > const ,GenericPool<MyXMLReader,ObjectIdCreationPolicy<MyXMLReader> > *>,_STL::_Nonconst_traits<_STL::pair<_STL::basic_string<char,_STL::char_traits<char>,_STL::allocator<char> > const ,GenericPool<MyXMLReader,ObjectIdCreationPolicy<MyXMLReader> > *> > >,bool>::pair<_STL::_Rb_tree_iterator<_STL::pair<_STL::basic_string<char,_STL::char_traits<char>,_STL::allocator<char> > const ,GenericPool<MyXMLReader,ObjectIdCreationPolicy<MyXMLReader> > *>,_STL::_Nonconst_traits<_STL::pair<_STL::basic_string<char,_STL::char_traits<char>,_STL::allocator<char> > const ,GenericPool<MyXMLReader,ObjectIdCreationPolicy<MyXMLReader> > *> > >,bool>(_STL::_Rb_tree_iterator<_STL::pair<_STL::basic_string<char,_STL::char_traits<char>,_STL::allocator<char> > const ,GenericPool<MyXMLReader,ObjectIdCreationPolicy<MyXMLReader> > *>,_STL::_Nonconst_traits<_STL::pair<_STL::basic_string<char,_STL::char_traits<char>,_STL::allocator<char> > const ,GenericPool<MyXMLReader,ObjectIdCreationPolicy<MyXMLReader> > *> > > const &,bool const &)
PUBLIC 3e60 0 ACE_Guard<ACE_Recursive_Thread_Mutex>::locked()
PUBLIC 3e70 0 _STL::__find_if<_STL::_List_iterator<ScriptBase *,_STL::_Nonconst_traits<ScriptBase *> >,_STL::pointer_to_unary_function<ScriptBase *,bool> >(_STL::_List_iterator<ScriptBase *,_STL::_Nonconst_traits<ScriptBase *> >,_STL::_List_iterator<ScriptBase *,_STL::_Nonconst_traits<ScriptBase *> >,_STL::pointer_to_unary_function<ScriptBase *,bool>,_STL::input_iterator_tag const &)
PUBLIC 3ea0 0 _STL::pair<_STL::basic_string<char,_STL::char_traits<char>,_STL::allocator<char> > const ,GenericPool<MyXMLReader,ObjectIdCreationPolicy<MyXMLReader> > *>::pair<_STL::basic_string<char,_STL::char_traits<char>,_STL::allocator<char> > const ,GenericPool<MyXMLReader,ObjectIdCreationPolicy<MyXMLReader> > *>(_STL::pair<_STL::basic_string<char,_STL::char_traits<char>,_STL::allocator<char> > const ,GenericPool<MyXMLReader,ObjectIdCreationPolicy<MyXMLReader> > *> const &)
PUBLIC 3ec0 0 _STL::max<unsigned int>(unsigned int const &,unsigned int const &)
PUBLIC 3ee0 0 _STL::__distance<char const *>(char const * const &,char const * const &,_STL::random_access_iterator_tag const &)
PUBLIC 3ef0 0 _STL::_BothPtrType<char *,char *>::_Ret()
PUBLIC 3f00 0 _STL::_OKToMemCpy<char,char>::_Ret()
PUBLIC 3f10 0 _STL::_IsOKToMemCpy<char,char>(char *,char *)
PUBLIC 3f20 0 _STL::__copy_ptrs<char *,char *>(char *,char *,char *,_STL::__true_type const &)
PUBLIC 3f50 0 Python_Guard::Python_Guard()
PUBLIC 3f70 0 Python_Guard::~Python_Guard()
PUBLIC 3f90 0 ControladorBase::ParseScriptConfig(_STL::basic_string<char,_STL::char_traits<char>,_STL::allocator<char> > const &)
PUBLIC 4050 0 ControladorBase::SendBasicMonConfigFromNode(xercesc_2_7::DOMNode const *)
PUBLIC 42e0 0 ControladorBase::SetMonConfigFromNode(xercesc_2_7::DOMNode const *,bool)
PUBLIC 4710 0 ControllerError::ControllerError(ControllerError const &)
PUBLIC 4730 0 ControladorBase::updateKeyOnStop()
PUBLIC 47f0 0 ControladorBase::checkKeyStart()
PUBLIC 4970 0 ControladorBase::CheckKeyActivity(TActivity)
PUBLIC 49a0 0 ControladorBase::SetActivity(TActivity,bool)
PUBLIC 4ad0 0 ControladorBase::UpdateStorage()
PUBLIC 4c00 0 ControladorBase::OnUpdate()
PUBLIC 4c20 0 ControladorBase::hasStgVisitor()
PUBLIC 4c30 0 _STL::list<ScriptBase *,_STL::allocator<ScriptBase *> >::begin()
PUBLIC 4c40 0 _STL::list<ScriptBase *,_STL::allocator<ScriptBase *> >::begin()
PUBLIC 4c50 0 _STL::list<ScriptBase *,_STL::allocator<ScriptBase *> >::end()
PUBLIC 4c60 0 _STL::list<ScriptBase *,_STL::allocator<ScriptBase *> >::end()
PUBLIC 4c70 0 _STL::auto_ptr<MonitorDB>::reset(MonitorDB *)
PUBLIC 4c90 0 _STL::list<ScriptBase *,_STL::allocator<ScriptBase *> >::erase(_STL::_List_iterator<ScriptBase *,_STL::_Nonconst_traits<ScriptBase *> >)
PUBLIC 4cc0 0 _STL::_Rb_tree_iterator<_STL::pair<_STL::basic_string<char,_STL::char_traits<char>,_STL::allocator<char> > const ,GenericPool<MyXMLReader,ObjectIdCreationPolicy<MyXMLReader> > *>,_STL::_Nonconst_traits<_STL::pair<_STL::basic_string<char,_STL::char_traits<char>,_STL::allocator<char> > const ,GenericPool<MyXMLReader,ObjectIdCreationPolicy<MyXMLReader> > *> > >::operator->()
PUBLIC 4cd0 0 _STL::_STLP_alloc_proxy<_STL::_List_node<ScriptBase *> *,_STL::_List_node<ScriptBase *>,_STL::allocator<_STL::_List_node<ScriptBase *> > >::~_STLP_alloc_proxy<_STL::_List_node<ScriptBase *> *,_STL::_List_node<ScriptBase *>,_STL::allocator<_STL::_List_node<ScriptBase *> > >()
PUBLIC 4ce0 0 _STL::list<ScriptBase *,_STL::allocator<ScriptBase *> >::_M_create_node(ScriptBase * const &)
PUBLIC 4d00 0 _STL::_STLP_alloc_proxy<_STL::_List_node<ScriptBase *> *,_STL::_List_node<ScriptBase *>,_STL::allocator<_STL::_List_node<ScriptBase *> > >::_STLP_alloc_proxy<_STL::_List_node<ScriptBase *> *,_STL::_List_node<ScriptBase *>,_STL::allocator<_STL::_List_node<ScriptBase *> > >(_STL::allocator<_STL::_List_node<ScriptBase *> > const &,_STL::_List_node<ScriptBase *> *)
PUBLIC 4d10 0 _STL::_Rb_tree<_STL::basic_string<char,_STL::char_traits<char>,_STL::allocator<char> >,_STL::pair<_STL::basic_string<char,_STL::char_traits<char>,_STL::allocator<char> > const ,GenericPool<MyXMLReader,ObjectIdCreationPolicy<MyXMLReader> > *>,_STL::_Select1st<_STL::pair<_STL::basic_string<char,_STL::char_traits<char>,_STL::allocator<char> > const ,GenericPool<MyXMLReader,ObjectIdCreationPolicy<MyXMLReader> > *> >,_STL::less<_STL::basic_string<char,_STL::char_traits<char>,_STL::allocator<char> > >,_STL::allocator<_STL::pair<_STL::basic_string<char,_STL::char_traits<char>,_STL::allocator<char> > const ,GenericPool<MyXMLReader,ObjectIdCreationPolicy<MyXMLReader> > *> > >::end()
PUBLIC 4d20 0 GenericPool<MyXMLReader,ObjectIdCreationPolicy<MyXMLReader> >::GenericPool<MyXMLReader,ObjectIdCreationPolicy<MyXMLReader> >(_STL::basic_string<char,_STL::char_traits<char>,_STL::allocator<char> > const &,unsigned int,unsigned int)
PUBLIC 4dc0 0 _STL::less<_STL::basic_string<char,_STL::char_traits<char>,_STL::allocator<char> > >::operator()(_STL::basic_string<char,_STL::char_traits<char>,_STL::allocator<char> > const &,_STL::basic_string<char,_STL::char_traits<char>,_STL::allocator<char> > const &)
PUBLIC 4df0 0 _STL::map<_STL::basic_string<char,_STL::char_traits<char>,_STL::allocator<char> >,GenericPool<MyXMLReader,ObjectIdCreationPolicy<MyXMLReader> > *,_STL::less<_STL::basic_string<char,_STL::char_traits<char>,_STL::allocator<char> > >,_STL::allocator<_STL::pair<_STL::basic_string<char,_STL::char_traits<char>,_STL::allocator<char> > const ,GenericPool<MyXMLReader,ObjectIdCreationPolicy<MyXMLReader> > *> > >::key_comp()
PUBLIC 4e00 0 _STL::_STLP_alloc_proxy<_STL::_Rb_tree_node<_STL::pair<_STL::basic_string<char,_STL::char_traits<char>,_STL::allocator<char> > const ,GenericPool<MyXMLReader,ObjectIdCreationPolicy<MyXMLReader> > *> > *,_STL::_Rb_tree_node<_STL::pair<_STL::basic_string<char,_STL::char_traits<char>,_STL::allocator<char> > const ,GenericPool<MyXMLReader,ObjectIdCreationPolicy<MyXMLReader> > *> >,_STL::allocator<_STL::_Rb_tree_node<_STL::pair<_STL::basic_string<char,_STL::char_traits<char>,_STL::allocator<char> > const ,GenericPool<MyXMLReader,ObjectIdCreationPolicy<MyXMLReader> > *> > > >::~_STLP_alloc_proxy<_STL::_Rb_tree_node<_STL::pair<_STL::basic_string<char,_STL::char_traits<char>,_STL::allocator<char> > const ,GenericPool<MyXMLReader,ObjectIdCreationPolicy<MyXMLReader> > *> > *,_STL::_Rb_tree_node<_STL::pair<_STL::basic_string<char,_STL::char_traits<char>,_STL::allocator<char> > const ,GenericPool<MyXMLReader,ObjectIdCreationPolicy<MyXMLReader> > *> >,_STL::allocator<_STL::_Rb_tree_node<_STL::pair<_STL::basic_string<char,_STL::char_traits<char>,_STL::allocator<char> > const ,GenericPool<MyXMLReader,ObjectIdCreationPolicy<MyXMLReader> > *> > > >()
PUBLIC 4e10 0 _STL::_Rb_tree<_STL::basic_string<char,_STL::char_traits<char>,_STL::allocator<char> >,_STL::pair<_STL::basic_string<char,_STL::char_traits<char>,_STL::allocator<char> > const ,GenericPool<MyXMLReader,ObjectIdCreationPolicy<MyXMLReader> > *>,_STL::_Select1st<_STL::pair<_STL::basic_string<char,_STL::char_traits<char>,_STL::allocator<char> > const ,GenericPool<MyXMLReader,ObjectIdCreationPolicy<MyXMLReader> > *> >,_STL::less<_STL::basic_string<char,_STL::char_traits<char>,_STL::allocator<char> > >,_STL::allocator<_STL::pair<_STL::basic_string<char,_STL::char_traits<char>,_STL::allocator<char> > const ,GenericPool<MyXMLReader,ObjectIdCreationPolicy<MyXMLReader> > *> > >::_M_empty_initialize()
PUBLIC 4e30 0 PoolObject<MyXMLReader>::PoolObject<MyXMLReader>(MyXMLReader *,IPool<MyXMLReader> &)
PUBLIC 4e60 0 PoolObject<MyXMLReader>::Release()
PUBLIC 4e70 0 PoolObject<MyXMLReader>::`scalar deleting destructor'(unsigned int)
PUBLIC 4e90 0 PoolObject<MyXMLReader>::~PoolObject<MyXMLReader>()
PUBLIC 4ee0 0 _STL::_STLP_alloc_proxy<_STL::_Rb_tree_node<_STL::pair<_STL::basic_string<char,_STL::char_traits<char>,_STL::allocator<char> > const ,GenericPool<MyXMLReader,ObjectIdCreationPolicy<MyXMLReader> > *> > *,_STL::_Rb_tree_node<_STL::pair<_STL::basic_string<char,_STL::char_traits<char>,_STL::allocator<char> > const ,GenericPool<MyXMLReader,ObjectIdCreationPolicy<MyXMLReader> > *> >,_STL::allocator<_STL::_Rb_tree_node<_STL::pair<_STL::basic_string<char,_STL::char_traits<char>,_STL::allocator<char> > const ,GenericPool<MyXMLReader,ObjectIdCreationPolicy<MyXMLReader> > *> > > >::_STLP_alloc_proxy<_STL::_Rb_tree_node<_STL::pair<_STL::basic_string<char,_STL::char_traits<char>,_STL::allocator<char> > const ,GenericPool<MyXMLReader,ObjectIdCreationPolicy<MyXMLReader> > *> > *,_STL::_Rb_tree_node<_STL::pair<_STL::basic_string<char,_STL::char_traits<char>,_STL::allocator<char> > const ,GenericPool<MyXMLReader,ObjectIdCreationPolicy<MyXMLReader> > *> >,_STL::allocator<_STL::_Rb_tree_node<_STL::pair<_STL::basic_string<char,_STL::char_traits<char>,_STL::allocator<char> > const ,GenericPool<MyXMLReader,ObjectIdCreationPolicy<MyXMLReader> > *> > > >(_STL::allocator<_STL::_Rb_tree_node<_STL::pair<_STL::basic_string<char,_STL::char_traits<char>,_STL::allocator<char> > const ,GenericPool<MyXMLReader,ObjectIdCreationPolicy<MyXMLReader> > *> > > const &,_STL::_Rb_tree_node<_STL::pair<_STL::basic_string<char,_STL::char_traits<char>,_STL::allocator<char> > const ,GenericPool<MyXMLReader,ObjectIdCreationPolicy<MyXMLReader> > *> > *)
PUBLIC 4ef0 0 _STL::_Rb_tree<_STL::basic_string<char,_STL::char_traits<char>,_STL::allocator<char> >,_STL::pair<_STL::basic_string<char,_STL::char_traits<char>,_STL::allocator<char> > const ,GenericPool<MyXMLReader,ObjectIdCreationPolicy<MyXMLReader> > *>,_STL::_Select1st<_STL::pair<_STL::basic_string<char,_STL::char_traits<char>,_STL::allocator<char> > const ,GenericPool<MyXMLReader,ObjectIdCreationPolicy<MyXMLReader> > *> >,_STL::less<_STL::basic_string<char,_STL::char_traits<char>,_STL::allocator<char> > >,_STL::allocator<_STL::pair<_STL::basic_string<char,_STL::char_traits<char>,_STL::allocator<char> > const ,GenericPool<MyXMLReader,ObjectIdCreationPolicy<MyXMLReader> > *> > >::_S_key(_STL::_Rb_tree_node<_STL::pair<_STL::basic_string<char,_STL::char_traits<char>,_STL::allocator<char> > const ,GenericPool<MyXMLReader,ObjectIdCreationPolicy<MyXMLReader> > *> > *)
PUBLIC 4f00 0 ACE_Guard<ACE_Thread_Mutex>::ACE_Guard<ACE_Thread_Mutex>(ACE_Thread_Mutex &)
PUBLIC 4f20 0 ACE_Guard<ACE_Thread_Mutex>::~ACE_Guard<ACE_Thread_Mutex>()
PUBLIC 4f40 0 _STL::_List_base<ScriptBase *,_STL::allocator<ScriptBase *> >::clear()
PUBLIC 4f80 0 ACE_Atomic_Op<ACE_Thread_Mutex,unsigned int>::ACE_Atomic_Op<ACE_Thread_Mutex,unsigned int>(unsigned int const &)
PUBLIC 4fa0 0 _STL::ptr_fun<ScriptBase *,bool>(bool (*)(ScriptBase *))
PUBLIC 4fb0 0 ACE_Guard<ACE_RW_Thread_Mutex>::~ACE_Guard<ACE_RW_Thread_Mutex>()
PUBLIC 4fd0 0 ACE_Read_Guard<ACE_RW_Thread_Mutex>::ACE_Read_Guard<ACE_RW_Thread_Mutex>(ACE_RW_Thread_Mutex &)
PUBLIC 5020 0 ACE_Write_Guard<ACE_RW_Thread_Mutex>::ACE_Write_Guard<ACE_RW_Thread_Mutex>(ACE_RW_Thread_Mutex &)
PUBLIC 5070 0 ACE_Atomic_Op_Ex<ACE_Thread_Mutex,unsigned int>::operator++(int)
PUBLIC 50f0 0 ACE_Atomic_Op_Ex<ACE_Thread_Mutex,unsigned int>::operator=(unsigned int const &)
PUBLIC 5150 0 ACE_Atomic_Op_Ex<ACE_Thread_Mutex,unsigned int>::value()
PUBLIC 51c0 0 ACE_Atomic_Op_Ex<ACE_Recursive_Thread_Mutex,int>::operator++(int)
PUBLIC 5240 0 _STL::find_if<_STL::_List_iterator<ScriptBase *,_STL::_Nonconst_traits<ScriptBase *> >,_STL::pointer_to_unary_function<ScriptBase *,bool> >(_STL::_List_iterator<ScriptBase *,_STL::_Nonconst_traits<ScriptBase *> >,_STL::_List_iterator<ScriptBase *,_STL::_Nonconst_traits<ScriptBase *> >,_STL::pointer_to_unary_function<ScriptBase *,bool>)
PUBLIC 5270 0 _STL::remove_copy_if<_STL::_List_iterator<ScriptBase *,_STL::_Nonconst_traits<ScriptBase *> >,_STL::_List_iterator<ScriptBase *,_STL::_Nonconst_traits<ScriptBase *> >,_STL::pointer_to_unary_function<ScriptBase *,bool> >(_STL::_List_iterator<ScriptBase *,_STL::_Nonconst_traits<ScriptBase *> >,_STL::_List_iterator<ScriptBase *,_STL::_Nonconst_traits<ScriptBase *> >,_STL::_List_iterator<ScriptBase *,_STL::_Nonconst_traits<ScriptBase *> >,_STL::pointer_to_unary_function<ScriptBase *,bool>)
PUBLIC 52c0 0 _STL::_Destroy<_STL::pair<_STL::basic_string<char,_STL::char_traits<char>,_STL::allocator<char> > const ,GenericPool<MyXMLReader,ObjectIdCreationPolicy<MyXMLReader> > *> >(_STL::pair<_STL::basic_string<char,_STL::char_traits<char>,_STL::allocator<char> > const ,GenericPool<MyXMLReader,ObjectIdCreationPolicy<MyXMLReader> > *> *)
PUBLIC 52d0 0 _STL::_Rb_tree<_STL::basic_string<char,_STL::char_traits<char>,_STL::allocator<char> >,_STL::pair<_STL::basic_string<char,_STL::char_traits<char>,_STL::allocator<char> > const ,GenericPool<MyXMLReader,ObjectIdCreationPolicy<MyXMLReader> > *>,_STL::_Select1st<_STL::pair<_STL::basic_string<char,_STL::char_traits<char>,_STL::allocator<char> > const ,GenericPool<MyXMLReader,ObjectIdCreationPolicy<MyXMLReader> > *> >,_STL::less<_STL::basic_string<char,_STL::char_traits<char>,_STL::allocator<char> > >,_STL::allocator<_STL::pair<_STL::basic_string<char,_STL::char_traits<char>,_STL::allocator<char> > const ,GenericPool<MyXMLReader,ObjectIdCreationPolicy<MyXMLReader> > *> > >::_M_find<_STL::basic_string<char,_STL::char_traits<char>,_STL::allocator<char> > >(_STL::basic_string<char,_STL::char_traits<char>,_STL::allocator<char> > const &)
PUBLIC 5350 0 _STL::_Construct<_STL::pair<_STL::basic_string<char,_STL::char_traits<char>,_STL::allocator<char> > const ,GenericPool<MyXMLReader,ObjectIdCreationPolicy<MyXMLReader> > *>,_STL::pair<_STL::basic_string<char,_STL::char_traits<char>,_STL::allocator<char> > const ,GenericPool<MyXMLReader,ObjectIdCreationPolicy<MyXMLReader> > *> >(_STL::pair<_STL::basic_string<char,_STL::char_traits<char>,_STL::allocator<char> > const ,GenericPool<MyXMLReader,ObjectIdCreationPolicy<MyXMLReader> > *> *,_STL::pair<_STL::basic_string<char,_STL::char_traits<char>,_STL::allocator<char> > const ,GenericPool<MyXMLReader,ObjectIdCreationPolicy<MyXMLReader> > *> const &)
PUBLIC 53a0 0 _STL::distance<char const *>(char const * const &,char const * const &)
PUBLIC 53b0 0 _STL::__copy_aux<char *,char *>(char *,char *,char *,_STL::__true_type const &)
PUBLIC 53e0 0 ControladorBase::Init(xercesc_2_7::DOMNode const *)
PUBLIC 5410 0 ControladorBase::InitScripts(_STL::basic_string<char,_STL::char_traits<char>,_STL::allocator<char> > const &)
PUBLIC 5430 0 ControladorBase::OnMonitorDeactivate()
PUBLIC 5750 0 ControladorBase::GetScript(_STL::basic_string<char,_STL::char_traits<char>,_STL::allocator<char> > const &)
PUBLIC 57a0 0 ControladorBase::OnCreate()
PUBLIC 5820 0 ControladorBase::OnLoad()
PUBLIC 58a0 0 ControladorBase::MarkScriptsToDelete()
PUBLIC 58d0 0 ControladorBase::GetEnabledScripts()
PUBLIC 5900 0 ControladorBase::getStgVisitor()
PUBLIC 5a50 0 MonitorDB::`scalar deleting destructor'(unsigned int)
PUBLIC 5a70 0 ControladorBase::GetSTGStatus()
PUBLIC 5a90 0 ControladorBase::GetSTGStatusDescription()
PUBLIC 5ae0 0 ControladorBase::SendSTGStatus(bool)
PUBLIC 5bb0 0 _STL::list<ScriptBase *,_STL::allocator<ScriptBase *> >::erase(_STL::_List_iterator<ScriptBase *,_STL::_Nonconst_traits<ScriptBase *> >,_STL::_List_iterator<ScriptBase *,_STL::_Nonconst_traits<ScriptBase *> >)
PUBLIC 5bf0 0 _STL::list<ScriptBase *,_STL::allocator<ScriptBase *> >::remove(ScriptBase * const &)
PUBLIC 5c30 0 ACE_Read_Guard<ACE_RW_Thread_Mutex>::~ACE_Read_Guard<ACE_RW_Thread_Mutex>()
PUBLIC 5c50 0 _STL::list<ScriptBase *,_STL::allocator<ScriptBase *> >::insert(_STL::_List_iterator<ScriptBase *,_STL::_Nonconst_traits<ScriptBase *> >,ScriptBase * const &)
PUBLIC 5c80 0 _STL::_List_base<ScriptBase *,_STL::allocator<ScriptBase *> >::_List_base<ScriptBase *,_STL::allocator<ScriptBase *> >(_STL::allocator<ScriptBase *> const &)
PUBLIC 5cb0 0 _STL::_List_base<ScriptBase *,_STL::allocator<ScriptBase *> >::~_List_base<ScriptBase *,_STL::allocator<ScriptBase *> >()
PUBLIC 5d00 0 _STL::map<_STL::basic_string<char,_STL::char_traits<char>,_STL::allocator<char> >,GenericPool<MyXMLReader,ObjectIdCreationPolicy<MyXMLReader> > *,_STL::less<_STL::basic_string<char,_STL::char_traits<char>,_STL::allocator<char> > >,_STL::allocator<_STL::pair<_STL::basic_string<char,_STL::char_traits<char>,_STL::allocator<char> > const ,GenericPool<MyXMLReader,ObjectIdCreationPolicy<MyXMLReader> > *> > >::end()
PUBLIC 5d10 0 ACE_Write_Guard<ACE_RW_Thread_Mutex>::~ACE_Write_Guard<ACE_RW_Thread_Mutex>()
PUBLIC 5d30 0 _STL::_Rb_tree_base<_STL::pair<_STL::basic_string<char,_STL::char_traits<char>,_STL::allocator<char> > const ,GenericPool<MyXMLReader,ObjectIdCreationPolicy<MyXMLReader> > *>,_STL::allocator<_STL::pair<_STL::basic_string<char,_STL::char_traits<char>,_STL::allocator<char> > const ,GenericPool<MyXMLReader,ObjectIdCreationPolicy<MyXMLReader> > *> > >::~_Rb_tree_base<_STL::pair<_STL::basic_string<char,_STL::char_traits<char>,_STL::allocator<char> > const ,GenericPool<MyXMLReader,ObjectIdCreationPolicy<MyXMLReader> > *>,_STL::allocator<_STL::pair<_STL::basic_string<char,_STL::char_traits<char>,_STL::allocator<char> > const ,GenericPool<MyXMLReader,ObjectIdCreationPolicy<MyXMLReader> > *> > >()
PUBLIC 5d50 0 GenericPool<MyXMLReader,ObjectIdCreationPolicy<MyXMLReader> >::AddNewObjectProtected(MyXMLReader *)
PUBLIC 5db0 0 _STL::_Rb_tree_base<_STL::pair<_STL::basic_string<char,_STL::char_traits<char>,_STL::allocator<char> > const ,GenericPool<MyXMLReader,ObjectIdCreationPolicy<MyXMLReader> > *>,_STL::allocator<_STL::pair<_STL::basic_string<char,_STL::char_traits<char>,_STL::allocator<char> > const ,GenericPool<MyXMLReader,ObjectIdCreationPolicy<MyXMLReader> > *> > >::_Rb_tree_base<_STL::pair<_STL::basic_string<char,_STL::char_traits<char>,_STL::allocator<char> > const ,GenericPool<MyXMLReader,ObjectIdCreationPolicy<MyXMLReader> > *>,_STL::allocator<_STL::pair<_STL::basic_string<char,_STL::char_traits<char>,_STL::allocator<char> > const ,GenericPool<MyXMLReader,ObjectIdCreationPolicy<MyXMLReader> > *> > >(_STL::allocator<_STL::pair<_STL::basic_string<char,_STL::char_traits<char>,_STL::allocator<char> > const ,GenericPool<MyXMLReader,ObjectIdCreationPolicy<MyXMLReader> > *> > const &)
PUBLIC 5de0 0 _STL::_Rb_tree<_STL::basic_string<char,_STL::char_traits<char>,_STL::allocator<char> >,_STL::pair<_STL::basic_string<char,_STL::char_traits<char>,_STL::allocator<char> > const ,GenericPool<MyXMLReader,ObjectIdCreationPolicy<MyXMLReader> > *>,_STL::_Select1st<_STL::pair<_STL::basic_string<char,_STL::char_traits<char>,_STL::allocator<char> > const ,GenericPool<MyXMLReader,ObjectIdCreationPolicy<MyXMLReader> > *> >,_STL::less<_STL::basic_string<char,_STL::char_traits<char>,_STL::allocator<char> > >,_STL::allocator<_STL::pair<_STL::basic_string<char,_STL::char_traits<char>,_STL::allocator<char> > const ,GenericPool<MyXMLReader,ObjectIdCreationPolicy<MyXMLReader> > *> > >::_M_lower_bound(_STL::basic_string<char,_STL::char_traits<char>,_STL::allocator<char> > const &)
PUBLIC 5e30 0 ACE_Atomic_Op<ACE_Thread_Mutex,unsigned int>::operator=(unsigned int const &)
PUBLIC 5e50 0 ACE_Atomic_Op<ACE_Thread_Mutex,unsigned int>::operator++(int)
PUBLIC 5e60 0 ACE_Atomic_Op<ACE_Thread_Mutex,unsigned int>::value()
PUBLIC 5e70 0 ACE_Atomic_Op<ACE_Recursive_Thread_Mutex,int>::operator++(int)
PUBLIC 5e80 0 _STL::remove_if<_STL::_List_iterator<ScriptBase *,_STL::_Nonconst_traits<ScriptBase *> >,_STL::pointer_to_unary_function<ScriptBase *,bool> >(_STL::_List_iterator<ScriptBase *,_STL::_Nonconst_traits<ScriptBase *> >,_STL::_List_iterator<ScriptBase *,_STL::_Nonconst_traits<ScriptBase *> >,_STL::pointer_to_unary_function<ScriptBase *,bool>)
PUBLIC 5ef0 0 _STL::_Rb_tree<_STL::basic_string<char,_STL::char_traits<char>,_STL::allocator<char> >,_STL::pair<_STL::basic_string<char,_STL::char_traits<char>,_STL::allocator<char> > const ,GenericPool<MyXMLReader,ObjectIdCreationPolicy<MyXMLReader> > *>,_STL::_Select1st<_STL::pair<_STL::basic_string<char,_STL::char_traits<char>,_STL::allocator<char> > const ,GenericPool<MyXMLReader,ObjectIdCreationPolicy<MyXMLReader> > *> >,_STL::less<_STL::basic_string<char,_STL::char_traits<char>,_STL::allocator<char> > >,_STL::allocator<_STL::pair<_STL::basic_string<char,_STL::char_traits<char>,_STL::allocator<char> > const ,GenericPool<MyXMLReader,ObjectIdCreationPolicy<MyXMLReader> > *> > >::_M_erase(_STL::_Rb_tree_node<_STL::pair<_STL::basic_string<char,_STL::char_traits<char>,_STL::allocator<char> > const ,GenericPool<MyXMLReader,ObjectIdCreationPolicy<MyXMLReader> > *> > *)
PUBLIC 5f30 0 _STL::_Rb_tree<_STL::basic_string<char,_STL::char_traits<char>,_STL::allocator<char> >,_STL::pair<_STL::basic_string<char,_STL::char_traits<char>,_STL::allocator<char> > const ,GenericPool<MyXMLReader,ObjectIdCreationPolicy<MyXMLReader> > *>,_STL::_Select1st<_STL::pair<_STL::basic_string<char,_STL::char_traits<char>,_STL::allocator<char> > const ,GenericPool<MyXMLReader,ObjectIdCreationPolicy<MyXMLReader> > *> >,_STL::less<_STL::basic_string<char,_STL::char_traits<char>,_STL::allocator<char> > >,_STL::allocator<_STL::pair<_STL::basic_string<char,_STL::char_traits<char>,_STL::allocator<char> > const ,GenericPool<MyXMLReader,ObjectIdCreationPolicy<MyXMLReader> > *> > >::find<_STL::basic_string<char,_STL::char_traits<char>,_STL::allocator<char> > >(_STL::basic_string<char,_STL::char_traits<char>,_STL::allocator<char> > const &)
PUBLIC 5f50 0 _STL::_Rb_tree<_STL::basic_string<char,_STL::char_traits<char>,_STL::allocator<char> >,_STL::pair<_STL::basic_string<char,_STL::char_traits<char>,_STL::allocator<char> > const ,GenericPool<MyXMLReader,ObjectIdCreationPolicy<MyXMLReader> > *>,_STL::_Select1st<_STL::pair<_STL::basic_string<char,_STL::char_traits<char>,_STL::allocator<char> > const ,GenericPool<MyXMLReader,ObjectIdCreationPolicy<MyXMLReader> > *> >,_STL::less<_STL::basic_string<char,_STL::char_traits<char>,_STL::allocator<char> > >,_STL::allocator<_STL::pair<_STL::basic_string<char,_STL::char_traits<char>,_STL::allocator<char> > const ,GenericPool<MyXMLReader,ObjectIdCreationPolicy<MyXMLReader> > *> > >::_M_create_node(_STL::pair<_STL::basic_string<char,_STL::char_traits<char>,_STL::allocator<char> > const ,GenericPool<MyXMLReader,ObjectIdCreationPolicy<MyXMLReader> > *> const &)
PUBLIC 5fd0 0 _STL::__uninitialized_copy<char *,char *>(char *,char *,char *,_STL::__true_type const &)
PUBLIC 6000 0 ControladorBase::GetNewEventNumber()
PUBLIC 6050 0 ControladorBase::DeleteScript(_STL::basic_string<char,_STL::char_traits<char>,_STL::allocator<char> > const &)
PUBLIC 6090 0 ControladorBase::GetInfo(bool)
PUBLIC 6230 0 ControladorBase::UpdateScripts()
PUBLIC 62c0 0 ControladorBase::setConfigFromNode(xercesc_2_7::DOMNode const *,_STL::basic_string<char,_STL::char_traits<char>,_STL::allocator<char> > const &)
PUBLIC 6390 0 ControladorBase::GetInfoXML(bool)
PUBLIC 6b60 0 _STL::list<ScriptBase *,_STL::allocator<ScriptBase *> >::list<ScriptBase *,_STL::allocator<ScriptBase *> >(_STL::allocator<ScriptBase *> const &)
PUBLIC 6b90 0 _STL::list<ScriptBase *,_STL::allocator<ScriptBase *> >::push_front(ScriptBase * const &)
PUBLIC 6bb0 0 _STL::list<ScriptBase *,_STL::allocator<ScriptBase *> >::push_back(ScriptBase * const &)
PUBLIC 6bd0 0 _STL::list<ScriptBase *,_STL::allocator<ScriptBase *> >::~list<ScriptBase *,_STL::allocator<ScriptBase *> >()
PUBLIC 6be0 0 _STL::map<_STL::basic_string<char,_STL::char_traits<char>,_STL::allocator<char> >,GenericPool<MyXMLReader,ObjectIdCreationPolicy<MyXMLReader> > *,_STL::less<_STL::basic_string<char,_STL::char_traits<char>,_STL::allocator<char> > >,_STL::allocator<_STL::pair<_STL::basic_string<char,_STL::char_traits<char>,_STL::allocator<char> > const ,GenericPool<MyXMLReader,ObjectIdCreationPolicy<MyXMLReader> > *> > >::find(_STL::basic_string<char,_STL::char_traits<char>,_STL::allocator<char> > const &)
PUBLIC 6c00 0 GenericPool<MyXMLReader,ObjectIdCreationPolicy<MyXMLReader> >::ReleasePoolObject(IPoolObject<MyXMLReader> *)
PUBLIC 6d00 0 GenericPool<MyXMLReader,ObjectIdCreationPolicy<MyXMLReader> >::`vector deleting destructor'(unsigned int)
PUBLIC 6d20 0 GenericPool<MyXMLReader,ObjectIdCreationPolicy<MyXMLReader> >::~GenericPool<MyXMLReader,ObjectIdCreationPolicy<MyXMLReader> >()
PUBLIC 6e00 0 GenericPool<MyXMLReader,ObjectIdCreationPolicy<MyXMLReader> >::GetObjectProtected()
PUBLIC 6e60 0 _STL::_Rb_tree<_STL::basic_string<char,_STL::char_traits<char>,_STL::allocator<char> >,_STL::pair<_STL::basic_string<char,_STL::char_traits<char>,_STL::allocator<char> > const ,GenericPool<MyXMLReader,ObjectIdCreationPolicy<MyXMLReader> > *>,_STL::_Select1st<_STL::pair<_STL::basic_string<char,_STL::char_traits<char>,_STL::allocator<char> > const ,GenericPool<MyXMLReader,ObjectIdCreationPolicy<MyXMLReader> > *> >,_STL::less<_STL::basic_string<char,_STL::char_traits<char>,_STL::allocator<char> > >,_STL::allocator<_STL::pair<_STL::basic_string<char,_STL::char_traits<char>,_STL::allocator<char> > const ,GenericPool<MyXMLReader,ObjectIdCreationPolicy<MyXMLReader> > *> > >::_Rb_tree<_STL::basic_string<char,_STL::char_traits<char>,_STL::allocator<char> >,_STL::pair<_STL::basic_string<char,_STL::char_traits<char>,_STL::allocator<char> > const ,GenericPool<MyXMLReader,ObjectIdCreationPolicy<MyXMLReader> > *>,_STL::_Select1st<_STL::pair<_STL::basic_string<char,_STL::char_traits<char>,_STL::allocator<char> > const ,GenericPool<MyXMLReader,ObjectIdCreationPolicy<MyXMLReader> > *> >,_STL::less<_STL::basic_string<char,_STL::char_traits<char>,_STL::allocator<char> > >,_STL::allocator<_STL::pair<_STL::basic_string<char,_STL::char_traits<char>,_STL::allocator<char> > const ,GenericPool<MyXMLReader,ObjectIdCreationPolicy<MyXMLReader> > *> > >(_STL::less<_STL::basic_string<char,_STL::char_traits<char>,_STL::allocator<char> > > const &,_STL::allocator<_STL::pair<_STL::basic_string<char,_STL::char_traits<char>,_STL::allocator<char> > const ,GenericPool<MyXMLReader,ObjectIdCreationPolicy<MyXMLReader> > *> > const &)
PUBLIC 6ea0 0 _STL::_Rb_tree<_STL::basic_string<char,_STL::char_traits<char>,_STL::allocator<char> >,_STL::pair<_STL::basic_string<char,_STL::char_traits<char>,_STL::allocator<char> > const ,GenericPool<MyXMLReader,ObjectIdCreationPolicy<MyXMLReader> > *>,_STL::_Select1st<_STL::pair<_STL::basic_string<char,_STL::char_traits<char>,_STL::allocator<char> > const ,GenericPool<MyXMLReader,ObjectIdCreationPolicy<MyXMLReader> > *> >,_STL::less<_STL::basic_string<char,_STL::char_traits<char>,_STL::allocator<char> > >,_STL::allocator<_STL::pair<_STL::basic_string<char,_STL::char_traits<char>,_STL::allocator<char> > const ,GenericPool<MyXMLReader,ObjectIdCreationPolicy<MyXMLReader> > *> > >::clear()
PUBLIC 6ee0 0 _STL::_Rb_tree<_STL::basic_string<char,_STL::char_traits<char>,_STL::allocator<char> >,_STL::pair<_STL::basic_string<char,_STL::char_traits<char>,_STL::allocator<char> > const ,GenericPool<MyXMLReader,ObjectIdCreationPolicy<MyXMLReader> > *>,_STL::_Select1st<_STL::pair<_STL::basic_string<char,_STL::char_traits<char>,_STL::allocator<char> > const ,GenericPool<MyXMLReader,ObjectIdCreationPolicy<MyXMLReader> > *> >,_STL::less<_STL::basic_string<char,_STL::char_traits<char>,_STL::allocator<char> > >,_STL::allocator<_STL::pair<_STL::basic_string<char,_STL::char_traits<char>,_STL::allocator<char> > const ,GenericPool<MyXMLReader,ObjectIdCreationPolicy<MyXMLReader> > *> > >::lower_bound(_STL::basic_string<char,_STL::char_traits<char>,_STL::allocator<char> > const &)
PUBLIC 6f00 0 _STL::_Rb_tree<_STL::basic_string<char,_STL::char_traits<char>,_STL::allocator<char> >,_STL::pair<_STL::basic_string<char,_STL::char_traits<char>,_STL::allocator<char> > const ,GenericPool<MyXMLReader,ObjectIdCreationPolicy<MyXMLReader> > *>,_STL::_Select1st<_STL::pair<_STL::basic_string<char,_STL::char_traits<char>,_STL::allocator<char> > const ,GenericPool<MyXMLReader,ObjectIdCreationPolicy<MyXMLReader> > *> >,_STL::less<_STL::basic_string<char,_STL::char_traits<char>,_STL::allocator<char> > >,_STL::allocator<_STL::pair<_STL::basic_string<char,_STL::char_traits<char>,_STL::allocator<char> > const ,GenericPool<MyXMLReader,ObjectIdCreationPolicy<MyXMLReader> > *> > >::_M_insert(_STL::_Rb_tree_node_base *,_STL::_Rb_tree_node_base *,_STL::pair<_STL::basic_string<char,_STL::char_traits<char>,_STL::allocator<char> > const ,GenericPool<MyXMLReader,ObjectIdCreationPolicy<MyXMLReader> > *> const &,_STL::_Rb_tree_node_base *)
PUBLIC 6fb0 0 _STL::_Rb_tree<_STL::basic_string<char,_STL::char_traits<char>,_STL::allocator<char> >,_STL::pair<_STL::basic_string<char,_STL::char_traits<char>,_STL::allocator<char> > const ,GenericPool<MyXMLReader,ObjectIdCreationPolicy<MyXMLReader> > *>,_STL::_Select1st<_STL::pair<_STL::basic_string<char,_STL::char_traits<char>,_STL::allocator<char> > const ,GenericPool<MyXMLReader,ObjectIdCreationPolicy<MyXMLReader> > *> >,_STL::less<_STL::basic_string<char,_STL::char_traits<char>,_STL::allocator<char> > >,_STL::allocator<_STL::pair<_STL::basic_string<char,_STL::char_traits<char>,_STL::allocator<char> > const ,GenericPool<MyXMLReader,ObjectIdCreationPolicy<MyXMLReader> > *> > >::insert_unique(_STL::pair<_STL::basic_string<char,_STL::char_traits<char>,_STL::allocator<char> > const ,GenericPool<MyXMLReader,ObjectIdCreationPolicy<MyXMLReader> > *> const &)
PUBLIC 70b0 0 _STL::uninitialized_copy<char *,char *>(char *,char *,char *)
PUBLIC 70e0 0 ControladorBase::ControladorBase(_STL::basic_string<char,_STL::char_traits<char>,_STL::allocator<char> > const &,_STL::basic_string<char,_STL::char_traits<char>,_STL::allocator<char> > const &,_STL::basic_string<char,_STL::char_traits<char>,_STL::allocator<char> > const &)
PUBLIC 72d0 0 ControladorBase::~ControladorBase()
PUBLIC 7560 0 ControladorBase::AddScript(ScriptBase *,bool)
PUBLIC 75a0 0 GenericPool<MyXMLReader,ObjectIdCreationPolicy<MyXMLReader> >::LockPoolObject()
PUBLIC 7680 0 _STL::_Rb_tree<_STL::basic_string<char,_STL::char_traits<char>,_STL::allocator<char> >,_STL::pair<_STL::basic_string<char,_STL::char_traits<char>,_STL::allocator<char> > const ,GenericPool<MyXMLReader,ObjectIdCreationPolicy<MyXMLReader> > *>,_STL::_Select1st<_STL::pair<_STL::basic_string<char,_STL::char_traits<char>,_STL::allocator<char> > const ,GenericPool<MyXMLReader,ObjectIdCreationPolicy<MyXMLReader> > *> >,_STL::less<_STL::basic_string<char,_STL::char_traits<char>,_STL::allocator<char> > >,_STL::allocator<_STL::pair<_STL::basic_string<char,_STL::char_traits<char>,_STL::allocator<char> > const ,GenericPool<MyXMLReader,ObjectIdCreationPolicy<MyXMLReader> > *> > >::~_Rb_tree<_STL::basic_string<char,_STL::char_traits<char>,_STL::allocator<char> >,_STL::pair<_STL::basic_string<char,_STL::char_traits<char>,_STL::allocator<char> > const ,GenericPool<MyXMLReader,ObjectIdCreationPolicy<MyXMLReader> > *>,_STL::_Select1st<_STL::pair<_STL::basic_string<char,_STL::char_traits<char>,_STL::allocator<char> > const ,GenericPool<MyXMLReader,ObjectIdCreationPolicy<MyXMLReader> > *> >,_STL::less<_STL::basic_string<char,_STL::char_traits<char>,_STL::allocator<char> > >,_STL::allocator<_STL::pair<_STL::basic_string<char,_STL::char_traits<char>,_STL::allocator<char> > const ,GenericPool<MyXMLReader,ObjectIdCreationPolicy<MyXMLReader> > *> > >()
PUBLIC 7700 0 _STL::map<_STL::basic_string<char,_STL::char_traits<char>,_STL::allocator<char> >,GenericPool<MyXMLReader,ObjectIdCreationPolicy<MyXMLReader> > *,_STL::less<_STL::basic_string<char,_STL::char_traits<char>,_STL::allocator<char> > >,_STL::allocator<_STL::pair<_STL::basic_string<char,_STL::char_traits<char>,_STL::allocator<char> > const ,GenericPool<MyXMLReader,ObjectIdCreationPolicy<MyXMLReader> > *> > >::lower_bound(_STL::basic_string<char,_STL::char_traits<char>,_STL::allocator<char> > const &)
PUBLIC 7720 0 _STL::_Rb_tree<_STL::basic_string<char,_STL::char_traits<char>,_STL::allocator<char> >,_STL::pair<_STL::basic_string<char,_STL::char_traits<char>,_STL::allocator<char> > const ,GenericPool<MyXMLReader,ObjectIdCreationPolicy<MyXMLReader> > *>,_STL::_Select1st<_STL::pair<_STL::basic_string<char,_STL::char_traits<char>,_STL::allocator<char> > const ,GenericPool<MyXMLReader,ObjectIdCreationPolicy<MyXMLReader> > *> >,_STL::less<_STL::basic_string<char,_STL::char_traits<char>,_STL::allocator<char> > >,_STL::allocator<_STL::pair<_STL::basic_string<char,_STL::char_traits<char>,_STL::allocator<char> > const ,GenericPool<MyXMLReader,ObjectIdCreationPolicy<MyXMLReader> > *> > >::insert_unique(_STL::_Rb_tree_iterator<_STL::pair<_STL::basic_string<char,_STL::char_traits<char>,_STL::allocator<char> > const ,GenericPool<MyXMLReader,ObjectIdCreationPolicy<MyXMLReader> > *>,_STL::_Nonconst_traits<_STL::pair<_STL::basic_string<char,_STL::char_traits<char>,_STL::allocator<char> > const ,GenericPool<MyXMLReader,ObjectIdCreationPolicy<MyXMLReader> > *> > >,_STL::pair<_STL::basic_string<char,_STL::char_traits<char>,_STL::allocator<char> > const ,GenericPool<MyXMLReader,ObjectIdCreationPolicy<MyXMLReader> > *> const &)
PUBLIC 79e0 0 _STL::basic_string<char,_STL::char_traits<char>,_STL::allocator<char> >::append<char const *>(char const *,char const *,_STL::forward_iterator_tag const &)
PUBLIC 7af0 0 ControladorBase::`scalar deleting destructor'(unsigned int)
PUBLIC 7b10 0 _STL::map<_STL::basic_string<char,_STL::char_traits<char>,_STL::allocator<char> >,GenericPool<MyXMLReader,ObjectIdCreationPolicy<MyXMLReader> > *,_STL::less<_STL::basic_string<char,_STL::char_traits<char>,_STL::allocator<char> > >,_STL::allocator<_STL::pair<_STL::basic_string<char,_STL::char_traits<char>,_STL::allocator<char> > const ,GenericPool<MyXMLReader,ObjectIdCreationPolicy<MyXMLReader> > *> > >::~map<_STL::basic_string<char,_STL::char_traits<char>,_STL::allocator<char> >,GenericPool<MyXMLReader,ObjectIdCreationPolicy<MyXMLReader> > *,_STL::less<_STL::basic_string<char,_STL::char_traits<char>,_STL::allocator<char> > >,_STL::allocator<_STL::pair<_STL::basic_string<char,_STL::char_traits<char>,_STL::allocator<char> > const ,GenericPool<MyXMLReader,ObjectIdCreationPolicy<MyXMLReader> > *> > >()
PUBLIC 7b20 0 _STL::map<_STL::basic_string<char,_STL::char_traits<char>,_STL::allocator<char> >,GenericPool<MyXMLReader,ObjectIdCreationPolicy<MyXMLReader> > *,_STL::less<_STL::basic_string<char,_STL::char_traits<char>,_STL::allocator<char> > >,_STL::allocator<_STL::pair<_STL::basic_string<char,_STL::char_traits<char>,_STL::allocator<char> > const ,GenericPool<MyXMLReader,ObjectIdCreationPolicy<MyXMLReader> > *> > >::map<_STL::basic_string<char,_STL::char_traits<char>,_STL::allocator<char> >,GenericPool<MyXMLReader,ObjectIdCreationPolicy<MyXMLReader> > *,_STL::less<_STL::basic_string<char,_STL::char_traits<char>,_STL::allocator<char> > >,_STL::allocator<_STL::pair<_STL::basic_string<char,_STL::char_traits<char>,_STL::allocator<char> > const ,GenericPool<MyXMLReader,ObjectIdCreationPolicy<MyXMLReader> > *> > >()
PUBLIC 7b60 0 _STL::map<_STL::basic_string<char,_STL::char_traits<char>,_STL::allocator<char> >,GenericPool<MyXMLReader,ObjectIdCreationPolicy<MyXMLReader> > *,_STL::less<_STL::basic_string<char,_STL::char_traits<char>,_STL::allocator<char> > >,_STL::allocator<_STL::pair<_STL::basic_string<char,_STL::char_traits<char>,_STL::allocator<char> > const ,GenericPool<MyXMLReader,ObjectIdCreationPolicy<MyXMLReader> > *> > >::insert(_STL::_Rb_tree_iterator<_STL::pair<_STL::basic_string<char,_STL::char_traits<char>,_STL::allocator<char> > const ,GenericPool<MyXMLReader,ObjectIdCreationPolicy<MyXMLReader> > *>,_STL::_Nonconst_traits<_STL::pair<_STL::basic_string<char,_STL::char_traits<char>,_STL::allocator<char> > const ,GenericPool<MyXMLReader,ObjectIdCreationPolicy<MyXMLReader> > *> > >,_STL::pair<_STL::basic_string<char,_STL::char_traits<char>,_STL::allocator<char> > const ,GenericPool<MyXMLReader,ObjectIdCreationPolicy<MyXMLReader> > *> const &)
PUBLIC 7b80 0 _STL::basic_string<char,_STL::char_traits<char>,_STL::allocator<char> >::_M_append_dispatch<char const *>(char const *,char const *,_STL::__false_type const &)
PUBLIC 7b90 0 PoolList<MyXMLReader,ObjectIdCreationPolicy<MyXMLReader> >::PoolList<MyXMLReader,ObjectIdCreationPolicy<MyXMLReader> >()
PUBLIC 7c10 0 _STL::map<_STL::basic_string<char,_STL::char_traits<char>,_STL::allocator<char> >,GenericPool<MyXMLReader,ObjectIdCreationPolicy<MyXMLReader> > *,_STL::less<_STL::basic_string<char,_STL::char_traits<char>,_STL::allocator<char> > >,_STL::allocator<_STL::pair<_STL::basic_string<char,_STL::char_traits<char>,_STL::allocator<char> > const ,GenericPool<MyXMLReader,ObjectIdCreationPolicy<MyXMLReader> > *> > >::operator[](_STL::basic_string<char,_STL::char_traits<char>,_STL::allocator<char> > const &)
PUBLIC 7cc0 0 _STL::basic_string<char,_STL::char_traits<char>,_STL::allocator<char> >::append<char const *>(char const *,char const *)
PUBLIC 7ce0 0 PoolList<MyXMLReader,ObjectIdCreationPolicy<MyXMLReader> >::instance()
PUBLIC 7d90 0 PoolList<MyXMLReader,ObjectIdCreationPolicy<MyXMLReader> >::AddNewPool(_STL::basic_string<char,_STL::char_traits<char>,_STL::allocator<char> > const &)
PUBLIC 7eb0 0 _STL::operator+<char,_STL::char_traits<char>,_STL::allocator<char> >(char const *,_STL::basic_string<char,_STL::char_traits<char>,_STL::allocator<char> > const &)
PUBLIC 7f80 0 _STL::operator+<char,_STL::char_traits<char>,_STL::allocator<char> >(_STL::basic_string<char,_STL::char_traits<char>,_STL::allocator<char> > const &,char const *)
PUBLIC 8050 0 ControladorBase::ExecuteScripts(TEvent *)
PUBLIC 8eb0 0 PoolList<MyXMLReader,ObjectIdCreationPolicy<MyXMLReader> >::GetPoolObjectWrapper(_STL::basic_string<char,_STL::char_traits<char>,_STL::allocator<char> > const &)
PUBLIC 8f60 0 ControladorBase::setConfigFast(char const *)
PUBLIC 9080 0 ControladorBase::SetConfig(char const *)
PUBLIC 9300 0 ControladorBase::CheckIfApplyConfig()
PUBLIC 9340 0 ControladorBase::dispatchEvent(TEvent *)
PUBLIC 9500 0 _STL::_Rb_tree_base_iterator::operator!=(_STL::_Rb_tree_base_iterator const &)
PUBLIC 9520 0 DiccionarioError::DiccionarioError(char const *,char const *,char const *)
PUBLIC 9550 0 DiccionarioError::getClassName()
PUBLIC 9560 0 DiccionarioError::`vector deleting destructor'(unsigned int)
PUBLIC 9580 0 DiccionarioError::~DiccionarioError()
PUBLIC 9590 0 ACE_Semaphore::`scalar deleting destructor'(unsigned int)
PUBLIC 95b0 0 _STL::_Rb_tree_iterator<_STL::pair<_STL::basic_string<char,_STL::char_traits<char>,_STL::allocator<char> > const ,ControladorBase *>,_STL::_Nonconst_traits<_STL::pair<_STL::basic_string<char,_STL::char_traits<char>,_STL::allocator<char> > const ,ControladorBase *> > >::_Rb_tree_iterator<_STL::pair<_STL::basic_string<char,_STL::char_traits<char>,_STL::allocator<char> > const ,ControladorBase *>,_STL::_Nonconst_traits<_STL::pair<_STL::basic_string<char,_STL::char_traits<char>,_STL::allocator<char> > const ,ControladorBase *> > >(_STL::_Rb_tree_iterator<_STL::pair<_STL::basic_string<char,_STL::char_traits<char>,_STL::allocator<char> > const ,ControladorBase *>,_STL::_Nonconst_traits<_STL::pair<_STL::basic_string<char,_STL::char_traits<char>,_STL::allocator<char> > const ,ControladorBase *> > > const &)
PUBLIC 95c0 0 _STL::_Rb_tree_iterator<_STL::pair<_STL::basic_string<char,_STL::char_traits<char>,_STL::allocator<char> > const ,ControladorBase *>,_STL::_Nonconst_traits<_STL::pair<_STL::basic_string<char,_STL::char_traits<char>,_STL::allocator<char> > const ,ControladorBase *> > >::operator++()
PUBLIC 95e0 0 _STL::auto_ptr<CleanUpManager>::auto_ptr<CleanUpManager>(CleanUpManager *)
PUBLIC 95f0 0 TListWrapper<TMonitorInfo>::TListWrapper<TMonitorInfo>()
PUBLIC 9600 0 TListWrapper<TMonitorInfo>::AddElement(TMonitorInfo &)
PUBLIC 9630 0 TListWrapper<TMonitorInfo>::GetInternalData()
PUBLIC 9640 0 _STL::_Rb_tree_iterator<_STL::pair<_STL::basic_string<char,_STL::char_traits<char>,_STL::allocator<char> > const ,ControladorBase *>,_STL::_Const_traits<_STL::pair<_STL::basic_string<char,_STL::char_traits<char>,_STL::allocator<char> > const ,ControladorBase *> > >::_Rb_tree_iterator<_STL::pair<_STL::basic_string<char,_STL::char_traits<char>,_STL::allocator<char> > const ,ControladorBase *>,_STL::_Const_traits<_STL::pair<_STL::basic_string<char,_STL::char_traits<char>,_STL::allocator<char> > const ,ControladorBase *> > >(_STL::_Rb_tree_iterator<_STL::pair<_STL::basic_string<char,_STL::char_traits<char>,_STL::allocator<char> > const ,ControladorBase *>,_STL::_Nonconst_traits<_STL::pair<_STL::basic_string<char,_STL::char_traits<char>,_STL::allocator<char> > const ,ControladorBase *> > > const &)
PUBLIC 9650 0 _STL::_Rb_tree_iterator<_STL::pair<_STL::basic_string<char,_STL::char_traits<char>,_STL::allocator<char> > const ,ControladorBase *>,_STL::_Const_traits<_STL::pair<_STL::basic_string<char,_STL::char_traits<char>,_STL::allocator<char> > const ,ControladorBase *> > >::operator++()
PUBLIC 9670 0 _STL::pair<_STL::basic_string<char,_STL::char_traits<char>,_STL::allocator<char> > const ,ControladorBase *>::~pair<_STL::basic_string<char,_STL::char_traits<char>,_STL::allocator<char> > const ,ControladorBase *>()
PUBLIC 9680 0 _STL::_Rb_tree<_STL::basic_string<char,_STL::char_traits<char>,_STL::allocator<char> > const ,_STL::pair<_STL::basic_string<char,_STL::char_traits<char>,_STL::allocator<char> > const ,ControladorBase *>,_STL::_Select1st<_STL::pair<_STL::basic_string<char,_STL::char_traits<char>,_STL::allocator<char> > const ,ControladorBase *> >,_STL::less<_STL::basic_string<char,_STL::char_traits<char>,_STL::allocator<char> > const >,_STL::allocator<_STL::pair<_STL::basic_string<char,_STL::char_traits<char>,_STL::allocator<char> > const ,ControladorBase *> > >::size()
PUBLIC 9690 0 _STL::allocator<_STL::pair<_STL::basic_string<char,_STL::char_traits<char>,_STL::allocator<char> > const ,ControladorBase *> >::allocator<_STL::pair<_STL::basic_string<char,_STL::char_traits<char>,_STL::allocator<char> > const ,ControladorBase *> >()
PUBLIC 96a0 0 _STL::allocator<_STL::pair<_STL::basic_string<char,_STL::char_traits<char>,_STL::allocator<char> > const ,ControladorBase *> >::~allocator<_STL::pair<_STL::basic_string<char,_STL::char_traits<char>,_STL::allocator<char> > const ,ControladorBase *> >()
PUBLIC 96b0 0 _STL::_Rb_tree_iterator<_STL::pair<_STL::basic_string<char,_STL::char_traits<char>,_STL::allocator<char> > const ,ControladorBase *>,_STL::_Nonconst_traits<_STL::pair<_STL::basic_string<char,_STL::char_traits<char>,_STL::allocator<char> > const ,ControladorBase *> > >::operator*()
PUBLIC 96c0 0 _STL::auto_ptr<CleanUpManager>::get()
PUBLIC 96d0 0 _STL::pair<_STL::basic_string<char,_STL::char_traits<char>,_STL::allocator<char> > const ,ControladorBase *>::pair<_STL::basic_string<char,_STL::char_traits<char>,_STL::allocator<char> > const ,ControladorBase *>(_STL::basic_string<char,_STL::char_traits<char>,_STL::allocator<char> > const &,ControladorBase * const &)
PUBLIC 96f0 0 _STL::_Rb_tree_iterator<_STL::pair<_STL::basic_string<char,_STL::char_traits<char>,_STL::allocator<char> > const ,ControladorBase *>,_STL::_Const_traits<_STL::pair<_STL::basic_string<char,_STL::char_traits<char>,_STL::allocator<char> > const ,ControladorBase *> > >::operator*()
PUBLIC 9700 0 _STL::_Rb_tree<_STL::basic_string<char,_STL::char_traits<char>,_STL::allocator<char> > const ,_STL::pair<_STL::basic_string<char,_STL::char_traits<char>,_STL::allocator<char> > const ,ControladorBase *>,_STL::_Select1st<_STL::pair<_STL::basic_string<char,_STL::char_traits<char>,_STL::allocator<char> > const ,ControladorBase *> >,_STL::less<_STL::basic_string<char,_STL::char_traits<char>,_STL::allocator<char> > const >,_STL::allocator<_STL::pair<_STL::basic_string<char,_STL::char_traits<char>,_STL::allocator<char> > const ,ControladorBase *> > >::_M_root()
PUBLIC 9710 0 _STL::_Rb_tree<_STL::basic_string<char,_STL::char_traits<char>,_STL::allocator<char> > const ,_STL::pair<_STL::basic_string<char,_STL::char_traits<char>,_STL::allocator<char> > const ,ControladorBase *>,_STL::_Select1st<_STL::pair<_STL::basic_string<char,_STL::char_traits<char>,_STL::allocator<char> > const ,ControladorBase *> >,_STL::less<_STL::basic_string<char,_STL::char_traits<char>,_STL::allocator<char> > const >,_STL::allocator<_STL::pair<_STL::basic_string<char,_STL::char_traits<char>,_STL::allocator<char> > const ,ControladorBase *> > >::_M_leftmost()
PUBLIC 9720 0 _STL::_Rb_tree<_STL::basic_string<char,_STL::char_traits<char>,_STL::allocator<char> > const ,_STL::pair<_STL::basic_string<char,_STL::char_traits<char>,_STL::allocator<char> > const ,ControladorBase *>,_STL::_Select1st<_STL::pair<_STL::basic_string<char,_STL::char_traits<char>,_STL::allocator<char> > const ,ControladorBase *> >,_STL::less<_STL::basic_string<char,_STL::char_traits<char>,_STL::allocator<char> > const >,_STL::allocator<_STL::pair<_STL::basic_string<char,_STL::char_traits<char>,_STL::allocator<char> > const ,ControladorBase *> > >::_M_rightmost()
PUBLIC 9730 0 _STL::_Rb_tree<_STL::basic_string<char,_STL::char_traits<char>,_STL::allocator<char> > const ,_STL::pair<_STL::basic_string<char,_STL::char_traits<char>,_STL::allocator<char> > const ,ControladorBase *>,_STL::_Select1st<_STL::pair<_STL::basic_string<char,_STL::char_traits<char>,_STL::allocator<char> > const ,ControladorBase *> >,_STL::less<_STL::basic_string<char,_STL::char_traits<char>,_STL::allocator<char> > const >,_STL::allocator<_STL::pair<_STL::basic_string<char,_STL::char_traits<char>,_STL::allocator<char> > const ,ControladorBase *> > >::key_comp()
PUBLIC 9740 0 _STL::allocator<_STL::_Rb_tree_node<_STL::pair<_STL::basic_string<char,_STL::char_traits<char>,_STL::allocator<char> > const ,ControladorBase *> > >::~allocator<_STL::_Rb_tree_node<_STL::pair<_STL::basic_string<char,_STL::char_traits<char>,_STL::allocator<char> > const ,ControladorBase *> > >()
PUBLIC 9750 0 _STL::allocator<_STL::_Rb_tree_node<_STL::pair<_STL::basic_string<char,_STL::char_traits<char>,_STL::allocator<char> > const ,ControladorBase *> > >::deallocate(_STL::_Rb_tree_node<_STL::pair<_STL::basic_string<char,_STL::char_traits<char>,_STL::allocator<char> > const ,ControladorBase *> > *,unsigned int)
PUBLIC 9770 0 _STL::_Rb_tree_iterator<_STL::pair<_STL::basic_string<char,_STL::char_traits<char>,_STL::allocator<char> > const ,ControladorBase *>,_STL::_Nonconst_traits<_STL::pair<_STL::basic_string<char,_STL::char_traits<char>,_STL::allocator<char> > const ,ControladorBase *> > >::_Rb_tree_iterator<_STL::pair<_STL::basic_string<char,_STL::char_traits<char>,_STL::allocator<char> > const ,ControladorBase *>,_STL::_Nonconst_traits<_STL::pair<_STL::basic_string<char,_STL::char_traits<char>,_STL::allocator<char> > const ,ControladorBase *> > >(_STL::_Rb_tree_node<_STL::pair<_STL::basic_string<char,_STL::char_traits<char>,_STL::allocator<char> > const ,ControladorBase *> > *)
PUBLIC 9780 0 _STL::_Rb_tree<_STL::basic_string<char,_STL::char_traits<char>,_STL::allocator<char> > const ,_STL::pair<_STL::basic_string<char,_STL::char_traits<char>,_STL::allocator<char> > const ,ControladorBase *>,_STL::_Select1st<_STL::pair<_STL::basic_string<char,_STL::char_traits<char>,_STL::allocator<char> > const ,ControladorBase *> >,_STL::less<_STL::basic_string<char,_STL::char_traits<char>,_STL::allocator<char> > const >,_STL::allocator<_STL::pair<_STL::basic_string<char,_STL::char_traits<char>,_STL::allocator<char> > const ,ControladorBase *> > >::_S_color(_STL::_Rb_tree_node<_STL::pair<_STL::basic_string<char,_STL::char_traits<char>,_STL::allocator<char> > const ,ControladorBase *> > *)
PUBLIC 9790 0 _STL::allocator<_STL::_Rb_tree_node<_STL::pair<_STL::basic_string<char,_STL::char_traits<char>,_STL::allocator<char> > const ,ControladorBase *> > >::allocate(unsigned int,void const *)
PUBLIC 97b0 0 _STL::_Rb_tree<_STL::basic_string<char,_STL::char_traits<char>,_STL::allocator<char> > const ,_STL::pair<_STL::basic_string<char,_STL::char_traits<char>,_STL::allocator<char> > const ,ControladorBase *>,_STL::_Select1st<_STL::pair<_STL::basic_string<char,_STL::char_traits<char>,_STL::allocator<char> > const ,ControladorBase *> >,_STL::less<_STL::basic_string<char,_STL::char_traits<char>,_STL::allocator<char> > const >,_STL::allocator<_STL::pair<_STL::basic_string<char,_STL::char_traits<char>,_STL::allocator<char> > const ,ControladorBase *> > >::_S_left(_STL::_Rb_tree_node<_STL::pair<_STL::basic_string<char,_STL::char_traits<char>,_STL::allocator<char> > const ,ControladorBase *> > *)
PUBLIC 97c0 0 _STL::_Rb_tree<_STL::basic_string<char,_STL::char_traits<char>,_STL::allocator<char> > const ,_STL::pair<_STL::basic_string<char,_STL::char_traits<char>,_STL::allocator<char> > const ,ControladorBase *>,_STL::_Select1st<_STL::pair<_STL::basic_string<char,_STL::char_traits<char>,_STL::allocator<char> > const ,ControladorBase *> >,_STL::less<_STL::basic_string<char,_STL::char_traits<char>,_STL::allocator<char> > const >,_STL::allocator<_STL::pair<_STL::basic_string<char,_STL::char_traits<char>,_STL::allocator<char> > const ,ControladorBase *> > >::_S_right(_STL::_Rb_tree_node<_STL::pair<_STL::basic_string<char,_STL::char_traits<char>,_STL::allocator<char> > const ,ControladorBase *> > *)
PUBLIC 97d0 0 _STL::allocator<_STL::_Rb_tree_node<_STL::pair<_STL::basic_string<char,_STL::char_traits<char>,_STL::allocator<char> > const ,ControladorBase *> > >::allocator<_STL::_Rb_tree_node<_STL::pair<_STL::basic_string<char,_STL::char_traits<char>,_STL::allocator<char> > const ,ControladorBase *> > >(_STL::allocator<_STL::_Rb_tree_node<_STL::pair<_STL::basic_string<char,_STL::char_traits<char>,_STL::allocator<char> > const ,ControladorBase *> > > const &)
PUBLIC 97e0 0 _STL::_Rb_tree<_STL::basic_string<char,_STL::char_traits<char>,_STL::allocator<char> > const ,_STL::pair<_STL::basic_string<char,_STL::char_traits<char>,_STL::allocator<char> > const ,ControladorBase *>,_STL::_Select1st<_STL::pair<_STL::basic_string<char,_STL::char_traits<char>,_STL::allocator<char> > const ,ControladorBase *> >,_STL::less<_STL::basic_string<char,_STL::char_traits<char>,_STL::allocator<char> > const >,_STL::allocator<_STL::pair<_STL::basic_string<char,_STL::char_traits<char>,_STL::allocator<char> > const ,ControladorBase *> > >::_S_value(_STL::_Rb_tree_node<_STL::pair<_STL::basic_string<char,_STL::char_traits<char>,_STL::allocator<char> > const ,ControladorBase *> > *)
PUBLIC 97f0 0 _STL::_Select1st<_STL::pair<_STL::basic_string<char,_STL::char_traits<char>,_STL::allocator<char> > const ,ControladorBase *> >::operator()(_STL::pair<_STL::basic_string<char,_STL::char_traits<char>,_STL::allocator<char> > const ,ControladorBase *> const &)
PUBLIC 9800 0 BorrarElemento<TMonitorInfo>(TMonitorInfo *)
PUBLIC 9810 0 _STL::allocator<_STL::_Rb_tree_node<_STL::pair<_STL::basic_string<char,_STL::char_traits<char>,_STL::allocator<char> > const ,ControladorBase *> > >::allocator<_STL::_Rb_tree_node<_STL::pair<_STL::basic_string<char,_STL::char_traits<char>,_STL::allocator<char> > const ,ControladorBase *> > ><_STL::pair<_STL::basic_string<char,_STL::char_traits<char>,_STL::allocator<char> > const ,ControladorBase *> >(_STL::allocator<_STL::pair<_STL::basic_string<char,_STL::char_traits<char>,_STL::allocator<char> > const ,ControladorBase *> > const &)
PUBLIC 9820 0 _STL::pair<_STL::basic_string<char,_STL::char_traits<char>,_STL::allocator<char> > const ,ControladorBase *>::`scalar deleting destructor'(unsigned int)
PUBLIC 9840 0 _STL::_Rb_tree<_STL::basic_string<char,_STL::char_traits<char>,_STL::allocator<char> > const ,_STL::pair<_STL::basic_string<char,_STL::char_traits<char>,_STL::allocator<char> > const ,ControladorBase *>,_STL::_Select1st<_STL::pair<_STL::basic_string<char,_STL::char_traits<char>,_STL::allocator<char> > const ,ControladorBase *> >,_STL::less<_STL::basic_string<char,_STL::char_traits<char>,_STL::allocator<char> > const >,_STL::allocator<_STL::pair<_STL::basic_string<char,_STL::char_traits<char>,_STL::allocator<char> > const ,ControladorBase *> > >::_S_right(_STL::_Rb_tree_node_base *)
PUBLIC 9850 0 _STL::_Rb_tree<_STL::basic_string<char,_STL::char_traits<char>,_STL::allocator<char> > const ,_STL::pair<_STL::basic_string<char,_STL::char_traits<char>,_STL::allocator<char> > const ,ControladorBase *>,_STL::_Select1st<_STL::pair<_STL::basic_string<char,_STL::char_traits<char>,_STL::allocator<char> > const ,ControladorBase *> >,_STL::less<_STL::basic_string<char,_STL::char_traits<char>,_STL::allocator<char> > const >,_STL::allocator<_STL::pair<_STL::basic_string<char,_STL::char_traits<char>,_STL::allocator<char> > const ,ControladorBase *> > >::_S_key(_STL::_Rb_tree_node_base *)
PUBLIC 9860 0 _STL::_Rb_tree_iterator<_STL::pair<_STL::basic_string<char,_STL::char_traits<char>,_STL::allocator<char> > const ,ControladorBase *>,_STL::_Nonconst_traits<_STL::pair<_STL::basic_string<char,_STL::char_traits<char>,_STL::allocator<char> > const ,ControladorBase *> > >::operator--()
PUBLIC 9880 0 ACE_Singleton<ACE_Utils::UUID_Generator,ACE_Thread_Mutex>::ACE_Singleton<ACE_Utils::UUID_Generator,ACE_Thread_Mutex>()
PUBLIC 98d0 0 ACE_Singleton<ACE_Utils::UUID_Generator,ACE_Thread_Mutex>::instance_i()
PUBLIC 98e0 0 _STL::_Rb_tree<_STL::basic_string<char,_STL::char_traits<char>,_STL::allocator<char> > const ,_STL::pair<_STL::basic_string<char,_STL::char_traits<char>,_STL::allocator<char> > const ,ControladorBase *>,_STL::_Select1st<_STL::pair<_STL::basic_string<char,_STL::char_traits<char>,_STL::allocator<char> > const ,ControladorBase *> >,_STL::less<_STL::basic_string<char,_STL::char_traits<char>,_STL::allocator<char> > const >,_STL::allocator<_STL::pair<_STL::basic_string<char,_STL::char_traits<char>,_STL::allocator<char> > const ,ControladorBase *> > >::_S_parent(_STL::_Rb_tree_node<_STL::pair<_STL::basic_string<char,_STL::char_traits<char>,_STL::allocator<char> > const ,ControladorBase *> > *)
PUBLIC 98f0 0 _STL::pair<_STL::_Rb_tree_iterator<_STL::pair<_STL::basic_string<char,_STL::char_traits<char>,_STL::allocator<char> > const ,ControladorBase *>,_STL::_Nonconst_traits<_STL::pair<_STL::basic_string<char,_STL::char_traits<char>,_STL::allocator<char> > const ,ControladorBase *> > >,bool>::pair<_STL::_Rb_tree_iterator<_STL::pair<_STL::basic_string<char,_STL::char_traits<char>,_STL::allocator<char> > const ,ControladorBase *>,_STL::_Nonconst_traits<_STL::pair<_STL::basic_string<char,_STL::char_traits<char>,_STL::allocator<char> > const ,ControladorBase *> > >,bool>(_STL::_Rb_tree_iterator<_STL::pair<_STL::basic_string<char,_STL::char_traits<char>,_STL::allocator<char> > const ,ControladorBase *>,_STL::_Nonconst_traits<_STL::pair<_STL::basic_string<char,_STL::char_traits<char>,_STL::allocator<char> > const ,ControladorBase *> > > const &,bool const &)
PUBLIC 9910 0 _STL::pair<_STL::basic_string<char,_STL::char_traits<char>,_STL::allocator<char> > const ,ControladorBase *>::pair<_STL::basic_string<char,_STL::char_traits<char>,_STL::allocator<char> > const ,ControladorBase *>(_STL::pair<_STL::basic_string<char,_STL::char_traits<char>,_STL::allocator<char> > const ,ControladorBase *> const &)
PUBLIC 9930 0 _STL::map<_STL::basic_string<char,_STL::char_traits<char>,_STL::allocator<char> > const ,ControladorBase *,_STL::less<_STL::basic_string<char,_STL::char_traits<char>,_STL::allocator<char> > const >,_STL::allocator<_STL::pair<_STL::basic_string<char,_STL::char_traits<char>,_STL::allocator<char> > const ,ControladorBase *> > >::size()
PUBLIC 9940 0 _STL::_Rb_tree_iterator<_STL::pair<_STL::basic_string<char,_STL::char_traits<char>,_STL::allocator<char> > const ,ControladorBase *>,_STL::_Nonconst_traits<_STL::pair<_STL::basic_string<char,_STL::char_traits<char>,_STL::allocator<char> > const ,ControladorBase *> > >::operator->()
PUBLIC 9950 0 _STL::auto_ptr<CleanUpManager>::operator->()
PUBLIC 9960 0 _STL::auto_ptr<CleanUpManager>::~auto_ptr<CleanUpManager>()
PUBLIC 9970 0 TListWrapper<TMonitorInfo>::~TListWrapper<TMonitorInfo>()
PUBLIC 99a0 0 _STL::_Rb_tree_iterator<_STL::pair<_STL::basic_string<char,_STL::char_traits<char>,_STL::allocator<char> > const ,ControladorBase *>,_STL::_Const_traits<_STL::pair<_STL::basic_string<char,_STL::char_traits<char>,_STL::allocator<char> > const ,ControladorBase *> > >::operator->()
PUBLIC 99b0 0 _STL::map<_STL::basic_string<char,_STL::char_traits<char>,_STL::allocator<char> > const ,ControladorBase *,_STL::less<_STL::basic_string<char,_STL::char_traits<char>,_STL::allocator<char> > const >,_STL::allocator<_STL::pair<_STL::basic_string<char,_STL::char_traits<char>,_STL::allocator<char> > const ,ControladorBase *> > >::key_comp()
PUBLIC 99c0 0 _STL::_Rb_tree<_STL::basic_string<char,_STL::char_traits<char>,_STL::allocator<char> > const ,_STL::pair<_STL::basic_string<char,_STL::char_traits<char>,_STL::allocator<char> > const ,ControladorBase *>,_STL::_Select1st<_STL::pair<_STL::basic_string<char,_STL::char_traits<char>,_STL::allocator<char> > const ,ControladorBase *> >,_STL::less<_STL::basic_string<char,_STL::char_traits<char>,_STL::allocator<char> > const >,_STL::allocator<_STL::pair<_STL::basic_string<char,_STL::char_traits<char>,_STL::allocator<char> > const ,ControladorBase *> > >::begin()
PUBLIC 99d0 0 _STL::_Rb_tree<_STL::basic_string<char,_STL::char_traits<char>,_STL::allocator<char> > const ,_STL::pair<_STL::basic_string<char,_STL::char_traits<char>,_STL::allocator<char> > const ,ControladorBase *>,_STL::_Select1st<_STL::pair<_STL::basic_string<char,_STL::char_traits<char>,_STL::allocator<char> > const ,ControladorBase *> >,_STL::less<_STL::basic_string<char,_STL::char_traits<char>,_STL::allocator<char> > const >,_STL::allocator<_STL::pair<_STL::basic_string<char,_STL::char_traits<char>,_STL::allocator<char> > const ,ControladorBase *> > >::end()
PUBLIC 99e0 0 _STL::less<_STL::basic_string<char,_STL::char_traits<char>,_STL::allocator<char> > const >::operator()(_STL::basic_string<char,_STL::char_traits<char>,_STL::allocator<char> > const &,_STL::basic_string<char,_STL::char_traits<char>,_STL::allocator<char> > const &)
PUBLIC 9a10 0 _STL::_STLP_alloc_proxy<_STL::_Rb_tree_node<_STL::pair<_STL::basic_string<char,_STL::char_traits<char>,_STL::allocator<char> > const ,ControladorBase *> > *,_STL::_Rb_tree_node<_STL::pair<_STL::basic_string<char,_STL::char_traits<char>,_STL::allocator<char> > const ,ControladorBase *> >,_STL::allocator<_STL::_Rb_tree_node<_STL::pair<_STL::basic_string<char,_STL::char_traits<char>,_STL::allocator<char> > const ,ControladorBase *> > > >::~_STLP_alloc_proxy<_STL::_Rb_tree_node<_STL::pair<_STL::basic_string<char,_STL::char_traits<char>,_STL::allocator<char> > const ,ControladorBase *> > *,_STL::_Rb_tree_node<_STL::pair<_STL::basic_string<char,_STL::char_traits<char>,_STL::allocator<char> > const ,ControladorBase *> >,_STL::allocator<_STL::_Rb_tree_node<_STL::pair<_STL::basic_string<char,_STL::char_traits<char>,_STL::allocator<char> > const ,ControladorBase *> > > >()
PUBLIC 9a20 0 _STL::_Rb_tree<_STL::basic_string<char,_STL::char_traits<char>,_STL::allocator<char> > const ,_STL::pair<_STL::basic_string<char,_STL::char_traits<char>,_STL::allocator<char> > const ,ControladorBase *>,_STL::_Select1st<_STL::pair<_STL::basic_string<char,_STL::char_traits<char>,_STL::allocator<char> > const ,ControladorBase *> >,_STL::less<_STL::basic_string<char,_STL::char_traits<char>,_STL::allocator<char> > const >,_STL::allocator<_STL::pair<_STL::basic_string<char,_STL::char_traits<char>,_STL::allocator<char> > const ,ControladorBase *> > >::_M_empty_initialize()
PUBLIC 9a40 0 _STL::_STLP_alloc_proxy<_STL::_Rb_tree_node<_STL::pair<_STL::basic_string<char,_STL::char_traits<char>,_STL::allocator<char> > const ,ControladorBase *> > *,_STL::_Rb_tree_node<_STL::pair<_STL::basic_string<char,_STL::char_traits<char>,_STL::allocator<char> > const ,ControladorBase *> >,_STL::allocator<_STL::_Rb_tree_node<_STL::pair<_STL::basic_string<char,_STL::char_traits<char>,_STL::allocator<char> > const ,ControladorBase *> > > >::_STLP_alloc_proxy<_STL::_Rb_tree_node<_STL::pair<_STL::basic_string<char,_STL::char_traits<char>,_STL::allocator<char> > const ,ControladorBase *> > *,_STL::_Rb_tree_node<_STL::pair<_STL::basic_string<char,_STL::char_traits<char>,_STL::allocator<char> > const ,ControladorBase *> >,_STL::allocator<_STL::_Rb_tree_node<_STL::pair<_STL::basic_string<char,_STL::char_traits<char>,_STL::allocator<char> > const ,ControladorBase *> > > >(_STL::allocator<_STL::_Rb_tree_node<_STL::pair<_STL::basic_string<char,_STL::char_traits<char>,_STL::allocator<char> > const ,ControladorBase *> > > const &,_STL::_Rb_tree_node<_STL::pair<_STL::basic_string<char,_STL::char_traits<char>,_STL::allocator<char> > const ,ControladorBase *> > *)
PUBLIC 9a50 0 _STL::_Rb_tree<_STL::basic_string<char,_STL::char_traits<char>,_STL::allocator<char> > const ,_STL::pair<_STL::basic_string<char,_STL::char_traits<char>,_STL::allocator<char> > const ,ControladorBase *>,_STL::_Select1st<_STL::pair<_STL::basic_string<char,_STL::char_traits<char>,_STL::allocator<char> > const ,ControladorBase *> >,_STL::less<_STL::basic_string<char,_STL::char_traits<char>,_STL::allocator<char> > const >,_STL::allocator<_STL::pair<_STL::basic_string<char,_STL::char_traits<char>,_STL::allocator<char> > const ,ControladorBase *> > >::_S_key(_STL::_Rb_tree_node<_STL::pair<_STL::basic_string<char,_STL::char_traits<char>,_STL::allocator<char> > const ,ControladorBase *> > *)
PUBLIC 9a60 0 ACE_Singleton<ACE_Utils::UUID_Generator,ACE_Thread_Mutex>::instance()
PUBLIC 9be0 0 ACE_Singleton<ACE_Utils::UUID_Generator,ACE_Thread_Mutex>::cleanup(void *)
PUBLIC 9c00 0 _STL::_Destroy<_STL::pair<_STL::basic_string<char,_STL::char_traits<char>,_STL::allocator<char> > const ,ControladorBase *> >(_STL::pair<_STL::basic_string<char,_STL::char_traits<char>,_STL::allocator<char> > const ,ControladorBase *> *)
PUBLIC 9c10 0 _STL::_Rb_tree<_STL::basic_string<char,_STL::char_traits<char>,_STL::allocator<char> > const ,_STL::pair<_STL::basic_string<char,_STL::char_traits<char>,_STL::allocator<char> > const ,ControladorBase *>,_STL::_Select1st<_STL::pair<_STL::basic_string<char,_STL::char_traits<char>,_STL::allocator<char> > const ,ControladorBase *> >,_STL::less<_STL::basic_string<char,_STL::char_traits<char>,_STL::allocator<char> > const >,_STL::allocator<_STL::pair<_STL::basic_string<char,_STL::char_traits<char>,_STL::allocator<char> > const ,ControladorBase *> > >::_M_find<_STL::basic_string<char,_STL::char_traits<char>,_STL::allocator<char> > >(_STL::basic_string<char,_STL::char_traits<char>,_STL::allocator<char> > const &)
PUBLIC 9c90 0 ACE_Singleton<ACE_Utils::UUID_Generator,ACE_Thread_Mutex>::`vector deleting destructor'(unsigned int)
PUBLIC 9cb0 0 ACE_Singleton<ACE_Utils::UUID_Generator,ACE_Thread_Mutex>::~ACE_Singleton<ACE_Utils::UUID_Generator,ACE_Thread_Mutex>()
PUBLIC 9d00 0 _STL::_Construct<_STL::pair<_STL::basic_string<char,_STL::char_traits<char>,_STL::allocator<char> > const ,ControladorBase *>,_STL::pair<_STL::basic_string<char,_STL::char_traits<char>,_STL::allocator<char> > const ,ControladorBase *> >(_STL::pair<_STL::basic_string<char,_STL::char_traits<char>,_STL::allocator<char> > const ,ControladorBase *> *,_STL::pair<_STL::basic_string<char,_STL::char_traits<char>,_STL::allocator<char> > const ,ControladorBase *> const &)
PUBLIC 9d50 0 DiccionarioControladores::close_singleton()
PUBLIC 9de0 0 _STL::map<_STL::basic_string<char,_STL::char_traits<char>,_STL::allocator<char> > const ,ControladorBase *,_STL::less<_STL::basic_string<char,_STL::char_traits<char>,_STL::allocator<char> > const >,_STL::allocator<_STL::pair<_STL::basic_string<char,_STL::char_traits<char>,_STL::allocator<char> > const ,ControladorBase *> > >::begin()
PUBLIC 9df0 0 _STL::map<_STL::basic_string<char,_STL::char_traits<char>,_STL::allocator<char> > const ,ControladorBase *,_STL::less<_STL::basic_string<char,_STL::char_traits<char>,_STL::allocator<char> > const >,_STL::allocator<_STL::pair<_STL::basic_string<char,_STL::char_traits<char>,_STL::allocator<char> > const ,ControladorBase *> > >::end()
PUBLIC 9e00 0 _STL::_Rb_tree<_STL::basic_string<char,_STL::char_traits<char>,_STL::allocator<char> > const ,_STL::pair<_STL::basic_string<char,_STL::char_traits<char>,_STL::allocator<char> > const ,ControladorBase *>,_STL::_Select1st<_STL::pair<_STL::basic_string<char,_STL::char_traits<char>,_STL::allocator<char> > const ,ControladorBase *> >,_STL::less<_STL::basic_string<char,_STL::char_traits<char>,_STL::allocator<char> > const >,_STL::allocator<_STL::pair<_STL::basic_string<char,_STL::char_traits<char>,_STL::allocator<char> > const ,ControladorBase *> > >::erase(_STL::_Rb_tree_iterator<_STL::pair<_STL::basic_string<char,_STL::char_traits<char>,_STL::allocator<char> > const ,ControladorBase *>,_STL::_Nonconst_traits<_STL::pair<_STL::basic_string<char,_STL::char_traits<char>,_STL::allocator<char> > const ,ControladorBase *> > >)
PUBLIC 9e50 0 _STL::_Rb_tree_base<_STL::pair<_STL::basic_string<char,_STL::char_traits<char>,_STL::allocator<char> > const ,ControladorBase *>,_STL::allocator<_STL::pair<_STL::basic_string<char,_STL::char_traits<char>,_STL::allocator<char> > const ,ControladorBase *> > >::~_Rb_tree_base<_STL::pair<_STL::basic_string<char,_STL::char_traits<char>,_STL::allocator<char> > const ,ControladorBase *>,_STL::allocator<_STL::pair<_STL::basic_string<char,_STL::char_traits<char>,_STL::allocator<char> > const ,ControladorBase *> > >()
PUBLIC 9e70 0 _STL::_Rb_tree_base<_STL::pair<_STL::basic_string<char,_STL::char_traits<char>,_STL::allocator<char> > const ,ControladorBase *>,_STL::allocator<_STL::pair<_STL::basic_string<char,_STL::char_traits<char>,_STL::allocator<char> > const ,ControladorBase *> > >::_Rb_tree_base<_STL::pair<_STL::basic_string<char,_STL::char_traits<char>,_STL::allocator<char> > const ,ControladorBase *>,_STL::allocator<_STL::pair<_STL::basic_string<char,_STL::char_traits<char>,_STL::allocator<char> > const ,ControladorBase *> > >(_STL::allocator<_STL::pair<_STL::basic_string<char,_STL::char_traits<char>,_STL::allocator<char> > const ,ControladorBase *> > const &)
PUBLIC 9ea0 0 _STL::_Rb_tree<_STL::basic_string<char,_STL::char_traits<char>,_STL::allocator<char> > const ,_STL::pair<_STL::basic_string<char,_STL::char_traits<char>,_STL::allocator<char> > const ,ControladorBase *>,_STL::_Select1st<_STL::pair<_STL::basic_string<char,_STL::char_traits<char>,_STL::allocator<char> > const ,ControladorBase *> >,_STL::less<_STL::basic_string<char,_STL::char_traits<char>,_STL::allocator<char> > const >,_STL::allocator<_STL::pair<_STL::basic_string<char,_STL::char_traits<char>,_STL::allocator<char> > const ,ControladorBase *> > >::_M_lower_bound(_STL::basic_string<char,_STL::char_traits<char>,_STL::allocator<char> > const &)
PUBLIC 9ef0 0 _STL::_Rb_tree<_STL::basic_string<char,_STL::char_traits<char>,_STL::allocator<char> > const ,_STL::pair<_STL::basic_string<char,_STL::char_traits<char>,_STL::allocator<char> > const ,ControladorBase *>,_STL::_Select1st<_STL::pair<_STL::basic_string<char,_STL::char_traits<char>,_STL::allocator<char> > const ,ControladorBase *> >,_STL::less<_STL::basic_string<char,_STL::char_traits<char>,_STL::allocator<char> > const >,_STL::allocator<_STL::pair<_STL::basic_string<char,_STL::char_traits<char>,_STL::allocator<char> > const ,ControladorBase *> > >::_M_erase(_STL::_Rb_tree_node<_STL::pair<_STL::basic_string<char,_STL::char_traits<char>,_STL::allocator<char> > const ,ControladorBase *> > *)
PUBLIC 9f30 0 _STL::_Rb_tree<_STL::basic_string<char,_STL::char_traits<char>,_STL::allocator<char> > const ,_STL::pair<_STL::basic_string<char,_STL::char_traits<char>,_STL::allocator<char> > const ,ControladorBase *>,_STL::_Select1st<_STL::pair<_STL::basic_string<char,_STL::char_traits<char>,_STL::allocator<char> > const ,ControladorBase *> >,_STL::less<_STL::basic_string<char,_STL::char_traits<char>,_STL::allocator<char> > const >,_STL::allocator<_STL::pair<_STL::basic_string<char,_STL::char_traits<char>,_STL::allocator<char> > const ,ControladorBase *> > >::find<_STL::basic_string<char,_STL::char_traits<char>,_STL::allocator<char> > >(_STL::basic_string<char,_STL::char_traits<char>,_STL::allocator<char> > const &)
PUBLIC 9f50 0 _STL::_Rb_tree<_STL::basic_string<char,_STL::char_traits<char>,_STL::allocator<char> > const ,_STL::pair<_STL::basic_string<char,_STL::char_traits<char>,_STL::allocator<char> > const ,ControladorBase *>,_STL::_Select1st<_STL::pair<_STL::basic_string<char,_STL::char_traits<char>,_STL::allocator<char> > const ,ControladorBase *> >,_STL::less<_STL::basic_string<char,_STL::char_traits<char>,_STL::allocator<char> > const >,_STL::allocator<_STL::pair<_STL::basic_string<char,_STL::char_traits<char>,_STL::allocator<char> > const ,ControladorBase *> > >::_M_create_node(_STL::pair<_STL::basic_string<char,_STL::char_traits<char>,_STL::allocator<char> > const ,ControladorBase *> const &)
PUBLIC 9fd0 0 DiccionarioControladores::InitAllMonitorsScripts()
PUBLIC a1e0 0 DiccionarioControladores::getControllersInfo()
PUBLIC a2b0 0 DiccionarioControladores::getControllersInfoXML()
PUBLIC a3d0 0 _STL::map<_STL::basic_string<char,_STL::char_traits<char>,_STL::allocator<char> > const ,ControladorBase *,_STL::less<_STL::basic_string<char,_STL::char_traits<char>,_STL::allocator<char> > const >,_STL::allocator<_STL::pair<_STL::basic_string<char,_STL::char_traits<char>,_STL::allocator<char> > const ,ControladorBase *> > >::erase(_STL::_Rb_tree_iterator<_STL::pair<_STL::basic_string<char,_STL::char_traits<char>,_STL::allocator<char> > const ,ControladorBase *>,_STL::_Nonconst_traits<_STL::pair<_STL::basic_string<char,_STL::char_traits<char>,_STL::allocator<char> > const ,ControladorBase *> > >)
PUBLIC a420 0 _STL::map<_STL::basic_string<char,_STL::char_traits<char>,_STL::allocator<char> > const ,ControladorBase *,_STL::less<_STL::basic_string<char,_STL::char_traits<char>,_STL::allocator<char> > const >,_STL::allocator<_STL::pair<_STL::basic_string<char,_STL::char_traits<char>,_STL::allocator<char> > const ,ControladorBase *> > >::find(_STL::basic_string<char,_STL::char_traits<char>,_STL::allocator<char> > const &)
PUBLIC a440 0 _STL::_Rb_tree<_STL::basic_string<char,_STL::char_traits<char>,_STL::allocator<char> > const ,_STL::pair<_STL::basic_string<char,_STL::char_traits<char>,_STL::allocator<char> > const ,ControladorBase *>,_STL::_Select1st<_STL::pair<_STL::basic_string<char,_STL::char_traits<char>,_STL::allocator<char> > const ,ControladorBase *> >,_STL::less<_STL::basic_string<char,_STL::char_traits<char>,_STL::allocator<char> > const >,_STL::allocator<_STL::pair<_STL::basic_string<char,_STL::char_traits<char>,_STL::allocator<char> > const ,ControladorBase *> > >::_Rb_tree<_STL::basic_string<char,_STL::char_traits<char>,_STL::allocator<char> > const ,_STL::pair<_STL::basic_string<char,_STL::char_traits<char>,_STL::allocator<char> > const ,ControladorBase *>,_STL::_Select1st<_STL::pair<_STL::basic_string<char,_STL::char_traits<char>,_STL::allocator<char> > const ,ControladorBase *> >,_STL::less<_STL::basic_string<char,_STL::char_traits<char>,_STL::allocator<char> > const >,_STL::allocator<_STL::pair<_STL::basic_string<char,_STL::char_traits<char>,_STL::allocator<char> > const ,ControladorBase *> > >(_STL::less<_STL::basic_string<char,_STL::char_traits<char>,_STL::allocator<char> > const > const &,_STL::allocator<_STL::pair<_STL::basic_string<char,_STL::char_traits<char>,_STL::allocator<char> > const ,ControladorBase *> > const &)
PUBLIC a480 0 _STL::_Rb_tree<_STL::basic_string<char,_STL::char_traits<char>,_STL::allocator<char> > const ,_STL::pair<_STL::basic_string<char,_STL::char_traits<char>,_STL::allocator<char> > const ,ControladorBase *>,_STL::_Select1st<_STL::pair<_STL::basic_string<char,_STL::char_traits<char>,_STL::allocator<char> > const ,ControladorBase *> >,_STL::less<_STL::basic_string<char,_STL::char_traits<char>,_STL::allocator<char> > const >,_STL::allocator<_STL::pair<_STL::basic_string<char,_STL::char_traits<char>,_STL::allocator<char> > const ,ControladorBase *> > >::clear()
PUBLIC a4c0 0 _STL::_Rb_tree<_STL::basic_string<char,_STL::char_traits<char>,_STL::allocator<char> > const ,_STL::pair<_STL::basic_string<char,_STL::char_traits<char>,_STL::allocator<char> > const ,ControladorBase *>,_STL::_Select1st<_STL::pair<_STL::basic_string<char,_STL::char_traits<char>,_STL::allocator<char> > const ,ControladorBase *> >,_STL::less<_STL::basic_string<char,_STL::char_traits<char>,_STL::allocator<char> > const >,_STL::allocator<_STL::pair<_STL::basic_string<char,_STL::char_traits<char>,_STL::allocator<char> > const ,ControladorBase *> > >::lower_bound(_STL::basic_string<char,_STL::char_traits<char>,_STL::allocator<char> > const &)
PUBLIC a4e0 0 _STL::_Rb_tree<_STL::basic_string<char,_STL::char_traits<char>,_STL::allocator<char> > const ,_STL::pair<_STL::basic_string<char,_STL::char_traits<char>,_STL::allocator<char> > const ,ControladorBase *>,_STL::_Select1st<_STL::pair<_STL::basic_string<char,_STL::char_traits<char>,_STL::allocator<char> > const ,ControladorBase *> >,_STL::less<_STL::basic_string<char,_STL::char_traits<char>,_STL::allocator<char> > const >,_STL::allocator<_STL::pair<_STL::basic_string<char,_STL::char_traits<char>,_STL::allocator<char> > const ,ControladorBase *> > >::_M_insert(_STL::_Rb_tree_node_base *,_STL::_Rb_tree_node_base *,_STL::pair<_STL::basic_string<char,_STL::char_traits<char>,_STL::allocator<char> > const ,ControladorBase *> const &,_STL::_Rb_tree_node_base *)
PUBLIC a590 0 _STL::_Rb_tree<_STL::basic_string<char,_STL::char_traits<char>,_STL::allocator<char> > const ,_STL::pair<_STL::basic_string<char,_STL::char_traits<char>,_STL::allocator<char> > const ,ControladorBase *>,_STL::_Select1st<_STL::pair<_STL::basic_string<char,_STL::char_traits<char>,_STL::allocator<char> > const ,ControladorBase *> >,_STL::less<_STL::basic_string<char,_STL::char_traits<char>,_STL::allocator<char> > const >,_STL::allocator<_STL::pair<_STL::basic_string<char,_STL::char_traits<char>,_STL::allocator<char> > const ,ControladorBase *> > >::insert_unique(_STL::pair<_STL::basic_string<char,_STL::char_traits<char>,_STL::allocator<char> > const ,ControladorBase *> const &)
PUBLIC a690 0 DiccionarioControladores::ControllerIDExists(_STL::basic_string<char,_STL::char_traits<char>,_STL::allocator<char> > const &)
PUBLIC a720 0 DiccionarioControladores::DeleteController(_STL::basic_string<char,_STL::char_traits<char>,_STL::allocator<char> > const &)
PUBLIC a7b0 0 DiccionarioControladores::GetNewMonitorID()
PUBLIC a940 0 _STL::_Rb_tree<_STL::basic_string<char,_STL::char_traits<char>,_STL::allocator<char> > const ,_STL::pair<_STL::basic_string<char,_STL::char_traits<char>,_STL::allocator<char> > const ,ControladorBase *>,_STL::_Select1st<_STL::pair<_STL::basic_string<char,_STL::char_traits<char>,_STL::allocator<char> > const ,ControladorBase *> >,_STL::less<_STL::basic_string<char,_STL::char_traits<char>,_STL::allocator<char> > const >,_STL::allocator<_STL::pair<_STL::basic_string<char,_STL::char_traits<char>,_STL::allocator<char> > const ,ControladorBase *> > >::~_Rb_tree<_STL::basic_string<char,_STL::char_traits<char>,_STL::allocator<char> > const ,_STL::pair<_STL::basic_string<char,_STL::char_traits<char>,_STL::allocator<char> > const ,ControladorBase *>,_STL::_Select1st<_STL::pair<_STL::basic_string<char,_STL::char_traits<char>,_STL::allocator<char> > const ,ControladorBase *> >,_STL::less<_STL::basic_string<char,_STL::char_traits<char>,_STL::allocator<char> > const >,_STL::allocator<_STL::pair<_STL::basic_string<char,_STL::char_traits<char>,_STL::allocator<char> > const ,ControladorBase *> > >()
PUBLIC a9c0 0 _STL::map<_STL::basic_string<char,_STL::char_traits<char>,_STL::allocator<char> > const ,ControladorBase *,_STL::less<_STL::basic_string<char,_STL::char_traits<char>,_STL::allocator<char> > const >,_STL::allocator<_STL::pair<_STL::basic_string<char,_STL::char_traits<char>,_STL::allocator<char> > const ,ControladorBase *> > >::lower_bound(_STL::basic_string<char,_STL::char_traits<char>,_STL::allocator<char> > const &)
PUBLIC a9e0 0 _STL::_Rb_tree<_STL::basic_string<char,_STL::char_traits<char>,_STL::allocator<char> > const ,_STL::pair<_STL::basic_string<char,_STL::char_traits<char>,_STL::allocator<char> > const ,ControladorBase *>,_STL::_Select1st<_STL::pair<_STL::basic_string<char,_STL::char_traits<char>,_STL::allocator<char> > const ,ControladorBase *> >,_STL::less<_STL::basic_string<char,_STL::char_traits<char>,_STL::allocator<char> > const >,_STL::allocator<_STL::pair<_STL::basic_string<char,_STL::char_traits<char>,_STL::allocator<char> > const ,ControladorBase *> > >::insert_unique(_STL::_Rb_tree_iterator<_STL::pair<_STL::basic_string<char,_STL::char_traits<char>,_STL::allocator<char> > const ,ControladorBase *>,_STL::_Nonconst_traits<_STL::pair<_STL::basic_string<char,_STL::char_traits<char>,_STL::allocator<char> > const ,ControladorBase *> > >,_STL::pair<_STL::basic_string<char,_STL::char_traits<char>,_STL::allocator<char> > const ,ControladorBase *> const &)
PUBLIC aca0 0 _STL::map<_STL::basic_string<char,_STL::char_traits<char>,_STL::allocator<char> > const ,ControladorBase *,_STL::less<_STL::basic_string<char,_STL::char_traits<char>,_STL::allocator<char> > const >,_STL::allocator<_STL::pair<_STL::basic_string<char,_STL::char_traits<char>,_STL::allocator<char> > const ,ControladorBase *> > >::~map<_STL::basic_string<char,_STL::char_traits<char>,_STL::allocator<char> > const ,ControladorBase *,_STL::less<_STL::basic_string<char,_STL::char_traits<char>,_STL::allocator<char> > const >,_STL::allocator<_STL::pair<_STL::basic_string<char,_STL::char_traits<char>,_STL::allocator<char> > const ,ControladorBase *> > >()
PUBLIC acb0 0 DiccionarioControladores::~DiccionarioControladores()
PUBLIC ad10 0 _STL::map<_STL::basic_string<char,_STL::char_traits<char>,_STL::allocator<char> > const ,ControladorBase *,_STL::less<_STL::basic_string<char,_STL::char_traits<char>,_STL::allocator<char> > const >,_STL::allocator<_STL::pair<_STL::basic_string<char,_STL::char_traits<char>,_STL::allocator<char> > const ,ControladorBase *> > >::map<_STL::basic_string<char,_STL::char_traits<char>,_STL::allocator<char> > const ,ControladorBase *,_STL::less<_STL::basic_string<char,_STL::char_traits<char>,_STL::allocator<char> > const >,_STL::allocator<_STL::pair<_STL::basic_string<char,_STL::char_traits<char>,_STL::allocator<char> > const ,ControladorBase *> > >()
PUBLIC ad50 0 _STL::map<_STL::basic_string<char,_STL::char_traits<char>,_STL::allocator<char> > const ,ControladorBase *,_STL::less<_STL::basic_string<char,_STL::char_traits<char>,_STL::allocator<char> > const >,_STL::allocator<_STL::pair<_STL::basic_string<char,_STL::char_traits<char>,_STL::allocator<char> > const ,ControladorBase *> > >::insert(_STL::_Rb_tree_iterator<_STL::pair<_STL::basic_string<char,_STL::char_traits<char>,_STL::allocator<char> > const ,ControladorBase *>,_STL::_Nonconst_traits<_STL::pair<_STL::basic_string<char,_STL::char_traits<char>,_STL::allocator<char> > const ,ControladorBase *> > >,_STL::pair<_STL::basic_string<char,_STL::char_traits<char>,_STL::allocator<char> > const ,ControladorBase *> const &)
PUBLIC ad70 0 DiccionarioControladores::DiccionarioControladores()
PUBLIC ade0 0 DiccionarioControladores::`vector deleting destructor'(unsigned int)
PUBLIC ae00 0 DiccionarioControladores::instance()
PUBLIC aeb0 0 _STL::map<_STL::basic_string<char,_STL::char_traits<char>,_STL::allocator<char> > const ,ControladorBase *,_STL::less<_STL::basic_string<char,_STL::char_traits<char>,_STL::allocator<char> > const >,_STL::allocator<_STL::pair<_STL::basic_string<char,_STL::char_traits<char>,_STL::allocator<char> > const ,ControladorBase *> > >::operator[](_STL::basic_string<char,_STL::char_traits<char>,_STL::allocator<char> > const &)
PUBLIC af60 0 DiccionarioControladores::AddController(ControladorBase *)
PUBLIC b100 0 DiccionarioError::DiccionarioError(DiccionarioError const &)
PUBLIC b120 0 DiccionarioControladores::GetControllerByID(_STL::basic_string<char,_STL::char_traits<char>,_STL::allocator<char> > const &)
PUBLIC b280 0 atoh
PUBLIC b320 0 myGetChar
PUBLIC b340 0 myToHex
PUBLIC b360 0 Encrypt
PUBLIC b3f0 0 Decrypt
PUBLIC b490 0 FabricaError::FabricaError(char const *,char const *,char const *)
PUBLIC b4c0 0 FabricaError::getClassName()
PUBLIC b4d0 0 FabricaError::`scalar deleting destructor'(unsigned int)
PUBLIC b4f0 0 FabricaError::~FabricaError()
PUBLIC b500 0 Fabrica::Fabrica()
PUBLIC b510 0 Fabrica::~Fabrica()
PUBLIC b520 0 Fabrica::ControllerLoad(xercesc_2_7::DOMNode const *,_STL::basic_string<char,_STL::char_traits<char>,_STL::allocator<char> > const &,TMonitorClassInfo *,bool)
PUBLIC b850 0 Fabrica::ControllerCreate(_STL::basic_string<char,_STL::char_traits<char>,_STL::allocator<char> > const &,char const *)
PUBLIC b990 0 Fabrica::ControllerReload(xercesc_2_7::DOMNode const *,_STL::basic_string<char,_STL::char_traits<char>,_STL::allocator<char> > const &,TMonitorClassInfo *)
PUBLIC b9b0 0 Fabrica::`vector deleting destructor'(unsigned int)
PUBLIC b9d0 0 FabricaError::FabricaError(FabricaError const &)
PUBLIC b9f0 0 Fabrica::Instance()
PUBLIC ba90 0 Fabrica::close_singleton()
PUBLIC bb20 0 VMCGetEventIDFromActivity(TActivity)
PUBLIC bb90 0 VMCGetEventIDFromHealth(TState)
PUBLIC bbf0 0 VMCGetTempEventIDFromHealth(TState)
PUBLIC bc50 0 VMCGetEventIDFromStatus(TStatus)
PUBLIC bcc0 0 VMCGetEventIDFromSTGStatus(TSTGStatus)
PUBLIC bd30 0 VMCGetEventTypeFromHealth(TState)
PUBLIC bd70 0 VMCGetEventTypeFromType(eTypeMessage)
PUBLIC bdb0 0 GestorEventos::GestorEventos()
PUBLIC bdc0 0 GestorEventos::open(int (*)(TEventMessageController *),int (*)(TEventEnvironment *),int (*)(TMonitorStatusEvent *),int (*)(TMonitorSTGStatusEvent *),int (*)(TMonitorActivityEvent *),int (*)(TMonitorStateEvent *),int (*)(TDataSourceActivityEvent *))
PUBLIC be00 0 GestorEventos::~GestorEventos()
PUBLIC be10 0 GestorEventos::MonitorEventEnv(TEventEnvironment *)
PUBLIC c030 0 GestorEventos::MonitorEventMessage(TEventMessageMonitor *)
PUBLIC c0d0 0 DeleteEvent(void *,CALLBACK_KIND)
PUBLIC c150 0 GestorEventos::MonitorMessageFormat(eTypeMessage,ControladorBase *,char *,...)
PUBLIC c240 0 GestorEventos::EnvironmentMessageFormat(eTypeMessage,char *,...)
PUBLIC c440 0 GestorEventos::MonitorMessage(eTypeMessage,ControladorBase *,_STL::basic_string<char,_STL::char_traits<char>,_STL::allocator<char> > const &)
PUBLIC c5d0 0 GestorEventos::EnvironmentMessage(eTypeMessage,_STL::basic_string<char,_STL::char_traits<char>,_STL::allocator<char> > const &,bool)
PUBLIC c7c0 0 GestorEventos::SetScriptStorageSettings(_STL::basic_string<char,_STL::char_traits<char>,_STL::allocator<char> > const &,_STL::basic_string<char,_STL::char_traits<char>,_STL::allocator<char> > const &,_STL::basic_string<char,_STL::char_traits<char>,_STL::allocator<char> > const &,_STL::basic_string<char,_STL::char_traits<char>,_STL::allocator<char> > const &,_STL::basic_string<char,_STL::char_traits<char>,_STL::allocator<char> > const &)
PUBLIC c840 0 GestorEventos::StoreMonitorVariables(ScriptBase const *,ControladorBase const &,char const *,_STL::basic_string<char,_STL::char_traits<char>,_STL::allocator<char> > const &)
PUBLIC c850 0 GestorEventos::`scalar deleting destructor'(unsigned int)
PUBLIC c870 0 GestorEventos::instance()
PUBLIC c910 0 GestorEventos::close_singleton()
PUBLIC c9a0 0 GetActivityTxt(TActivity,_STL::basic_string<char,_STL::char_traits<char>,_STL::allocator<char> > const &)
PUBLIC cbb0 0 GetActivityTxtDS(TActivity,_STL::basic_string<char,_STL::char_traits<char>,_STL::allocator<char> > const &)
PUBLIC ccd0 0 GestorEventos::RealMonitorScriptMessage(eTypeMessage,_STL::basic_string<char,_STL::char_traits<char>,_STL::allocator<char> > const &,ScriptBase const &,ControladorBase &,void *,_STL::basic_string<char,_STL::char_traits<char>,_STL::allocator<char> > const &,TVSMEventID::VSMEventID,bool,bool)
PUBLIC cfa0 0 GestorEventos::MonitorScriptLogMessage(eTypeMessage,_STL::basic_string<char,_STL::char_traits<char>,_STL::allocator<char> > const &,void *,_STL::basic_string<char,_STL::char_traits<char>,_STL::allocator<char> > const &,bool)
PUBLIC d0c0 0 GetHealthTxt(TState,_STL::basic_string<char,_STL::char_traits<char>,_STL::allocator<char> > const &)
PUBLIC d2b0 0 GestorEventos::MonitorNewHealth(ScriptBase const *,_STL::basic_string<char,_STL::char_traits<char>,_STL::allocator<char> > const &,ControladorBase &,void *,_STL::basic_string<char,_STL::char_traits<char>,_STL::allocator<char> > const &,bool)
PUBLIC d640 0 GestorEventos::MonitorTempNewHealth(TState,ScriptBase const *,_STL::basic_string<char,_STL::char_traits<char>,_STL::allocator<char> > const &,ControladorBase &,void *,_STL::basic_string<char,_STL::char_traits<char>,_STL::allocator<char> > const &,bool)
PUBLIC d930 0 GestorEventos::MonitorNewActivity(_STL::basic_string<char,_STL::char_traits<char>,_STL::allocator<char> > const &,_STL::basic_string<char,_STL::char_traits<char>,_STL::allocator<char> > const &,_STL::basic_string<char,_STL::char_traits<char>,_STL::allocator<char> > const &,_STL::basic_string<char,_STL::char_traits<char>,_STL::allocator<char> > const &,_STL::basic_string<char,_STL::char_traits<char>,_STL::allocator<char> > const &,_STL::basic_string<char,_STL::char_traits<char>,_STL::allocator<char> > const &,_STL::basic_string<char,_STL::char_traits<char>,_STL::allocator<char> > const &,TActivity)
PUBLIC da90 0 GestorEventos::MonitorNewActivity(ControladorBase const &,TActivity)
PUBLIC db10 0 GestorEventos::MonitorNewStatus(ControladorBase const &,TStatus,_STL::basic_string<char,_STL::char_traits<char>,_STL::allocator<char> > const &,bool)
PUBLIC dd30 0 GestorEventos::MonitorNewSTGStatus(ControladorBase const &,TSTGStatus,_STL::basic_string<char,_STL::char_traits<char>,_STL::allocator<char> > const &,bool)
PUBLIC dfa0 0 GestorEventos::NewDataSourceActivity(TDataSourceActivityEvent *)
PUBLIC e130 0 GestorEventos::MonitorScriptMessage(eTypeMessage,_STL::basic_string<char,_STL::char_traits<char>,_STL::allocator<char> > const &,ScriptBase const &,ControladorBase &,void *,_STL::basic_string<char,_STL::char_traits<char>,_STL::allocator<char> > const &,bool,bool)
PUBLIC e170 0 GestorEventos::MonitorScriptErrorMessage(eTypeMessage,_STL::basic_string<char,_STL::char_traits<char>,_STL::allocator<char> > const &,ScriptBase const &,ControladorBase &,void *,_STL::basic_string<char,_STL::char_traits<char>,_STL::allocator<char> > const &,bool)
PUBLIC e1b0 0 KeyDataConfig::KeyDataConfig(KeyDataConfig const &)
PUBLIC e220 0 KeyDataConfig::~KeyDataConfig()
PUBLIC e270 0 KeyValueType::KeyValueType()
PUBLIC e2e0 0 KeyValueType::~KeyValueType()
PUBLIC e360 0 _STL::pair<_STL::basic_string<char,_STL::char_traits<char>,_STL::allocator<char> >,KeyValueType>::~pair<_STL::basic_string<char,_STL::char_traits<char>,_STL::allocator<char> >,KeyValueType>()
PUBLIC e3b0 0 _STL::pair<_STL::basic_string<char,_STL::char_traits<char>,_STL::allocator<char> > const ,KeyValueType>::~pair<_STL::basic_string<char,_STL::char_traits<char>,_STL::allocator<char> > const ,KeyValueType>()
PUBLIC e400 0 KeyDataInfo::getId()
PUBLIC e420 0 KeyDataInfo::isGeneric()
PUBLIC e430 0 KeyDataInfo::getDescription()
PUBLIC e460 0 KeyDataInfo::getKeyInfo(KeyInfo *)
PUBLIC e480 0 _STL::_Rb_tree_iterator<_STL::pair<_STL::basic_string<char,_STL::char_traits<char>,_STL::allocator<char> > const ,KeyValueType>,_STL::_Nonconst_traits<_STL::pair<_STL::basic_string<char,_STL::char_traits<char>,_STL::allocator<char> > const ,KeyValueType> > >::_Rb_tree_iterator<_STL::pair<_STL::basic_string<char,_STL::char_traits<char>,_STL::allocator<char> > const ,KeyValueType>,_STL::_Nonconst_traits<_STL::pair<_STL::basic_string<char,_STL::char_traits<char>,_STL::allocator<char> > const ,KeyValueType> > >(_STL::_Rb_tree_iterator<_STL::pair<_STL::basic_string<char,_STL::char_traits<char>,_STL::allocator<char> > const ,KeyValueType>,_STL::_Nonconst_traits<_STL::pair<_STL::basic_string<char,_STL::char_traits<char>,_STL::allocator<char> > const ,KeyValueType> > > const &)
PUBLIC e490 0 _STL::_Rb_tree<_STL::basic_string<char,_STL::char_traits<char>,_STL::allocator<char> >,_STL::pair<_STL::basic_string<char,_STL::char_traits<char>,_STL::allocator<char> > const ,KeyValueType>,_STL::_Select1st<_STL::pair<_STL::basic_string<char,_STL::char_traits<char>,_STL::allocator<char> > const ,KeyValueType> >,_STL::less<_STL::basic_string<char,_STL::char_traits<char>,_STL::allocator<char> > >,_STL::allocator<_STL::pair<_STL::basic_string<char,_STL::char_traits<char>,_STL::allocator<char> > const ,KeyValueType> > >::size()
PUBLIC e4a0 0 _STL::allocator<_STL::pair<_STL::basic_string<char,_STL::char_traits<char>,_STL::allocator<char> > const ,KeyValueType> >::allocator<_STL::pair<_STL::basic_string<char,_STL::char_traits<char>,_STL::allocator<char> > const ,KeyValueType> >()
PUBLIC e4b0 0 _STL::allocator<_STL::pair<_STL::basic_string<char,_STL::char_traits<char>,_STL::allocator<char> > const ,KeyValueType> >::~allocator<_STL::pair<_STL::basic_string<char,_STL::char_traits<char>,_STL::allocator<char> > const ,KeyValueType> >()
PUBLIC e4c0 0 _STL::_Rb_tree_iterator<_STL::pair<_STL::basic_string<char,_STL::char_traits<char>,_STL::allocator<char> > const ,KeyValueType>,_STL::_Nonconst_traits<_STL::pair<_STL::basic_string<char,_STL::char_traits<char>,_STL::allocator<char> > const ,KeyValueType> > >::operator*()
PUBLIC e4d0 0 _STL::_Rb_tree<_STL::basic_string<char,_STL::char_traits<char>,_STL::allocator<char> >,_STL::pair<_STL::basic_string<char,_STL::char_traits<char>,_STL::allocator<char> > const ,KeyValueType>,_STL::_Select1st<_STL::pair<_STL::basic_string<char,_STL::char_traits<char>,_STL::allocator<char> > const ,KeyValueType> >,_STL::less<_STL::basic_string<char,_STL::char_traits<char>,_STL::allocator<char> > >,_STL::allocator<_STL::pair<_STL::basic_string<char,_STL::char_traits<char>,_STL::allocator<char> > const ,KeyValueType> > >::_M_root()
PUBLIC e4e0 0 _STL::_Rb_tree<_STL::basic_string<char,_STL::char_traits<char>,_STL::allocator<char> >,_STL::pair<_STL::basic_string<char,_STL::char_traits<char>,_STL::allocator<char> > const ,KeyValueType>,_STL::_Select1st<_STL::pair<_STL::basic_string<char,_STL::char_traits<char>,_STL::allocator<char> > const ,KeyValueType> >,_STL::less<_STL::basic_string<char,_STL::char_traits<char>,_STL::allocator<char> > >,_STL::allocator<_STL::pair<_STL::basic_string<char,_STL::char_traits<char>,_STL::allocator<char> > const ,KeyValueType> > >::_M_leftmost()
PUBLIC e4f0 0 _STL::_Rb_tree<_STL::basic_string<char,_STL::char_traits<char>,_STL::allocator<char> >,_STL::pair<_STL::basic_string<char,_STL::char_traits<char>,_STL::allocator<char> > const ,KeyValueType>,_STL::_Select1st<_STL::pair<_STL::basic_string<char,_STL::char_traits<char>,_STL::allocator<char> > const ,KeyValueType> >,_STL::less<_STL::basic_string<char,_STL::char_traits<char>,_STL::allocator<char> > >,_STL::allocator<_STL::pair<_STL::basic_string<char,_STL::char_traits<char>,_STL::allocator<char> > const ,KeyValueType> > >::_M_rightmost()
PUBLIC e500 0 _STL::allocator<_STL::_Rb_tree_node<_STL::pair<_STL::basic_string<char,_STL::char_traits<char>,_STL::allocator<char> > const ,KeyValueType> > >::~allocator<_STL::_Rb_tree_node<_STL::pair<_STL::basic_string<char,_STL::char_traits<char>,_STL::allocator<char> > const ,KeyValueType> > >()
PUBLIC e510 0 _STL::allocator<_STL::_Rb_tree_node<_STL::pair<_STL::basic_string<char,_STL::char_traits<char>,_STL::allocator<char> > const ,KeyValueType> > >::deallocate(_STL::_Rb_tree_node<_STL::pair<_STL::basic_string<char,_STL::char_traits<char>,_STL::allocator<char> > const ,KeyValueType> > *,unsigned int)
PUBLIC e530 0 _STL::_Rb_tree_iterator<_STL::pair<_STL::basic_string<char,_STL::char_traits<char>,_STL::allocator<char> > const ,KeyValueType>,_STL::_Nonconst_traits<_STL::pair<_STL::basic_string<char,_STL::char_traits<char>,_STL::allocator<char> > const ,KeyValueType> > >::_Rb_tree_iterator<_STL::pair<_STL::basic_string<char,_STL::char_traits<char>,_STL::allocator<char> > const ,KeyValueType>,_STL::_Nonconst_traits<_STL::pair<_STL::basic_string<char,_STL::char_traits<char>,_STL::allocator<char> > const ,KeyValueType> > >(_STL::_Rb_tree_node<_STL::pair<_STL::basic_string<char,_STL::char_traits<char>,_STL::allocator<char> > const ,KeyValueType> > *)
PUBLIC e540 0 _STL::_Rb_tree<_STL::basic_string<char,_STL::char_traits<char>,_STL::allocator<char> >,_STL::pair<_STL::basic_string<char,_STL::char_traits<char>,_STL::allocator<char> > const ,KeyValueType>,_STL::_Select1st<_STL::pair<_STL::basic_string<char,_STL::char_traits<char>,_STL::allocator<char> > const ,KeyValueType> >,_STL::less<_STL::basic_string<char,_STL::char_traits<char>,_STL::allocator<char> > >,_STL::allocator<_STL::pair<_STL::basic_string<char,_STL::char_traits<char>,_STL::allocator<char> > const ,KeyValueType> > >::_S_color(_STL::_Rb_tree_node<_STL::pair<_STL::basic_string<char,_STL::char_traits<char>,_STL::allocator<char> > const ,KeyValueType> > *)
PUBLIC e550 0 _STL::allocator<_STL::_Rb_tree_node<_STL::pair<_STL::basic_string<char,_STL::char_traits<char>,_STL::allocator<char> > const ,KeyValueType> > >::allocate(unsigned int,void const *)
PUBLIC e570 0 _STL::allocator<_STL::_Rb_tree_node<_STL::pair<_STL::basic_string<char,_STL::char_traits<char>,_STL::allocator<char> > const ,KeyValueType> > >::allocator<_STL::_Rb_tree_node<_STL::pair<_STL::basic_string<char,_STL::char_traits<char>,_STL::allocator<char> > const ,KeyValueType> > >(_STL::allocator<_STL::_Rb_tree_node<_STL::pair<_STL::basic_string<char,_STL::char_traits<char>,_STL::allocator<char> > const ,KeyValueType> > > const &)
PUBLIC e580 0 _STL::allocator<_STL::_Rb_tree_node<_STL::pair<_STL::basic_string<char,_STL::char_traits<char>,_STL::allocator<char> > const ,KeyValueType> > >::allocator<_STL::_Rb_tree_node<_STL::pair<_STL::basic_string<char,_STL::char_traits<char>,_STL::allocator<char> > const ,KeyValueType> > ><_STL::pair<_STL::basic_string<char,_STL::char_traits<char>,_STL::allocator<char> > const ,KeyValueType> >(_STL::allocator<_STL::pair<_STL::basic_string<char,_STL::char_traits<char>,_STL::allocator<char> > const ,KeyValueType> > const &)
PUBLIC e590 0 KeyValueType::KeyValueType(KeyValueType const &)
PUBLIC e620 0 _STL::pair<_STL::basic_string<char,_STL::char_traits<char>,_STL::allocator<char> > const ,KeyValueType>::`scalar deleting destructor'(unsigned int)
PUBLIC e640 0 _STL::_Rb_tree<_STL::basic_string<char,_STL::char_traits<char>,_STL::allocator<char> >,_STL::pair<_STL::basic_string<char,_STL::char_traits<char>,_STL::allocator<char> > const ,KeyValueType>,_STL::_Select1st<_STL::pair<_STL::basic_string<char,_STL::char_traits<char>,_STL::allocator<char> > const ,KeyValueType> >,_STL::less<_STL::basic_string<char,_STL::char_traits<char>,_STL::allocator<char> > >,_STL::allocator<_STL::pair<_STL::basic_string<char,_STL::char_traits<char>,_STL::allocator<char> > const ,KeyValueType> > >::_S_left(_STL::_Rb_tree_node<_STL::pair<_STL::basic_string<char,_STL::char_traits<char>,_STL::allocator<char> > const ,KeyValueType> > *)
PUBLIC e650 0 _STL::_Rb_tree<_STL::basic_string<char,_STL::char_traits<char>,_STL::allocator<char> >,_STL::pair<_STL::basic_string<char,_STL::char_traits<char>,_STL::allocator<char> > const ,KeyValueType>,_STL::_Select1st<_STL::pair<_STL::basic_string<char,_STL::char_traits<char>,_STL::allocator<char> > const ,KeyValueType> >,_STL::less<_STL::basic_string<char,_STL::char_traits<char>,_STL::allocator<char> > >,_STL::allocator<_STL::pair<_STL::basic_string<char,_STL::char_traits<char>,_STL::allocator<char> > const ,KeyValueType> > >::_S_right(_STL::_Rb_tree_node<_STL::pair<_STL::basic_string<char,_STL::char_traits<char>,_STL::allocator<char> > const ,KeyValueType> > *)
PUBLIC e660 0 _STL::_Rb_tree<_STL::basic_string<char,_STL::char_traits<char>,_STL::allocator<char> >,_STL::pair<_STL::basic_string<char,_STL::char_traits<char>,_STL::allocator<char> > const ,KeyValueType>,_STL::_Select1st<_STL::pair<_STL::basic_string<char,_STL::char_traits<char>,_STL::allocator<char> > const ,KeyValueType> >,_STL::less<_STL::basic_string<char,_STL::char_traits<char>,_STL::allocator<char> > >,_STL::allocator<_STL::pair<_STL::basic_string<char,_STL::char_traits<char>,_STL::allocator<char> > const ,KeyValueType> > >::begin()
PUBLIC e670 0 _STL::_Rb_tree_iterator<_STL::pair<_STL::basic_string<char,_STL::char_traits<char>,_STL::allocator<char> > const ,KeyValueType>,_STL::_Nonconst_traits<_STL::pair<_STL::basic_string<char,_STL::char_traits<char>,_STL::allocator<char> > const ,KeyValueType> > >::operator--()
PUBLIC e690 0 _STL::pair<_STL::basic_string<char,_STL::char_traits<char>,_STL::allocator<char> >,KeyValueType>::pair<_STL::basic_string<char,_STL::char_traits<char>,_STL::allocator<char> >,KeyValueType>(_STL::basic_string<char,_STL::char_traits<char>,_STL::allocator<char> > const &,KeyValueType const &)
PUBLIC e6f0 0 _STL::pair<_STL::_Rb_tree_iterator<_STL::pair<_STL::basic_string<char,_STL::char_traits<char>,_STL::allocator<char> > const ,KeyValueType>,_STL::_Nonconst_traits<_STL::pair<_STL::basic_string<char,_STL::char_traits<char>,_STL::allocator<char> > const ,KeyValueType> > >,bool>::pair<_STL::_Rb_tree_iterator<_STL::pair<_STL::basic_string<char,_STL::char_traits<char>,_STL::allocator<char> > const ,KeyValueType>,_STL::_Nonconst_traits<_STL::pair<_STL::basic_string<char,_STL::char_traits<char>,_STL::allocator<char> > const ,KeyValueType> > >,bool>(_STL::_Rb_tree_iterator<_STL::pair<_STL::basic_string<char,_STL::char_traits<char>,_STL::allocator<char> > const ,KeyValueType>,_STL::_Nonconst_traits<_STL::pair<_STL::basic_string<char,_STL::char_traits<char>,_STL::allocator<char> > const ,KeyValueType> > > const &,bool const &)
PUBLIC e710 0 _STL::_Select1st<_STL::pair<_STL::basic_string<char,_STL::char_traits<char>,_STL::allocator<char> > const ,KeyValueType> >::operator()(_STL::pair<_STL::basic_string<char,_STL::char_traits<char>,_STL::allocator<char> > const ,KeyValueType> const &)
PUBLIC e720 0 _STL::_Rb_tree<_STL::basic_string<char,_STL::char_traits<char>,_STL::allocator<char> >,_STL::pair<_STL::basic_string<char,_STL::char_traits<char>,_STL::allocator<char> > const ,KeyValueType>,_STL::_Select1st<_STL::pair<_STL::basic_string<char,_STL::char_traits<char>,_STL::allocator<char> > const ,KeyValueType> >,_STL::less<_STL::basic_string<char,_STL::char_traits<char>,_STL::allocator<char> > >,_STL::allocator<_STL::pair<_STL::basic_string<char,_STL::char_traits<char>,_STL::allocator<char> > const ,KeyValueType> > >::_S_value(_STL::_Rb_tree_node<_STL::pair<_STL::basic_string<char,_STL::char_traits<char>,_STL::allocator<char> > const ,KeyValueType> > *)
PUBLIC e730 0 _STL::_Rb_tree<_STL::basic_string<char,_STL::char_traits<char>,_STL::allocator<char> >,_STL::pair<_STL::basic_string<char,_STL::char_traits<char>,_STL::allocator<char> > const ,KeyValueType>,_STL::_Select1st<_STL::pair<_STL::basic_string<char,_STL::char_traits<char>,_STL::allocator<char> > const ,KeyValueType> >,_STL::less<_STL::basic_string<char,_STL::char_traits<char>,_STL::allocator<char> > >,_STL::allocator<_STL::pair<_STL::basic_string<char,_STL::char_traits<char>,_STL::allocator<char> > const ,KeyValueType> > >::_S_parent(_STL::_Rb_tree_node<_STL::pair<_STL::basic_string<char,_STL::char_traits<char>,_STL::allocator<char> > const ,KeyValueType> > *)
PUBLIC e740 0 _STL::pair<_STL::basic_string<char,_STL::char_traits<char>,_STL::allocator<char> > const ,KeyValueType>::pair<_STL::basic_string<char,_STL::char_traits<char>,_STL::allocator<char> > const ,KeyValueType>(_STL::pair<_STL::basic_string<char,_STL::char_traits<char>,_STL::allocator<char> > const ,KeyValueType> const &)
PUBLIC e7a0 0 _STL::map<_STL::basic_string<char,_STL::char_traits<char>,_STL::allocator<char> >,KeyValueType,_STL::less<_STL::basic_string<char,_STL::char_traits<char>,_STL::allocator<char> > >,_STL::allocator<_STL::pair<_STL::basic_string<char,_STL::char_traits<char>,_STL::allocator<char> > const ,KeyValueType> > >::size()
PUBLIC e7b0 0 _STL::_Rb_tree_iterator<_STL::pair<_STL::basic_string<char,_STL::char_traits<char>,_STL::allocator<char> > const ,KeyValueType>,_STL::_Nonconst_traits<_STL::pair<_STL::basic_string<char,_STL::char_traits<char>,_STL::allocator<char> > const ,KeyValueType> > >::operator->()
PUBLIC e7c0 0 _STL::_Rb_tree<_STL::basic_string<char,_STL::char_traits<char>,_STL::allocator<char> >,_STL::pair<_STL::basic_string<char,_STL::char_traits<char>,_STL::allocator<char> > const ,KeyValueType>,_STL::_Select1st<_STL::pair<_STL::basic_string<char,_STL::char_traits<char>,_STL::allocator<char> > const ,KeyValueType> >,_STL::less<_STL::basic_string<char,_STL::char_traits<char>,_STL::allocator<char> > >,_STL::allocator<_STL::pair<_STL::basic_string<char,_STL::char_traits<char>,_STL::allocator<char> > const ,KeyValueType> > >::end()
PUBLIC e7d0 0 _STL::_STLP_alloc_proxy<_STL::_Rb_tree_node<_STL::pair<_STL::basic_string<char,_STL::char_traits<char>,_STL::allocator<char> > const ,KeyValueType> > *,_STL::_Rb_tree_node<_STL::pair<_STL::basic_string<char,_STL::char_traits<char>,_STL::allocator<char> > const ,KeyValueType> >,_STL::allocator<_STL::_Rb_tree_node<_STL::pair<_STL::basic_string<char,_STL::char_traits<char>,_STL::allocator<char> > const ,KeyValueType> > > >::~_STLP_alloc_proxy<_STL::_Rb_tree_node<_STL::pair<_STL::basic_string<char,_STL::char_traits<char>,_STL::allocator<char> > const ,KeyValueType> > *,_STL::_Rb_tree_node<_STL::pair<_STL::basic_string<char,_STL::char_traits<char>,_STL::allocator<char> > const ,KeyValueType> >,_STL::allocator<_STL::_Rb_tree_node<_STL::pair<_STL::basic_string<char,_STL::char_traits<char>,_STL::allocator<char> > const ,KeyValueType> > > >()
PUBLIC e7e0 0 _STL::_Rb_tree<_STL::basic_string<char,_STL::char_traits<char>,_STL::allocator<char> >,_STL::pair<_STL::basic_string<char,_STL::char_traits<char>,_STL::allocator<char> > const ,KeyValueType>,_STL::_Select1st<_STL::pair<_STL::basic_string<char,_STL::char_traits<char>,_STL::allocator<char> > const ,KeyValueType> >,_STL::less<_STL::basic_string<char,_STL::char_traits<char>,_STL::allocator<char> > >,_STL::allocator<_STL::pair<_STL::basic_string<char,_STL::char_traits<char>,_STL::allocator<char> > const ,KeyValueType> > >::_M_empty_initialize()
PUBLIC e800 0 _STL::_STLP_alloc_proxy<_STL::_Rb_tree_node<_STL::pair<_STL::basic_string<char,_STL::char_traits<char>,_STL::allocator<char> > const ,KeyValueType> > *,_STL::_Rb_tree_node<_STL::pair<_STL::basic_string<char,_STL::char_traits<char>,_STL::allocator<char> > const ,KeyValueType> >,_STL::allocator<_STL::_Rb_tree_node<_STL::pair<_STL::basic_string<char,_STL::char_traits<char>,_STL::allocator<char> > const ,KeyValueType> > > >::_STLP_alloc_proxy<_STL::_Rb_tree_node<_STL::pair<_STL::basic_string<char,_STL::char_traits<char>,_STL::allocator<char> > const ,KeyValueType> > *,_STL::_Rb_tree_node<_STL::pair<_STL::basic_string<char,_STL::char_traits<char>,_STL::allocator<char> > const ,KeyValueType> >,_STL::allocator<_STL::_Rb_tree_node<_STL::pair<_STL::basic_string<char,_STL::char_traits<char>,_STL::allocator<char> > const ,KeyValueType> > > >(_STL::allocator<_STL::_Rb_tree_node<_STL::pair<_STL::basic_string<char,_STL::char_traits<char>,_STL::allocator<char> > const ,KeyValueType> > > const &,_STL::_Rb_tree_node<_STL::pair<_STL::basic_string<char,_STL::char_traits<char>,_STL::allocator<char> > const ,KeyValueType> > *)
PUBLIC e810 0 _STL::make_pair<_STL::basic_string<char,_STL::char_traits<char>,_STL::allocator<char> >,KeyValueType>(_STL::basic_string<char,_STL::char_traits<char>,_STL::allocator<char> > const &,KeyValueType const &)
PUBLIC e840 0 _STL::pair<_STL::basic_string<char,_STL::char_traits<char>,_STL::allocator<char> > const ,KeyValueType>::pair<_STL::basic_string<char,_STL::char_traits<char>,_STL::allocator<char> > const ,KeyValueType><_STL::basic_string<char,_STL::char_traits<char>,_STL::allocator<char> >,KeyValueType>(_STL::pair<_STL::basic_string<char,_STL::char_traits<char>,_STL::allocator<char> >,KeyValueType> const &)
PUBLIC e8a0 0 _STL::_Destroy<_STL::pair<_STL::basic_string<char,_STL::char_traits<char>,_STL::allocator<char> > const ,KeyValueType> >(_STL::pair<_STL::basic_string<char,_STL::char_traits<char>,_STL::allocator<char> > const ,KeyValueType> *)
PUBLIC e8b0 0 _STL::_Rb_tree<_STL::basic_string<char,_STL::char_traits<char>,_STL::allocator<char> >,_STL::pair<_STL::basic_string<char,_STL::char_traits<char>,_STL::allocator<char> > const ,KeyValueType>,_STL::_Select1st<_STL::pair<_STL::basic_string<char,_STL::char_traits<char>,_STL::allocator<char> > const ,KeyValueType> >,_STL::less<_STL::basic_string<char,_STL::char_traits<char>,_STL::allocator<char> > >,_STL::allocator<_STL::pair<_STL::basic_string<char,_STL::char_traits<char>,_STL::allocator<char> > const ,KeyValueType> > >::_S_key(_STL::_Rb_tree_node<_STL::pair<_STL::basic_string<char,_STL::char_traits<char>,_STL::allocator<char> > const ,KeyValueType> > *)
PUBLIC e8c0 0 _STL::_Rb_tree<_STL::basic_string<char,_STL::char_traits<char>,_STL::allocator<char> >,_STL::pair<_STL::basic_string<char,_STL::char_traits<char>,_STL::allocator<char> > const ,KeyValueType>,_STL::_Select1st<_STL::pair<_STL::basic_string<char,_STL::char_traits<char>,_STL::allocator<char> > const ,KeyValueType> >,_STL::less<_STL::basic_string<char,_STL::char_traits<char>,_STL::allocator<char> > >,_STL::allocator<_STL::pair<_STL::basic_string<char,_STL::char_traits<char>,_STL::allocator<char> > const ,KeyValueType> > >::_S_key(_STL::_Rb_tree_node_base *)
PUBLIC e8d0 0 _STL::_Rb_tree<_STL::basic_string<char,_STL::char_traits<char>,_STL::allocator<char> >,_STL::pair<_STL::basic_string<char,_STL::char_traits<char>,_STL::allocator<char> > const ,KeyValueType>,_STL::_Select1st<_STL::pair<_STL::basic_string<char,_STL::char_traits<char>,_STL::allocator<char> > const ,KeyValueType> >,_STL::less<_STL::basic_string<char,_STL::char_traits<char>,_STL::allocator<char> > >,_STL::allocator<_STL::pair<_STL::basic_string<char,_STL::char_traits<char>,_STL::allocator<char> > const ,KeyValueType> > >::_M_find<_STL::basic_string<char,_STL::char_traits<char>,_STL::allocator<char> > >(_STL::basic_string<char,_STL::char_traits<char>,_STL::allocator<char> > const &)
PUBLIC e950 0 _STL::_Construct<_STL::pair<_STL::basic_string<char,_STL::char_traits<char>,_STL::allocator<char> > const ,KeyValueType>,_STL::pair<_STL::basic_string<char,_STL::char_traits<char>,_STL::allocator<char> > const ,KeyValueType> >(_STL::pair<_STL::basic_string<char,_STL::char_traits<char>,_STL::allocator<char> > const ,KeyValueType> *,_STL::pair<_STL::basic_string<char,_STL::char_traits<char>,_STL::allocator<char> > const ,KeyValueType> const &)
PUBLIC e9a0 0 KeyDataInfo::checkKeyStatus(bool)
PUBLIC ed40 0 KeyDataInfo::getNumberOfUses()
PUBLIC ed50 0 KeyDataInfo::checkNearKeyExpiration(unsigned int)
PUBLIC ef50 0 _STL::map<_STL::basic_string<char,_STL::char_traits<char>,_STL::allocator<char> >,KeyValueType,_STL::less<_STL::basic_string<char,_STL::char_traits<char>,_STL::allocator<char> > >,_STL::allocator<_STL::pair<_STL::basic_string<char,_STL::char_traits<char>,_STL::allocator<char> > const ,KeyValueType> > >::end()
PUBLIC ef60 0 _STL::_Rb_tree<_STL::basic_string<char,_STL::char_traits<char>,_STL::allocator<char> >,_STL::pair<_STL::basic_string<char,_STL::char_traits<char>,_STL::allocator<char> > const ,KeyValueType>,_STL::_Select1st<_STL::pair<_STL::basic_string<char,_STL::char_traits<char>,_STL::allocator<char> > const ,KeyValueType> >,_STL::less<_STL::basic_string<char,_STL::char_traits<char>,_STL::allocator<char> > >,_STL::allocator<_STL::pair<_STL::basic_string<char,_STL::char_traits<char>,_STL::allocator<char> > const ,KeyValueType> > >::erase(_STL::_Rb_tree_iterator<_STL::pair<_STL::basic_string<char,_STL::char_traits<char>,_STL::allocator<char> > const ,KeyValueType>,_STL::_Nonconst_traits<_STL::pair<_STL::basic_string<char,_STL::char_traits<char>,_STL::allocator<char> > const ,KeyValueType> > >)
PUBLIC efb0 0 _STL::_Rb_tree_base<_STL::pair<_STL::basic_string<char,_STL::char_traits<char>,_STL::allocator<char> > const ,KeyValueType>,_STL::allocator<_STL::pair<_STL::basic_string<char,_STL::char_traits<char>,_STL::allocator<char> > const ,KeyValueType> > >::~_Rb_tree_base<_STL::pair<_STL::basic_string<char,_STL::char_traits<char>,_STL::allocator<char> > const ,KeyValueType>,_STL::allocator<_STL::pair<_STL::basic_string<char,_STL::char_traits<char>,_STL::allocator<char> > const ,KeyValueType> > >()
PUBLIC efd0 0 _STL::_Rb_tree_base<_STL::pair<_STL::basic_string<char,_STL::char_traits<char>,_STL::allocator<char> > const ,KeyValueType>,_STL::allocator<_STL::pair<_STL::basic_string<char,_STL::char_traits<char>,_STL::allocator<char> > const ,KeyValueType> > >::_Rb_tree_base<_STL::pair<_STL::basic_string<char,_STL::char_traits<char>,_STL::allocator<char> > const ,KeyValueType>,_STL::allocator<_STL::pair<_STL::basic_string<char,_STL::char_traits<char>,_STL::allocator<char> > const ,KeyValueType> > >(_STL::allocator<_STL::pair<_STL::basic_string<char,_STL::char_traits<char>,_STL::allocator<char> > const ,KeyValueType> > const &)
PUBLIC f000 0 _STL::_Rb_tree<_STL::basic_string<char,_STL::char_traits<char>,_STL::allocator<char> >,_STL::pair<_STL::basic_string<char,_STL::char_traits<char>,_STL::allocator<char> > const ,KeyValueType>,_STL::_Select1st<_STL::pair<_STL::basic_string<char,_STL::char_traits<char>,_STL::allocator<char> > const ,KeyValueType> >,_STL::less<_STL::basic_string<char,_STL::char_traits<char>,_STL::allocator<char> > >,_STL::allocator<_STL::pair<_STL::basic_string<char,_STL::char_traits<char>,_STL::allocator<char> > const ,KeyValueType> > >::_M_erase(_STL::_Rb_tree_node<_STL::pair<_STL::basic_string<char,_STL::char_traits<char>,_STL::allocator<char> > const ,KeyValueType> > *)
PUBLIC f040 0 _STL::_Rb_tree<_STL::basic_string<char,_STL::char_traits<char>,_STL::allocator<char> >,_STL::pair<_STL::basic_string<char,_STL::char_traits<char>,_STL::allocator<char> > const ,KeyValueType>,_STL::_Select1st<_STL::pair<_STL::basic_string<char,_STL::char_traits<char>,_STL::allocator<char> > const ,KeyValueType> >,_STL::less<_STL::basic_string<char,_STL::char_traits<char>,_STL::allocator<char> > >,_STL::allocator<_STL::pair<_STL::basic_string<char,_STL::char_traits<char>,_STL::allocator<char> > const ,KeyValueType> > >::find<_STL::basic_string<char,_STL::char_traits<char>,_STL::allocator<char> > >(_STL::basic_string<char,_STL::char_traits<char>,_STL::allocator<char> > const &)
PUBLIC f060 0 _STL::_Rb_tree<_STL::basic_string<char,_STL::char_traits<char>,_STL::allocator<char> >,_STL::pair<_STL::basic_string<char,_STL::char_traits<char>,_STL::allocator<char> > const ,KeyValueType>,_STL::_Select1st<_STL::pair<_STL::basic_string<char,_STL::char_traits<char>,_STL::allocator<char> > const ,KeyValueType> >,_STL::less<_STL::basic_string<char,_STL::char_traits<char>,_STL::allocator<char> > >,_STL::allocator<_STL::pair<_STL::basic_string<char,_STL::char_traits<char>,_STL::allocator<char> > const ,KeyValueType> > >::_M_create_node(_STL::pair<_STL::basic_string<char,_STL::char_traits<char>,_STL::allocator<char> > const ,KeyValueType> const &)
PUBLIC f0f0 0 _STL::map<_STL::basic_string<char,_STL::char_traits<char>,_STL::allocator<char> >,KeyValueType,_STL::less<_STL::basic_string<char,_STL::char_traits<char>,_STL::allocator<char> > >,_STL::allocator<_STL::pair<_STL::basic_string<char,_STL::char_traits<char>,_STL::allocator<char> > const ,KeyValueType> > >::erase(_STL::_Rb_tree_iterator<_STL::pair<_STL::basic_string<char,_STL::char_traits<char>,_STL::allocator<char> > const ,KeyValueType>,_STL::_Nonconst_traits<_STL::pair<_STL::basic_string<char,_STL::char_traits<char>,_STL::allocator<char> > const ,KeyValueType> > >)
PUBLIC f140 0 _STL::map<_STL::basic_string<char,_STL::char_traits<char>,_STL::allocator<char> >,KeyValueType,_STL::less<_STL::basic_string<char,_STL::char_traits<char>,_STL::allocator<char> > >,_STL::allocator<_STL::pair<_STL::basic_string<char,_STL::char_traits<char>,_STL::allocator<char> > const ,KeyValueType> > >::find(_STL::basic_string<char,_STL::char_traits<char>,_STL::allocator<char> > const &)
PUBLIC f160 0 _STL::_Rb_tree<_STL::basic_string<char,_STL::char_traits<char>,_STL::allocator<char> >,_STL::pair<_STL::basic_string<char,_STL::char_traits<char>,_STL::allocator<char> > const ,KeyValueType>,_STL::_Select1st<_STL::pair<_STL::basic_string<char,_STL::char_traits<char>,_STL::allocator<char> > const ,KeyValueType> >,_STL::less<_STL::basic_string<char,_STL::char_traits<char>,_STL::allocator<char> > >,_STL::allocator<_STL::pair<_STL::basic_string<char,_STL::char_traits<char>,_STL::allocator<char> > const ,KeyValueType> > >::_Rb_tree<_STL::basic_string<char,_STL::char_traits<char>,_STL::allocator<char> >,_STL::pair<_STL::basic_string<char,_STL::char_traits<char>,_STL::allocator<char> > const ,KeyValueType>,_STL::_Select1st<_STL::pair<_STL::basic_string<char,_STL::char_traits<char>,_STL::allocator<char> > const ,KeyValueType> >,_STL::less<_STL::basic_string<char,_STL::char_traits<char>,_STL::allocator<char> > >,_STL::allocator<_STL::pair<_STL::basic_string<char,_STL::char_traits<char>,_STL::allocator<char> > const ,KeyValueType> > >(_STL::less<_STL::basic_string<char,_STL::char_traits<char>,_STL::allocator<char> > > const &,_STL::allocator<_STL::pair<_STL::basic_string<char,_STL::char_traits<char>,_STL::allocator<char> > const ,KeyValueType> > const &)
PUBLIC f1a0 0 _STL::_Rb_tree<_STL::basic_string<char,_STL::char_traits<char>,_STL::allocator<char> >,_STL::pair<_STL::basic_string<char,_STL::char_traits<char>,_STL::allocator<char> > const ,KeyValueType>,_STL::_Select1st<_STL::pair<_STL::basic_string<char,_STL::char_traits<char>,_STL::allocator<char> > const ,KeyValueType> >,_STL::less<_STL::basic_string<char,_STL::char_traits<char>,_STL::allocator<char> > >,_STL::allocator<_STL::pair<_STL::basic_string<char,_STL::char_traits<char>,_STL::allocator<char> > const ,KeyValueType> > >::clear()
PUBLIC f1e0 0 _STL::_Rb_tree<_STL::basic_string<char,_STL::char_traits<char>,_STL::allocator<char> >,_STL::pair<_STL::basic_string<char,_STL::char_traits<char>,_STL::allocator<char> > const ,KeyValueType>,_STL::_Select1st<_STL::pair<_STL::basic_string<char,_STL::char_traits<char>,_STL::allocator<char> > const ,KeyValueType> >,_STL::less<_STL::basic_string<char,_STL::char_traits<char>,_STL::allocator<char> > >,_STL::allocator<_STL::pair<_STL::basic_string<char,_STL::char_traits<char>,_STL::allocator<char> > const ,KeyValueType> > >::_M_insert(_STL::_Rb_tree_node_base *,_STL::_Rb_tree_node_base *,_STL::pair<_STL::basic_string<char,_STL::char_traits<char>,_STL::allocator<char> > const ,KeyValueType> const &,_STL::_Rb_tree_node_base *)
PUBLIC f290 0 KeyDataInfo::releaseCredits(_STL::basic_string<char,_STL::char_traits<char>,_STL::allocator<char> > const &,_STL::basic_string<char,_STL::char_traits<char>,_STL::allocator<char> > const &,_STL::basic_string<char,_STL::char_traits<char>,_STL::allocator<char> > const &,_STL::basic_string<char,_STL::char_traits<char>,_STL::allocator<char> > const &,KeyDataResult *)
PUBLIC f400 0 _STL::_Rb_tree<_STL::basic_string<char,_STL::char_traits<char>,_STL::allocator<char> >,_STL::pair<_STL::basic_string<char,_STL::char_traits<char>,_STL::allocator<char> > const ,KeyValueType>,_STL::_Select1st<_STL::pair<_STL::basic_string<char,_STL::char_traits<char>,_STL::allocator<char> > const ,KeyValueType> >,_STL::less<_STL::basic_string<char,_STL::char_traits<char>,_STL::allocator<char> > >,_STL::allocator<_STL::pair<_STL::basic_string<char,_STL::char_traits<char>,_STL::allocator<char> > const ,KeyValueType> > >::~_Rb_tree<_STL::basic_string<char,_STL::char_traits<char>,_STL::allocator<char> >,_STL::pair<_STL::basic_string<char,_STL::char_traits<char>,_STL::allocator<char> > const ,KeyValueType>,_STL::_Select1st<_STL::pair<_STL::basic_string<char,_STL::char_traits<char>,_STL::allocator<char> > const ,KeyValueType> >,_STL::less<_STL::basic_string<char,_STL::char_traits<char>,_STL::allocator<char> > >,_STL::allocator<_STL::pair<_STL::basic_string<char,_STL::char_traits<char>,_STL::allocator<char> > const ,KeyValueType> > >()
PUBLIC f480 0 _STL::_Rb_tree<_STL::basic_string<char,_STL::char_traits<char>,_STL::allocator<char> >,_STL::pair<_STL::basic_string<char,_STL::char_traits<char>,_STL::allocator<char> > const ,KeyValueType>,_STL::_Select1st<_STL::pair<_STL::basic_string<char,_STL::char_traits<char>,_STL::allocator<char> > const ,KeyValueType> >,_STL::less<_STL::basic_string<char,_STL::char_traits<char>,_STL::allocator<char> > >,_STL::allocator<_STL::pair<_STL::basic_string<char,_STL::char_traits<char>,_STL::allocator<char> > const ,KeyValueType> > >::insert_unique(_STL::pair<_STL::basic_string<char,_STL::char_traits<char>,_STL::allocator<char> > const ,KeyValueType> const &)
PUBLIC f580 0 _STL::map<_STL::basic_string<char,_STL::char_traits<char>,_STL::allocator<char> >,KeyValueType,_STL::less<_STL::basic_string<char,_STL::char_traits<char>,_STL::allocator<char> > >,_STL::allocator<_STL::pair<_STL::basic_string<char,_STL::char_traits<char>,_STL::allocator<char> > const ,KeyValueType> > >::~map<_STL::basic_string<char,_STL::char_traits<char>,_STL::allocator<char> >,KeyValueType,_STL::less<_STL::basic_string<char,_STL::char_traits<char>,_STL::allocator<char> > >,_STL::allocator<_STL::pair<_STL::basic_string<char,_STL::char_traits<char>,_STL::allocator<char> > const ,KeyValueType> > >()
PUBLIC f590 0 KeyDataInfo::~KeyDataInfo()
PUBLIC f600 0 _STL::map<_STL::basic_string<char,_STL::char_traits<char>,_STL::allocator<char> >,KeyValueType,_STL::less<_STL::basic_string<char,_STL::char_traits<char>,_STL::allocator<char> > >,_STL::allocator<_STL::pair<_STL::basic_string<char,_STL::char_traits<char>,_STL::allocator<char> > const ,KeyValueType> > >::map<_STL::basic_string<char,_STL::char_traits<char>,_STL::allocator<char> >,KeyValueType,_STL::less<_STL::basic_string<char,_STL::char_traits<char>,_STL::allocator<char> > >,_STL::allocator<_STL::pair<_STL::basic_string<char,_STL::char_traits<char>,_STL::allocator<char> > const ,KeyValueType> > >()
PUBLIC f640 0 _STL::map<_STL::basic_string<char,_STL::char_traits<char>,_STL::allocator<char> >,KeyValueType,_STL::less<_STL::basic_string<char,_STL::char_traits<char>,_STL::allocator<char> > >,_STL::allocator<_STL::pair<_STL::basic_string<char,_STL::char_traits<char>,_STL::allocator<char> > const ,KeyValueType> > >::insert(_STL::pair<_STL::basic_string<char,_STL::char_traits<char>,_STL::allocator<char> > const ,KeyValueType> const &)
PUBLIC f660 0 KeyDataInfo::KeyDataInfo(KeyDataConfig const &)
PUBLIC f710 0 KeyDataInfo::useCredits(_STL::basic_string<char,_STL::char_traits<char>,_STL::allocator<char> > const &,_STL::basic_string<char,_STL::char_traits<char>,_STL::allocator<char> > const &,_STL::basic_string<char,_STL::char_traits<char>,_STL::allocator<char> > const &,_STL::basic_string<char,_STL::char_traits<char>,_STL::allocator<char> > const &,bool,KeyDataResult *)
PUBLIC fac0 0 boost::detail::sp_counted_base::sp_counted_base()
PUBLIC fae0 0 boost::detail::sp_counted_base::~sp_counted_base()
PUBLIC faf0 0 boost::detail::sp_counted_base::destroy()
PUBLIC fb00 0 boost::detail::sp_counted_base::add_ref_copy()
PUBLIC fb10 0 boost::detail::sp_counted_base::weak_release()
PUBLIC fb30 0 boost::detail::sp_counted_base::`scalar deleting destructor'(unsigned int)
PUBLIC fb50 0 boost::detail::shared_count::shared_count()
PUBLIC fb60 0 boost::detail::shared_count::shared_count(boost::detail::shared_count const &)
PUBLIC fb80 0 boost::detail::sp_enable_shared_from_this(boost::detail::shared_count const &,...)
PUBLIC fb90 0 boost::escaped_list_error::escaped_list_error(_STL::basic_string<char,_STL::char_traits<char>,_STL::allocator<char> > const &)
PUBLIC fbb0 0 CryptoPP::Exception::Exception(CryptoPP::Exception::ErrorType,_STL::basic_string<char,_STL::char_traits<char>,_STL::allocator<char> > const &)
PUBLIC fc10 0 CryptoPP::Exception::~Exception()
PUBLIC fc30 0 CryptoPP::Exception::what()
PUBLIC fc40 0 CryptoPP::Exception::`vector deleting destructor'(unsigned int)
PUBLIC fc60 0 CryptoPP::InvalidArgument::InvalidArgument(_STL::basic_string<char,_STL::char_traits<char>,_STL::allocator<char> > const &)
PUBLIC fc80 0 CryptoPP::NameValuePairs::~NameValuePairs()
PUBLIC fc90 0 CryptoPP::Clonable::~Clonable()
PUBLIC fca0 0 CryptoPP::BufferedTransformation::Put(unsigned char const *,unsigned int,bool)
PUBLIC fcc0 0 CryptoPP::BufferedTransformation::MessageEnd(int,bool)
PUBLIC fcf0 0 CryptoPP::Algorithm::~Algorithm()
PUBLIC fd00 0 CryptoPP::Waitable::Waitable()
PUBLIC fd10 0 CryptoPP::BufferedTransformation::~BufferedTransformation()
PUBLIC fd20 0 CryptoPP::memcpy_s(void *,unsigned int,void const *,unsigned int)
PUBLIC fdc0 0 CryptoPP::InvalidArgument::~InvalidArgument()
PUBLIC fdd0 0 CryptoPP::Exception::Exception(CryptoPP::Exception const &)
PUBLIC fe30 0 CryptoPP::NameValuePairs::NameValuePairs()
PUBLIC fe40 0 CryptoPP::AlgorithmParametersBase::AlgorithmParametersBase(char const *,bool)
PUBLIC fe60 0 CryptoPP::Sink::~Sink()
PUBLIC fe70 0 CryptoPP::Bufferless<CryptoPP::Sink>::~Bufferless<CryptoPP::Sink>()
PUBLIC fe80 0 CryptoPP::NullNameValuePairs::~NullNameValuePairs()
PUBLIC fe90 0 CryptoPP::Name::Separator()
PUBLIC fea0 0 CryptoPP::Name::Terminator()
PUBLIC feb0 0 CryptoPP::Name::Uppercase()
PUBLIC fec0 0 CryptoPP::Name::GroupSize()
PUBLIC fed0 0 CryptoPP::Name::Log2Base()
PUBLIC fee0 0 CryptoPP::Name::DecodingLookupArray()
PUBLIC fef0 0 boost::escaped_list_separator<char,_STL::char_traits<char> >::~escaped_list_separator<char,_STL::char_traits<char> >()
PUBLIC ff50 0 boost::escaped_list_separator<char,_STL::char_traits<char> >::escaped_list_separator<char,_STL::char_traits<char> >(boost::escaped_list_separator<char,_STL::char_traits<char> > const &)
PUBLIC ffc0 0 KeyDataConfig::KeyDataConfig()
PUBLIC 10010 0 _STL::_Rb_tree_iterator<_STL::pair<_STL::basic_string<char,_STL::char_traits<char>,_STL::allocator<char> > const ,boost::shared_ptr<TAKeyInfo> >,_STL::_Const_traits<_STL::pair<_STL::basic_string<char,_STL::char_traits<char>,_STL::allocator<char> > const ,boost::shared_ptr<TAKeyInfo> > > >::_Rb_tree_iterator<_STL::pair<_STL::basic_string<char,_STL::char_traits<char>,_STL::allocator<char> > const ,boost::shared_ptr<TAKeyInfo> >,_STL::_Const_traits<_STL::pair<_STL::basic_string<char,_STL::char_traits<char>,_STL::allocator<char> > const ,boost::shared_ptr<TAKeyInfo> > > >(_STL::_Rb_tree_iterator<_STL::pair<_STL::basic_string<char,_STL::char_traits<char>,_STL::allocator<char> > const ,boost::shared_ptr<TAKeyInfo> >,_STL::_Nonconst_traits<_STL::pair<_STL::basic_string<char,_STL::char_traits<char>,_STL::allocator<char> > const ,boost::shared_ptr<TAKeyInfo> > > > const &)
PUBLIC 10020 0 boost::shared_ptr<TAKeyInfo>::operator->()
PUBLIC 10030 0 boost::shared_ptr<KeyDataInfo>::operator->()
PUBLIC 10040 0 _STL::_Rb_tree_iterator<_STL::pair<_STL::basic_string<char,_STL::char_traits<char>,_STL::allocator<char> > const ,boost::shared_ptr<KeyDataInfo> >,_STL::_Const_traits<_STL::pair<_STL::basic_string<char,_STL::char_traits<char>,_STL::allocator<char> > const ,boost::shared_ptr<KeyDataInfo> > > >::operator++()
PUBLIC 10060 0 _STL::_Rb_tree_iterator<_STL::pair<_STL::basic_string<char,_STL::char_traits<char>,_STL::allocator<char> > const ,_STL::basic_string<char,_STL::char_traits<char>,_STL::allocator<char> > >,_STL::_Const_traits<_STL::pair<_STL::basic_string<char,_STL::char_traits<char>,_STL::allocator<char> > const ,_STL::basic_string<char,_STL::char_traits<char>,_STL::allocator<char> > > > >::_Rb_tree_iterator<_STL::pair<_STL::basic_string<char,_STL::char_traits<char>,_STL::allocator<char> > const ,_STL::basic_string<char,_STL::char_traits<char>,_STL::allocator<char> > >,_STL::_Const_traits<_STL::pair<_STL::basic_string<char,_STL::char_traits<char>,_STL::allocator<char> > const ,_STL::basic_string<char,_STL::char_traits<char>,_STL::allocator<char> > > > >(_STL::_Rb_tree_iterator<_STL::pair<_STL::basic_string<char,_STL::char_traits<char>,_STL::allocator<char> > const ,_STL::basic_string<char,_STL::char_traits<char>,_STL::allocator<char> > >,_STL::_Nonconst_traits<_STL::pair<_STL::basic_string<char,_STL::char_traits<char>,_STL::allocator<char> > const ,_STL::basic_string<char,_STL::char_traits<char>,_STL::allocator<char> > > > > const &)
PUBLIC 10070 0 _STL::_Rb_tree_iterator<_STL::pair<_STL::basic_string<char,_STL::char_traits<char>,_STL::allocator<char> > const ,_STL::basic_string<char,_STL::char_traits<char>,_STL::allocator<char> > >,_STL::_Const_traits<_STL::pair<_STL::basic_string<char,_STL::char_traits<char>,_STL::allocator<char> > const ,_STL::basic_string<char,_STL::char_traits<char>,_STL::allocator<char> > > > >::operator++()
PUBLIC 10090 0 _STL::pair<_STL::basic_string<char,_STL::char_traits<char>,_STL::allocator<char> > const ,_STL::basic_string<char,_STL::char_traits<char>,_STL::allocator<char> > >::~pair<_STL::basic_string<char,_STL::char_traits<char>,_STL::allocator<char> > const ,_STL::basic_string<char,_STL::char_traits<char>,_STL::allocator<char> > >()
PUBLIC 100e0 0 _STL::allocator<_STL::pair<_STL::basic_string<char,_STL::char_traits<char>,_STL::allocator<char> > const ,boost::shared_ptr<KeyDataInfo> > >::allocator<_STL::pair<_STL::basic_string<char,_STL::char_traits<char>,_STL::allocator<char> > const ,boost::shared_ptr<KeyDataInfo> > >()
PUBLIC 100f0 0 _STL::allocator<_STL::pair<_STL::basic_string<char,_STL::char_traits<char>,_STL::allocator<char> > const ,boost::shared_ptr<KeyDataInfo> > >::~allocator<_STL::pair<_STL::basic_string<char,_STL::char_traits<char>,_STL::allocator<char> > const ,boost::shared_ptr<KeyDataInfo> > >()
PUBLIC 10100 0 _STL::allocator<_STL::pair<_STL::basic_string<char,_STL::char_traits<char>,_STL::allocator<char> > const ,boost::shared_ptr<TAKeyInfo> > >::allocator<_STL::pair<_STL::basic_string<char,_STL::char_traits<char>,_STL::allocator<char> > const ,boost::shared_ptr<TAKeyInfo> > >()
PUBLIC 10110 0 _STL::allocator<_STL::pair<_STL::basic_string<char,_STL::char_traits<char>,_STL::allocator<char> > const ,boost::shared_ptr<TAKeyInfo> > >::~allocator<_STL::pair<_STL::basic_string<char,_STL::char_traits<char>,_STL::allocator<char> > const ,boost::shared_ptr<TAKeyInfo> > >()
PUBLIC 10120 0 _STL::allocator<_STL::pair<_STL::basic_string<char,_STL::char_traits<char>,_STL::allocator<char> > const ,_STL::basic_string<char,_STL::char_traits<char>,_STL::allocator<char> > > >::allocator<_STL::pair<_STL::basic_string<char,_STL::char_traits<char>,_STL::allocator<char> > const ,_STL::basic_string<char,_STL::char_traits<char>,_STL::allocator<char> > > >()
PUBLIC 10130 0 _STL::allocator<_STL::pair<_STL::basic_string<char,_STL::char_traits<char>,_STL::allocator<char> > const ,_STL::basic_string<char,_STL::char_traits<char>,_STL::allocator<char> > > >::~allocator<_STL::pair<_STL::basic_string<char,_STL::char_traits<char>,_STL::allocator<char> > const ,_STL::basic_string<char,_STL::char_traits<char>,_STL::allocator<char> > > >()
PUBLIC 10140 0 CryptoPP::AllocatorWithCleanup<unsigned char>::deallocate(void *,unsigned int)
PUBLIC 10170 0 _STL::_Rb_tree_iterator<_STL::pair<_STL::basic_string<char,_STL::char_traits<char>,_STL::allocator<char> > const ,boost::shared_ptr<TAKeyInfo> >,_STL::_Const_traits<_STL::pair<_STL::basic_string<char,_STL::char_traits<char>,_STL::allocator<char> > const ,boost::shared_ptr<TAKeyInfo> > > >::operator*()
PUBLIC 10180 0 _STL::_Rb_tree_iterator<_STL::pair<_STL::basic_string<char,_STL::char_traits<char>,_STL::allocator<char> > const ,boost::shared_ptr<TAKeyInfo> >,_STL::_Nonconst_traits<_STL::pair<_STL::basic_string<char,_STL::char_traits<char>,_STL::allocator<char> > const ,boost::shared_ptr<TAKeyInfo> > > >::_Rb_tree_iterator<_STL::pair<_STL::basic_string<char,_STL::char_traits<char>,_STL::allocator<char> > const ,boost::shared_ptr<TAKeyInfo> >,_STL::_Nonconst_traits<_STL::pair<_STL::basic_string<char,_STL::char_traits<char>,_STL::allocator<char> > const ,boost::shared_ptr<TAKeyInfo> > > >(_STL::_Rb_tree_iterator<_STL::pair<_STL::basic_string<char,_STL::char_traits<char>,_STL::allocator<char> > const ,boost::shared_ptr<TAKeyInfo> >,_STL::_Nonconst_traits<_STL::pair<_STL::basic_string<char,_STL::char_traits<char>,_STL::allocator<char> > const ,boost::shared_ptr<TAKeyInfo> > > > const &)
PUBLIC 10190 0 _STL::_Rb_tree_iterator<_STL::pair<_STL::basic_string<char,_STL::char_traits<char>,_STL::allocator<char> > const ,boost::shared_ptr<TAKeyInfo> >,_STL::_Nonconst_traits<_STL::pair<_STL::basic_string<char,_STL::char_traits<char>,_STL::allocator<char> > const ,boost::shared_ptr<TAKeyInfo> > > >::operator*()
PUBLIC 101a0 0 _STL::_Rb_tree_iterator<_STL::pair<_STL::basic_string<char,_STL::char_traits<char>,_STL::allocator<char> > const ,boost::shared_ptr<KeyDataInfo> >,_STL::_Nonconst_traits<_STL::pair<_STL::basic_string<char,_STL::char_traits<char>,_STL::allocator<char> > const ,boost::shared_ptr<KeyDataInfo> > > >::_Rb_tree_iterator<_STL::pair<_STL::basic_string<char,_STL::char_traits<char>,_STL::allocator<char> > const ,boost::shared_ptr<KeyDataInfo> >,_STL::_Nonconst_traits<_STL::pair<_STL::basic_string<char,_STL::char_traits<char>,_STL::allocator<char> > const ,boost::shared_ptr<KeyDataInfo> > > >(_STL::_Rb_tree_iterator<_STL::pair<_STL::basic_string<char,_STL::char_traits<char>,_STL::allocator<char> > const ,boost::shared_ptr<KeyDataInfo> >,_STL::_Nonconst_traits<_STL::pair<_STL::basic_string<char,_STL::char_traits<char>,_STL::allocator<char> > const ,boost::shared_ptr<KeyDataInfo> > > > const &)
PUBLIC 101b0 0 _STL::_Rb_tree_iterator<_STL::pair<_STL::basic_string<char,_STL::char_traits<char>,_STL::allocator<char> > const ,boost::shared_ptr<KeyDataInfo> >,_STL::_Nonconst_traits<_STL::pair<_STL::basic_string<char,_STL::char_traits<char>,_STL::allocator<char> > const ,boost::shared_ptr<KeyDataInfo> > > >::operator*()
PUBLIC 101c0 0 _STL::_Rb_tree_iterator<_STL::pair<_STL::basic_string<char,_STL::char_traits<char>,_STL::allocator<char> > const ,boost::shared_ptr<KeyDataInfo> >,_STL::_Const_traits<_STL::pair<_STL::basic_string<char,_STL::char_traits<char>,_STL::allocator<char> > const ,boost::shared_ptr<KeyDataInfo> > > >::operator*()
PUBLIC 101d0 0 _STL::_Rb_tree_iterator<_STL::pair<_STL::basic_string<char,_STL::char_traits<char>,_STL::allocator<char> > const ,_STL::basic_string<char,_STL::char_traits<char>,_STL::allocator<char> > >,_STL::_Nonconst_traits<_STL::pair<_STL::basic_string<char,_STL::char_traits<char>,_STL::allocator<char> > const ,_STL::basic_string<char,_STL::char_traits<char>,_STL::allocator<char> > > > >::_Rb_tree_iterator<_STL::pair<_STL::basic_string<char,_STL::char_traits<char>,_STL::allocator<char> > const ,_STL::basic_string<char,_STL::char_traits<char>,_STL::allocator<char> > >,_STL::_Nonconst_traits<_STL::pair<_STL::basic_string<char,_STL::char_traits<char>,_STL::allocator<char> > const ,_STL::basic_string<char,_STL::char_traits<char>,_STL::allocator<char> > > > >(_STL::_Rb_tree_iterator<_STL::pair<_STL::basic_string<char,_STL::char_traits<char>,_STL::allocator<char> > const ,_STL::basic_string<char,_STL::char_traits<char>,_STL::allocator<char> > >,_STL::_Nonconst_traits<_STL::pair<_STL::basic_string<char,_STL::char_traits<char>,_STL::allocator<char> > const ,_STL::basic_string<char,_STL::char_traits<char>,_STL::allocator<char> > > > > const &)
PUBLIC 101e0 0 _STL::_Rb_tree_iterator<_STL::pair<_STL::basic_string<char,_STL::char_traits<char>,_STL::allocator<char> > const ,_STL::basic_string<char,_STL::char_traits<char>,_STL::allocator<char> > >,_STL::_Nonconst_traits<_STL::pair<_STL::basic_string<char,_STL::char_traits<char>,_STL::allocator<char> > const ,_STL::basic_string<char,_STL::char_traits<char>,_STL::allocator<char> > > > >::operator*()
PUBLIC 101f0 0 boost::iterator_facade<boost::token_iterator<boost::escaped_list_separator<char,_STL::char_traits<char> >,char const *,_STL::basic_string<char,_STL::char_traits<char>,_STL::allocator<char> > >,_STL::basic_string<char,_STL::char_traits<char>,_STL::allocator<char> >,boost::forward_traversal_tag,_STL::basic_string<char,_STL::char_traits<char>,_STL::allocator<char> > const &,int>::derived()
PUBLIC 10200 0 boost::iterator_facade<boost::token_iterator<boost::escaped_list_separator<char,_STL::char_traits<char> >,char const *,_STL::basic_string<char,_STL::char_traits<char>,_STL::allocator<char> > >,_STL::basic_string<char,_STL::char_traits<char>,_STL::allocator<char> >,boost::forward_traversal_tag,_STL::basic_string<char,_STL::char_traits<char>,_STL::allocator<char> > const &,int>::derived()
PUBLIC 10210 0 _STL::_Rb_tree_iterator<_STL::pair<_STL::basic_string<char,_STL::char_traits<char>,_STL::allocator<char> > const ,_STL::basic_string<char,_STL::char_traits<char>,_STL::allocator<char> > >,_STL::_Const_traits<_STL::pair<_STL::basic_string<char,_STL::char_traits<char>,_STL::allocator<char> > const ,_STL::basic_string<char,_STL::char_traits<char>,_STL::allocator<char> > > > >::operator*()
PUBLIC 10220 0 _STL::pair<_STL::basic_string<char,_STL::char_traits<char>,_STL::allocator<char> > const ,_STL::basic_string<char,_STL::char_traits<char>,_STL::allocator<char> > >::pair<_STL::basic_string<char,_STL::char_traits<char>,_STL::allocator<char> > const ,_STL::basic_string<char,_STL::char_traits<char>,_STL::allocator<char> > >(_STL::basic_string<char,_STL::char_traits<char>,_STL::allocator<char> > const &,_STL::basic_string<char,_STL::char_traits<char>,_STL::allocator<char> > const &)
PUBLIC 10280 0 _STL::_Rb_tree<_STL::basic_string<char,_STL::char_traits<char>,_STL::allocator<char> >,_STL::pair<_STL::basic_string<char,_STL::char_traits<char>,_STL::allocator<char> > const ,boost::shared_ptr<KeyDataInfo> >,_STL::_Select1st<_STL::pair<_STL::basic_string<char,_STL::char_traits<char>,_STL::allocator<char> > const ,boost::shared_ptr<KeyDataInfo> > >,_STL::less<_STL::basic_string<char,_STL::char_traits<char>,_STL::allocator<char> > >,_STL::allocator<_STL::pair<_STL::basic_string<char,_STL::char_traits<char>,_STL::allocator<char> > const ,boost::shared_ptr<KeyDataInfo> > > >::_M_root()
PUBLIC 10290 0 _STL::_Rb_tree<_STL::basic_string<char,_STL::char_traits<char>,_STL::allocator<char> >,_STL::pair<_STL::basic_string<char,_STL::char_traits<char>,_STL::allocator<char> > const ,boost::shared_ptr<KeyDataInfo> >,_STL::_Select1st<_STL::pair<_STL::basic_string<char,_STL::char_traits<char>,_STL::allocator<char> > const ,boost::shared_ptr<KeyDataInfo> > >,_STL::less<_STL::basic_string<char,_STL::char_traits<char>,_STL::allocator<char> > >,_STL::allocator<_STL::pair<_STL::basic_string<char,_STL::char_traits<char>,_STL::allocator<char> > const ,boost::shared_ptr<KeyDataInfo> > > >::_M_leftmost()
PUBLIC 102a0 0 _STL::_Rb_tree<_STL::basic_string<char,_STL::char_traits<char>,_STL::allocator<char> >,_STL::pair<_STL::basic_string<char,_STL::char_traits<char>,_STL::allocator<char> > const ,boost::shared_ptr<KeyDataInfo> >,_STL::_Select1st<_STL::pair<_STL::basic_string<char,_STL::char_traits<char>,_STL::allocator<char> > const ,boost::shared_ptr<KeyDataInfo> > >,_STL::less<_STL::basic_string<char,_STL::char_traits<char>,_STL::allocator<char> > >,_STL::allocator<_STL::pair<_STL::basic_string<char,_STL::char_traits<char>,_STL::allocator<char> > const ,boost::shared_ptr<KeyDataInfo> > > >::_M_rightmost()
PUBLIC 102b0 0 _STL::_Rb_tree<_STL::basic_string<char,_STL::char_traits<char>,_STL::allocator<char> >,_STL::pair<_STL::basic_string<char,_STL::char_traits<char>,_STL::allocator<char> > const ,boost::shared_ptr<KeyDataInfo> >,_STL::_Select1st<_STL::pair<_STL::basic_string<char,_STL::char_traits<char>,_STL::allocator<char> > const ,boost::shared_ptr<KeyDataInfo> > >,_STL::less<_STL::basic_string<char,_STL::char_traits<char>,_STL::allocator<char> > >,_STL::allocator<_STL::pair<_STL::basic_string<char,_STL::char_traits<char>,_STL::allocator<char> > const ,boost::shared_ptr<KeyDataInfo> > > >::key_comp()
PUBLIC 102c0 0 _STL::allocator<_STL::_Rb_tree_node<_STL::pair<_STL::basic_string<char,_STL::char_traits<char>,_STL::allocator<char> > const ,boost::shared_ptr<KeyDataInfo> > > >::~allocator<_STL::_Rb_tree_node<_STL::pair<_STL::basic_string<char,_STL::char_traits<char>,_STL::allocator<char> > const ,boost::shared_ptr<KeyDataInfo> > > >()
PUBLIC 102d0 0 _STL::allocator<_STL::_Rb_tree_node<_STL::pair<_STL::basic_string<char,_STL::char_traits<char>,_STL::allocator<char> > const ,boost::shared_ptr<KeyDataInfo> > > >::deallocate(_STL::_Rb_tree_node<_STL::pair<_STL::basic_string<char,_STL::char_traits<char>,_STL::allocator<char> > const ,boost::shared_ptr<KeyDataInfo> > > *,unsigned int)
PUBLIC 102f0 0 _STL::_Rb_tree<_STL::basic_string<char,_STL::char_traits<char>,_STL::allocator<char> >,_STL::pair<_STL::basic_string<char,_STL::char_traits<char>,_STL::allocator<char> > const ,boost::shared_ptr<TAKeyInfo> >,_STL::_Select1st<_STL::pair<_STL::basic_string<char,_STL::char_traits<char>,_STL::allocator<char> > const ,boost::shared_ptr<TAKeyInfo> > >,_STL::less<_STL::basic_string<char,_STL::char_traits<char>,_STL::allocator<char> > >,_STL::allocator<_STL::pair<_STL::basic_string<char,_STL::char_traits<char>,_STL::allocator<char> > const ,boost::shared_ptr<TAKeyInfo> > > >::_M_root()
PUBLIC 10300 0 _STL::_Rb_tree<_STL::basic_string<char,_STL::char_traits<char>,_STL::allocator<char> >,_STL::pair<_STL::basic_string<char,_STL::char_traits<char>,_STL::allocator<char> > const ,boost::shared_ptr<TAKeyInfo> >,_STL::_Select1st<_STL::pair<_STL::basic_string<char,_STL::char_traits<char>,_STL::allocator<char> > const ,boost::shared_ptr<TAKeyInfo> > >,_STL::less<_STL::basic_string<char,_STL::char_traits<char>,_STL::allocator<char> > >,_STL::allocator<_STL::pair<_STL::basic_string<char,_STL::char_traits<char>,_STL::allocator<char> > const ,boost::shared_ptr<TAKeyInfo> > > >::_M_leftmost()
PUBLIC 10310 0 _STL::_Rb_tree<_STL::basic_string<char,_STL::char_traits<char>,_STL::allocator<char> >,_STL::pair<_STL::basic_string<char,_STL::char_traits<char>,_STL::allocator<char> > const ,boost::shared_ptr<TAKeyInfo> >,_STL::_Select1st<_STL::pair<_STL::basic_string<char,_STL::char_traits<char>,_STL::allocator<char> > const ,boost::shared_ptr<TAKeyInfo> > >,_STL::less<_STL::basic_string<char,_STL::char_traits<char>,_STL::allocator<char> > >,_STL::allocator<_STL::pair<_STL::basic_string<char,_STL::char_traits<char>,_STL::allocator<char> > const ,boost::shared_ptr<TAKeyInfo> > > >::_M_rightmost()
PUBLIC 10320 0 _STL::_Rb_tree<_STL::basic_string<char,_STL::char_traits<char>,_STL::allocator<char> >,_STL::pair<_STL::basic_string<char,_STL::char_traits<char>,_STL::allocator<char> > const ,boost::shared_ptr<TAKeyInfo> >,_STL::_Select1st<_STL::pair<_STL::basic_string<char,_STL::char_traits<char>,_STL::allocator<char> > const ,boost::shared_ptr<TAKeyInfo> > >,_STL::less<_STL::basic_string<char,_STL::char_traits<char>,_STL::allocator<char> > >,_STL::allocator<_STL::pair<_STL::basic_string<char,_STL::char_traits<char>,_STL::allocator<char> > const ,boost::shared_ptr<TAKeyInfo> > > >::key_comp()
PUBLIC 10330 0 _STL::allocator<_STL::_Rb_tree_node<_STL::pair<_STL::basic_string<char,_STL::char_traits<char>,_STL::allocator<char> > const ,boost::shared_ptr<TAKeyInfo> > > >::~allocator<_STL::_Rb_tree_node<_STL::pair<_STL::basic_string<char,_STL::char_traits<char>,_STL::allocator<char> > const ,boost::shared_ptr<TAKeyInfo> > > >()
PUBLIC 10340 0 _STL::allocator<_STL::_Rb_tree_node<_STL::pair<_STL::basic_string<char,_STL::char_traits<char>,_STL::allocator<char> > const ,boost::shared_ptr<TAKeyInfo> > > >::deallocate(_STL::_Rb_tree_node<_STL::pair<_STL::basic_string<char,_STL::char_traits<char>,_STL::allocator<char> > const ,boost::shared_ptr<TAKeyInfo> > > *,unsigned int)
PUBLIC 10360 0 _STL::_Rb_tree<_STL::basic_string<char,_STL::char_traits<char>,_STL::allocator<char> >,_STL::pair<_STL::basic_string<char,_STL::char_traits<char>,_STL::allocator<char> > const ,_STL::basic_string<char,_STL::char_traits<char>,_STL::allocator<char> > >,_STL::_Select1st<_STL::pair<_STL::basic_string<char,_STL::char_traits<char>,_STL::allocator<char> > const ,_STL::basic_string<char,_STL::char_traits<char>,_STL::allocator<char> > > >,_STL::less<_STL::basic_string<char,_STL::char_traits<char>,_STL::allocator<char> > >,_STL::allocator<_STL::pair<_STL::basic_string<char,_STL::char_traits<char>,_STL::allocator<char> > const ,_STL::basic_string<char,_STL::char_traits<char>,_STL::allocator<char> > > > >::_M_root()
PUBLIC 10370 0 _STL::_Rb_tree<_STL::basic_string<char,_STL::char_traits<char>,_STL::allocator<char> >,_STL::pair<_STL::basic_string<char,_STL::char_traits<char>,_STL::allocator<char> > const ,_STL::basic_string<char,_STL::char_traits<char>,_STL::allocator<char> > >,_STL::_Select1st<_STL::pair<_STL::basic_string<char,_STL::char_traits<char>,_STL::allocator<char> > const ,_STL::basic_string<char,_STL::char_traits<char>,_STL::allocator<char> > > >,_STL::less<_STL::basic_string<char,_STL::char_traits<char>,_STL::allocator<char> > >,_STL::allocator<_STL::pair<_STL::basic_string<char,_STL::char_traits<char>,_STL::allocator<char> > const ,_STL::basic_string<char,_STL::char_traits<char>,_STL::allocator<char> > > > >::_M_leftmost()
PUBLIC 10380 0 _STL::_Rb_tree<_STL::basic_string<char,_STL::char_traits<char>,_STL::allocator<char> >,_STL::pair<_STL::basic_string<char,_STL::char_traits<char>,_STL::allocator<char> > const ,_STL::basic_string<char,_STL::char_traits<char>,_STL::allocator<char> > >,_STL::_Select1st<_STL::pair<_STL::basic_string<char,_STL::char_traits<char>,_STL::allocator<char> > const ,_STL::basic_string<char,_STL::char_traits<char>,_STL::allocator<char> > > >,_STL::less<_STL::basic_string<char,_STL::char_traits<char>,_STL::allocator<char> > >,_STL::allocator<_STL::pair<_STL::basic_string<char,_STL::char_traits<char>,_STL::allocator<char> > const ,_STL::basic_string<char,_STL::char_traits<char>,_STL::allocator<char> > > > >::_M_rightmost()
PUBLIC 10390 0 _STL::_Rb_tree<_STL::basic_string<char,_STL::char_traits<char>,_STL::allocator<char> >,_STL::pair<_STL::basic_string<char,_STL::char_traits<char>,_STL::allocator<char> > const ,_STL::basic_string<char,_STL::char_traits<char>,_STL::allocator<char> > >,_STL::_Select1st<_STL::pair<_STL::basic_string<char,_STL::char_traits<char>,_STL::allocator<char> > const ,_STL::basic_string<char,_STL::char_traits<char>,_STL::allocator<char> > > >,_STL::less<_STL::basic_string<char,_STL::char_traits<char>,_STL::allocator<char> > >,_STL::allocator<_STL::pair<_STL::basic_string<char,_STL::char_traits<char>,_STL::allocator<char> > const ,_STL::basic_string<char,_STL::char_traits<char>,_STL::allocator<char> > > > >::key_comp()
PUBLIC 103a0 0 _STL::allocator<_STL::_Rb_tree_node<_STL::pair<_STL::basic_string<char,_STL::char_traits<char>,_STL::allocator<char> > const ,_STL::basic_string<char,_STL::char_traits<char>,_STL::allocator<char> > > > >::~allocator<_STL::_Rb_tree_node<_STL::pair<_STL::basic_string<char,_STL::char_traits<char>,_STL::allocator<char> > const ,_STL::basic_string<char,_STL::char_traits<char>,_STL::allocator<char> > > > >()
PUBLIC 103b0 0 _STL::allocator<_STL::_Rb_tree_node<_STL::pair<_STL::basic_string<char,_STL::char_traits<char>,_STL::allocator<char> > const ,_STL::basic_string<char,_STL::char_traits<char>,_STL::allocator<char> > > > >::deallocate(_STL::_Rb_tree_node<_STL::pair<_STL::basic_string<char,_STL::char_traits<char>,_STL::allocator<char> > const ,_STL::basic_string<char,_STL::char_traits<char>,_STL::allocator<char> > > > *,unsigned int)
PUBLIC 103d0 0 CryptoPP::AllocatorBase<unsigned char>::CheckSize(unsigned int)
PUBLIC 10450 0 _STL::_Rb_tree_iterator<_STL::pair<_STL::basic_string<char,_STL::char_traits<char>,_STL::allocator<char> > const ,boost::shared_ptr<TAKeyInfo> >,_STL::_Nonconst_traits<_STL::pair<_STL::basic_string<char,_STL::char_traits<char>,_STL::allocator<char> > const ,boost::shared_ptr<TAKeyInfo> > > >::_Rb_tree_iterator<_STL::pair<_STL::basic_string<char,_STL::char_traits<char>,_STL::allocator<char> > const ,boost::shared_ptr<TAKeyInfo> >,_STL::_Nonconst_traits<_STL::pair<_STL::basic_string<char,_STL::char_traits<char>,_STL::allocator<char> > const ,boost::shared_ptr<TAKeyInfo> > > >(_STL::_Rb_tree_node<_STL::pair<_STL::basic_string<char,_STL::char_traits<char>,_STL::allocator<char> > const ,boost::shared_ptr<TAKeyInfo> > > *)
PUBLIC 10460 0 _STL::_Rb_tree_iterator<_STL::pair<_STL::basic_string<char,_STL::char_traits<char>,_STL::allocator<char> > const ,boost::shared_ptr<KeyDataInfo> >,_STL::_Nonconst_traits<_STL::pair<_STL::basic_string<char,_STL::char_traits<char>,_STL::allocator<char> > const ,boost::shared_ptr<KeyDataInfo> > > >::_Rb_tree_iterator<_STL::pair<_STL::basic_string<char,_STL::char_traits<char>,_STL::allocator<char> > const ,boost::shared_ptr<KeyDataInfo> >,_STL::_Nonconst_traits<_STL::pair<_STL::basic_string<char,_STL::char_traits<char>,_STL::allocator<char> > const ,boost::shared_ptr<KeyDataInfo> > > >(_STL::_Rb_tree_node<_STL::pair<_STL::basic_string<char,_STL::char_traits<char>,_STL::allocator<char> > const ,boost::shared_ptr<KeyDataInfo> > > *)
PUBLIC 10470 0 _STL::_Rb_tree_iterator<_STL::pair<_STL::basic_string<char,_STL::char_traits<char>,_STL::allocator<char> > const ,boost::shared_ptr<KeyDataInfo> >,_STL::_Const_traits<_STL::pair<_STL::basic_string<char,_STL::char_traits<char>,_STL::allocator<char> > const ,boost::shared_ptr<KeyDataInfo> > > >::_Rb_tree_iterator<_STL::pair<_STL::basic_string<char,_STL::char_traits<char>,_STL::allocator<char> > const ,boost::shared_ptr<KeyDataInfo> >,_STL::_Const_traits<_STL::pair<_STL::basic_string<char,_STL::char_traits<char>,_STL::allocator<char> > const ,boost::shared_ptr<KeyDataInfo> > > >(_STL::_Rb_tree_node<_STL::pair<_STL::basic_string<char,_STL::char_traits<char>,_STL::allocator<char> > const ,boost::shared_ptr<KeyDataInfo> > > *)
PUBLIC 10480 0 _STL::_Rb_tree_iterator<_STL::pair<_STL::basic_string<char,_STL::char_traits<char>,_STL::allocator<char> > const ,_STL::basic_string<char,_STL::char_traits<char>,_STL::allocator<char> > >,_STL::_Nonconst_traits<_STL::pair<_STL::basic_string<char,_STL::char_traits<char>,_STL::allocator<char> > const ,_STL::basic_string<char,_STL::char_traits<char>,_STL::allocator<char> > > > >::_Rb_tree_iterator<_STL::pair<_STL::basic_string<char,_STL::char_traits<char>,_STL::allocator<char> > const ,_STL::basic_string<char,_STL::char_traits<char>,_STL::allocator<char> > >,_STL::_Nonconst_traits<_STL::pair<_STL::basic_string<char,_STL::char_traits<char>,_STL::allocator<char> > const ,_STL::basic_string<char,_STL::char_traits<char>,_STL::allocator<char> > > > >(_STL::_Rb_tree_node<_STL::pair<_STL::basic_string<char,_STL::char_traits<char>,_STL::allocator<char> > const ,_STL::basic_string<char,_STL::char_traits<char>,_STL::allocator<char> > > > *)
PUBLIC 10490 0 _STL::_Rb_tree<_STL::basic_string<char,_STL::char_traits<char>,_STL::allocator<char> >,_STL::pair<_STL::basic_string<char,_STL::char_traits<char>,_STL::allocator<char> > const ,boost::shared_ptr<KeyDataInfo> >,_STL::_Select1st<_STL::pair<_STL::basic_string<char,_STL::char_traits<char>,_STL::allocator<char> > const ,boost::shared_ptr<KeyDataInfo> > >,_STL::less<_STL::basic_string<char,_STL::char_traits<char>,_STL::allocator<char> > >,_STL::allocator<_STL::pair<_STL::basic_string<char,_STL::char_traits<char>,_STL::allocator<char> > const ,boost::shared_ptr<KeyDataInfo> > > >::_S_color(_STL::_Rb_tree_node<_STL::pair<_STL::basic_string<char,_STL::char_traits<char>,_STL::allocator<char> > const ,boost::shared_ptr<KeyDataInfo> > > *)
PUBLIC 104a0 0 _STL::allocator<_STL::_Rb_tree_node<_STL::pair<_STL::basic_string<char,_STL::char_traits<char>,_STL::allocator<char> > const ,boost::shared_ptr<KeyDataInfo> > > >::allocate(unsigned int,void const *)
PUBLIC 104c0 0 _STL::_Rb_tree<_STL::basic_string<char,_STL::char_traits<char>,_STL::allocator<char> >,_STL::pair<_STL::basic_string<char,_STL::char_traits<char>,_STL::allocator<char> > const ,boost::shared_ptr<TAKeyInfo> >,_STL::_Select1st<_STL::pair<_STL::basic_string<char,_STL::char_traits<char>,_STL::allocator<char> > const ,boost::shared_ptr<TAKeyInfo> > >,_STL::less<_STL::basic_string<char,_STL::char_traits<char>,_STL::allocator<char> > >,_STL::allocator<_STL::pair<_STL::basic_string<char,_STL::char_traits<char>,_STL::allocator<char> > const ,boost::shared_ptr<TAKeyInfo> > > >::_S_color(_STL::_Rb_tree_node<_STL::pair<_STL::basic_string<char,_STL::char_traits<char>,_STL::allocator<char> > const ,boost::shared_ptr<TAKeyInfo> > > *)
PUBLIC 104d0 0 _STL::allocator<_STL::_Rb_tree_node<_STL::pair<_STL::basic_string<char,_STL::char_traits<char>,_STL::allocator<char> > const ,boost::shared_ptr<TAKeyInfo> > > >::allocate(unsigned int,void const *)
PUBLIC 104f0 0 _STL::_Rb_tree<_STL::basic_string<char,_STL::char_traits<char>,_STL::allocator<char> >,_STL::pair<_STL::basic_string<char,_STL::char_traits<char>,_STL::allocator<char> > const ,_STL::basic_string<char,_STL::char_traits<char>,_STL::allocator<char> > >,_STL::_Select1st<_STL::pair<_STL::basic_string<char,_STL::char_traits<char>,_STL::allocator<char> > const ,_STL::basic_string<char,_STL::char_traits<char>,_STL::allocator<char> > > >,_STL::less<_STL::basic_string<char,_STL::char_traits<char>,_STL::allocator<char> > >,_STL::allocator<_STL::pair<_STL::basic_string<char,_STL::char_traits<char>,_STL::allocator<char> > const ,_STL::basic_string<char,_STL::char_traits<char>,_STL::allocator<char> > > > >::_S_color(_STL::_Rb_tree_node<_STL::pair<_STL::basic_string<char,_STL::char_traits<char>,_STL::allocator<char> > const ,_STL::basic_string<char,_STL::char_traits<char>,_STL::allocator<char> > > > *)
PUBLIC 10500 0 _STL::allocator<_STL::_Rb_tree_node<_STL::pair<_STL::basic_string<char,_STL::char_traits<char>,_STL::allocator<char> > const ,_STL::basic_string<char,_STL::char_traits<char>,_STL::allocator<char> > > > >::allocate(unsigned int,void const *)
PUBLIC 10520 0 boost::escaped_list_separator<char,_STL::char_traits<char> >::reset()
PUBLIC 10530 0 _STL::_Rb_tree<_STL::basic_string<char,_STL::char_traits<char>,_STL::allocator<char> >,_STL::pair<_STL::basic_string<char,_STL::char_traits<char>,_STL::allocator<char> > const ,boost::shared_ptr<KeyDataInfo> >,_STL::_Select1st<_STL::pair<_STL::basic_string<char,_STL::char_traits<char>,_STL::allocator<char> > const ,boost::shared_ptr<KeyDataInfo> > >,_STL::less<_STL::basic_string<char,_STL::char_traits<char>,_STL::allocator<char> > >,_STL::allocator<_STL::pair<_STL::basic_string<char,_STL::char_traits<char>,_STL::allocator<char> > const ,boost::shared_ptr<KeyDataInfo> > > >::_S_left(_STL::_Rb_tree_node<_STL::pair<_STL::basic_string<char,_STL::char_traits<char>,_STL::allocator<char> > const ,boost::shared_ptr<KeyDataInfo> > > *)
PUBLIC 10540 0 _STL::_Rb_tree<_STL::basic_string<char,_STL::char_traits<char>,_STL::allocator<char> >,_STL::pair<_STL::basic_string<char,_STL::char_traits<char>,_STL::allocator<char> > const ,boost::shared_ptr<KeyDataInfo> >,_STL::_Select1st<_STL::pair<_STL::basic_string<char,_STL::char_traits<char>,_STL::allocator<char> > const ,boost::shared_ptr<KeyDataInfo> > >,_STL::less<_STL::basic_string<char,_STL::char_traits<char>,_STL::allocator<char> > >,_STL::allocator<_STL::pair<_STL::basic_string<char,_STL::char_traits<char>,_STL::allocator<char> > const ,boost::shared_ptr<KeyDataInfo> > > >::_S_right(_STL::_Rb_tree_node<_STL::pair<_STL::basic_string<char,_STL::char_traits<char>,_STL::allocator<char> > const ,boost::shared_ptr<KeyDataInfo> > > *)
PUBLIC 10550 0 _STL::allocator<_STL::_Rb_tree_node<_STL::pair<_STL::basic_string<char,_STL::char_traits<char>,_STL::allocator<char> > const ,boost::shared_ptr<KeyDataInfo> > > >::allocator<_STL::_Rb_tree_node<_STL::pair<_STL::basic_string<char,_STL::char_traits<char>,_STL::allocator<char> > const ,boost::shared_ptr<KeyDataInfo> > > >(_STL::allocator<_STL::_Rb_tree_node<_STL::pair<_STL::basic_string<char,_STL::char_traits<char>,_STL::allocator<char> > const ,boost::shared_ptr<KeyDataInfo> > > > const &)
PUBLIC 10560 0 _STL::_Rb_tree<_STL::basic_string<char,_STL::char_traits<char>,_STL::allocator<char> >,_STL::pair<_STL::basic_string<char,_STL::char_traits<char>,_STL::allocator<char> > const ,boost::shared_ptr<TAKeyInfo> >,_STL::_Select1st<_STL::pair<_STL::basic_string<char,_STL::char_traits<char>,_STL::allocator<char> > const ,boost::shared_ptr<TAKeyInfo> > >,_STL::less<_STL::basic_string<char,_STL::char_traits<char>,_STL::allocator<char> > >,_STL::allocator<_STL::pair<_STL::basic_string<char,_STL::char_traits<char>,_STL::allocator<char> > const ,boost::shared_ptr<TAKeyInfo> > > >::_S_left(_STL::_Rb_tree_node<_STL::pair<_STL::basic_string<char,_STL::char_traits<char>,_STL::allocator<char> > const ,boost::shared_ptr<TAKeyInfo> > > *)
PUBLIC 10570 0 _STL::_Rb_tree<_STL::basic_string<char,_STL::char_traits<char>,_STL::allocator<char> >,_STL::pair<_STL::basic_string<char,_STL::char_traits<char>,_STL::allocator<char> > const ,boost::shared_ptr<TAKeyInfo> >,_STL::_Select1st<_STL::pair<_STL::basic_string<char,_STL::char_traits<char>,_STL::allocator<char> > const ,boost::shared_ptr<TAKeyInfo> > >,_STL::less<_STL::basic_string<char,_STL::char_traits<char>,_STL::allocator<char> > >,_STL::allocator<_STL::pair<_STL::basic_string<char,_STL::char_traits<char>,_STL::allocator<char> > const ,boost::shared_ptr<TAKeyInfo> > > >::_S_right(_STL::_Rb_tree_node<_STL::pair<_STL::basic_string<char,_STL::char_traits<char>,_STL::allocator<char> > const ,boost::shared_ptr<TAKeyInfo> > > *)
PUBLIC 10580 0 _STL::allocator<_STL::_Rb_tree_node<_STL::pair<_STL::basic_string<char,_STL::char_traits<char>,_STL::allocator<char> > const ,boost::shared_ptr<TAKeyInfo> > > >::allocator<_STL::_Rb_tree_node<_STL::pair<_STL::basic_string<char,_STL::char_traits<char>,_STL::allocator<char> > const ,boost::shared_ptr<TAKeyInfo> > > >(_STL::allocator<_STL::_Rb_tree_node<_STL::pair<_STL::basic_string<char,_STL::char_traits<char>,_STL::allocator<char> > const ,boost::shared_ptr<TAKeyInfo> > > > const &)
PUBLIC 10590 0 _STL::_Rb_tree<_STL::basic_string<char,_STL::char_traits<char>,_STL::allocator<char> >,_STL::pair<_STL::basic_string<char,_STL::char_traits<char>,_STL::allocator<char> > const ,_STL::basic_string<char,_STL::char_traits<char>,_STL::allocator<char> > >,_STL::_Select1st<_STL::pair<_STL::basic_string<char,_STL::char_traits<char>,_STL::allocator<char> > const ,_STL::basic_string<char,_STL::char_traits<char>,_STL::allocator<char> > > >,_STL::less<_STL::basic_string<char,_STL::char_traits<char>,_STL::allocator<char> > >,_STL::allocator<_STL::pair<_STL::basic_string<char,_STL::char_traits<char>,_STL::allocator<char> > const ,_STL::basic_string<char,_STL::char_traits<char>,_STL::allocator<char> > > > >::_S_left(_STL::_Rb_tree_node<_STL::pair<_STL::basic_string<char,_STL::char_traits<char>,_STL::allocator<char> > const ,_STL::basic_string<char,_STL::char_traits<char>,_STL::allocator<char> > > > *)
PUBLIC 105a0 0 _STL::_Rb_tree<_STL::basic_string<char,_STL::char_traits<char>,_STL::allocator<char> >,_STL::pair<_STL::basic_string<char,_STL::char_traits<char>,_STL::allocator<char> > const ,_STL::basic_string<char,_STL::char_traits<char>,_STL::allocator<char> > >,_STL::_Select1st<_STL::pair<_STL::basic_string<char,_STL::char_traits<char>,_STL::allocator<char> > const ,_STL::basic_string<char,_STL::char_traits<char>,_STL::allocator<char> > > >,_STL::less<_STL::basic_string<char,_STL::char_traits<char>,_STL::allocator<char> > >,_STL::allocator<_STL::pair<_STL::basic_string<char,_STL::char_traits<char>,_STL::allocator<char> > const ,_STL::basic_string<char,_STL::char_traits<char>,_STL::allocator<char> > > > >::_S_right(_STL::_Rb_tree_node<_STL::pair<_STL::basic_string<char,_STL::char_traits<char>,_STL::allocator<char> > const ,_STL::basic_string<char,_STL::char_traits<char>,_STL::allocator<char> > > > *)
PUBLIC 105b0 0 _STL::allocator<_STL::_Rb_tree_node<_STL::pair<_STL::basic_string<char,_STL::char_traits<char>,_STL::allocator<char> > const ,_STL::basic_string<char,_STL::char_traits<char>,_STL::allocator<char> > > > >::allocator<_STL::_Rb_tree_node<_STL::pair<_STL::basic_string<char,_STL::char_traits<char>,_STL::allocator<char> > const ,_STL::basic_string<char,_STL::char_traits<char>,_STL::allocator<char> > > > >(_STL::allocator<_STL::_Rb_tree_node<_STL::pair<_STL::basic_string<char,_STL::char_traits<char>,_STL::allocator<char> > const ,_STL::basic_string<char,_STL::char_traits<char>,_STL::allocator<char> > > > > const &)
PUBLIC 105c0 0 _STL::_Rb_tree<_STL::basic_string<char,_STL::char_traits<char>,_STL::allocator<char> >,_STL::pair<_STL::basic_string<char,_STL::char_traits<char>,_STL::allocator<char> > const ,boost::shared_ptr<KeyDataInfo> >,_STL::_Select1st<_STL::pair<_STL::basic_string<char,_STL::char_traits<char>,_STL::allocator<char> > const ,boost::shared_ptr<KeyDataInfo> > >,_STL::less<_STL::basic_string<char,_STL::char_traits<char>,_STL::allocator<char> > >,_STL::allocator<_STL::pair<_STL::basic_string<char,_STL::char_traits<char>,_STL::allocator<char> > const ,boost::shared_ptr<KeyDataInfo> > > >::_S_value(_STL::_Rb_tree_node<_STL::pair<_STL::basic_string<char,_STL::char_traits<char>,_STL::allocator<char> > const ,boost::shared_ptr<KeyDataInfo> > > *)
PUBLIC 105d0 0 _STL::_Rb_tree<_STL::basic_string<char,_STL::char_traits<char>,_STL::allocator<char> >,_STL::pair<_STL::basic_string<char,_STL::char_traits<char>,_STL::allocator<char> > const ,boost::shared_ptr<TAKeyInfo> >,_STL::_Select1st<_STL::pair<_STL::basic_string<char,_STL::char_traits<char>,_STL::allocator<char> > const ,boost::shared_ptr<TAKeyInfo> > >,_STL::less<_STL::basic_string<char,_STL::char_traits<char>,_STL::allocator<char> > >,_STL::allocator<_STL::pair<_STL::basic_string<char,_STL::char_traits<char>,_STL::allocator<char> > const ,boost::shared_ptr<TAKeyInfo> > > >::_S_value(_STL::_Rb_tree_node<_STL::pair<_STL::basic_string<char,_STL::char_traits<char>,_STL::allocator<char> > const ,boost::shared_ptr<TAKeyInfo> > > *)
PUBLIC 105e0 0 _STL::_Rb_tree<_STL::basic_string<char,_STL::char_traits<char>,_STL::allocator<char> >,_STL::pair<_STL::basic_string<char,_STL::char_traits<char>,_STL::allocator<char> > const ,_STL::basic_string<char,_STL::char_traits<char>,_STL::allocator<char> > >,_STL::_Select1st<_STL::pair<_STL::basic_string<char,_STL::char_traits<char>,_STL::allocator<char> > const ,_STL::basic_string<char,_STL::char_traits<char>,_STL::allocator<char> > > >,_STL::less<_STL::basic_string<char,_STL::char_traits<char>,_STL::allocator<char> > >,_STL::allocator<_STL::pair<_STL::basic_string<char,_STL::char_traits<char>,_STL::allocator<char> > const ,_STL::basic_string<char,_STL::char_traits<char>,_STL::allocator<char> > > > >::_S_value(_STL::_Rb_tree_node<_STL::pair<_STL::basic_string<char,_STL::char_traits<char>,_STL::allocator<char> > const ,_STL::basic_string<char,_STL::char_traits<char>,_STL::allocator<char> > > > *)
PUBLIC 105f0 0 _STL::_Select1st<_STL::pair<_STL::basic_string<char,_STL::char_traits<char>,_STL::allocator<char> > const ,boost::shared_ptr<KeyDataInfo> > >::operator()(_STL::pair<_STL::basic_string<char,_STL::char_traits<char>,_STL::allocator<char> > const ,boost::shared_ptr<KeyDataInfo> > const &)
PUBLIC 10600 0 _STL::_Select1st<_STL::pair<_STL::basic_string<char,_STL::char_traits<char>,_STL::allocator<char> > const ,boost::shared_ptr<TAKeyInfo> > >::operator()(_STL::pair<_STL::basic_string<char,_STL::char_traits<char>,_STL::allocator<char> > const ,boost::shared_ptr<TAKeyInfo> > const &)
PUBLIC 10610 0 _STL::_Select1st<_STL::pair<_STL::basic_string<char,_STL::char_traits<char>,_STL::allocator<char> > const ,_STL::basic_string<char,_STL::char_traits<char>,_STL::allocator<char> > > >::operator()(_STL::pair<_STL::basic_string<char,_STL::char_traits<char>,_STL::allocator<char> > const ,_STL::basic_string<char,_STL::char_traits<char>,_STL::allocator<char> > > const &)
PUBLIC 10620 0 CryptoPP::member_ptr<CryptoPP::BufferedTransformation>::~member_ptr<CryptoPP::BufferedTransformation>()
PUBLIC 10630 0 CryptoPP::member_ptr<CryptoPP::HMAC<CryptoPP::SHA1> >::~member_ptr<CryptoPP::HMAC<CryptoPP::SHA1> >()
PUBLIC 10640 0 _STL::allocator<_STL::_Rb_tree_node<_STL::pair<_STL::basic_string<char,_STL::char_traits<char>,_STL::allocator<char> > const ,boost::shared_ptr<KeyDataInfo> > > >::allocator<_STL::_Rb_tree_node<_STL::pair<_STL::basic_string<char,_STL::char_traits<char>,_STL::allocator<char> > const ,boost::shared_ptr<KeyDataInfo> > > ><_STL::pair<_STL::basic_string<char,_STL::char_traits<char>,_STL::allocator<char> > const ,boost::shared_ptr<KeyDataInfo> > >(_STL::allocator<_STL::pair<_STL::basic_string<char,_STL::char_traits<char>,_STL::allocator<char> > const ,boost::shared_ptr<KeyDataInfo> > > const &)
PUBLIC 10650 0 _STL::allocator<_STL::_Rb_tree_node<_STL::pair<_STL::basic_string<char,_STL::char_traits<char>,_STL::allocator<char> > const ,boost::shared_ptr<TAKeyInfo> > > >::allocator<_STL::_Rb_tree_node<_STL::pair<_STL::basic_string<char,_STL::char_traits<char>,_STL::allocator<char> > const ,boost::shared_ptr<TAKeyInfo> > > ><_STL::pair<_STL::basic_string<char,_STL::char_traits<char>,_STL::allocator<char> > const ,boost::shared_ptr<TAKeyInfo> > >(_STL::allocator<_STL::pair<_STL::basic_string<char,_STL::char_traits<char>,_STL::allocator<char> > const ,boost::shared_ptr<TAKeyInfo> > > const &)
PUBLIC 10660 0 _STL::allocator<_STL::_Rb_tree_node<_STL::pair<_STL::basic_string<char,_STL::char_traits<char>,_STL::allocator<char> > const ,_STL::basic_string<char,_STL::char_traits<char>,_STL::allocator<char> > > > >::allocator<_STL::_Rb_tree_node<_STL::pair<_STL::basic_string<char,_STL::char_traits<char>,_STL::allocator<char> > const ,_STL::basic_string<char,_STL::char_traits<char>,_STL::allocator<char> > > > ><_STL::pair<_STL::basic_string<char,_STL::char_traits<char>,_STL::allocator<char> > const ,_STL::basic_string<char,_STL::char_traits<char>,_STL::allocator<char> > > >(_STL::allocator<_STL::pair<_STL::basic_string<char,_STL::char_traits<char>,_STL::allocator<char> > const ,_STL::basic_string<char,_STL::char_traits<char>,_STL::allocator<char> > > > const &)
PUBLIC 10670 0 _STL::_Rb_tree<_STL::basic_string<char,_STL::char_traits<char>,_STL::allocator<char> >,_STL::pair<_STL::basic_string<char,_STL::char_traits<char>,_STL::allocator<char> > const ,boost::shared_ptr<KeyDataInfo> >,_STL::_Select1st<_STL::pair<_STL::basic_string<char,_STL::char_traits<char>,_STL::allocator<char> > const ,boost::shared_ptr<KeyDataInfo> > >,_STL::less<_STL::basic_string<char,_STL::char_traits<char>,_STL::allocator<char> > >,_STL::allocator<_STL::pair<_STL::basic_string<char,_STL::char_traits<char>,_STL::allocator<char> > const ,boost::shared_ptr<KeyDataInfo> > > >::_S_right(_STL::_Rb_tree_node_base *)
PUBLIC 10680 0 _STL::_Rb_tree<_STL::basic_string<char,_STL::char_traits<char>,_STL::allocator<char> >,_STL::pair<_STL::basic_string<char,_STL::char_traits<char>,_STL::allocator<char> > const ,boost::shared_ptr<KeyDataInfo> >,_STL::_Select1st<_STL::pair<_STL::basic_string<char,_STL::char_traits<char>,_STL::allocator<char> > const ,boost::shared_ptr<KeyDataInfo> > >,_STL::less<_STL::basic_string<char,_STL::char_traits<char>,_STL::allocator<char> > >,_STL::allocator<_STL::pair<_STL::basic_string<char,_STL::char_traits<char>,_STL::allocator<char> > const ,boost::shared_ptr<KeyDataInfo> > > >::_S_key(_STL::_Rb_tree_node_base *)
PUBLIC 10690 0 _STL::_Rb_tree<_STL::basic_string<char,_STL::char_traits<char>,_STL::allocator<char> >,_STL::pair<_STL::basic_string<char,_STL::char_traits<char>,_STL::allocator<char> > const ,boost::shared_ptr<KeyDataInfo> >,_STL::_Select1st<_STL::pair<_STL::basic_string<char,_STL::char_traits<char>,_STL::allocator<char> > const ,boost::shared_ptr<KeyDataInfo> > >,_STL::less<_STL::basic_string<char,_STL::char_traits<char>,_STL::allocator<char> > >,_STL::allocator<_STL::pair<_STL::basic_string<char,_STL::char_traits<char>,_STL::allocator<char> > const ,boost::shared_ptr<KeyDataInfo> > > >::size()
PUBLIC 106a0 0 _STL::_Rb_tree<_STL::basic_string<char,_STL::char_traits<char>,_STL::allocator<char> >,_STL::pair<_STL::basic_string<char,_STL::char_traits<char>,_STL::allocator<char> > const ,boost::shared_ptr<TAKeyInfo> >,_STL::_Select1st<_STL::pair<_STL::basic_string<char,_STL::char_traits<char>,_STL::allocator<char> > const ,boost::shared_ptr<TAKeyInfo> > >,_STL::less<_STL::basic_string<char,_STL::char_traits<char>,_STL::allocator<char> > >,_STL::allocator<_STL::pair<_STL::basic_string<char,_STL::char_traits<char>,_STL::allocator<char> > const ,boost::shared_ptr<TAKeyInfo> > > >::_S_right(_STL::_Rb_tree_node_base *)
PUBLIC 106b0 0 _STL::_Rb_tree<_STL::basic_string<char,_STL::char_traits<char>,_STL::allocator<char> >,_STL::pair<_STL::basic_string<char,_STL::char_traits<char>,_STL::allocator<char> > const ,boost::shared_ptr<TAKeyInfo> >,_STL::_Select1st<_STL::pair<_STL::basic_string<char,_STL::char_traits<char>,_STL::allocator<char> > const ,boost::shared_ptr<TAKeyInfo> > >,_STL::less<_STL::basic_string<char,_STL::char_traits<char>,_STL::allocator<char> > >,_STL::allocator<_STL::pair<_STL::basic_string<char,_STL::char_traits<char>,_STL::allocator<char> > const ,boost::shared_ptr<TAKeyInfo> > > >::_S_key(_STL::_Rb_tree_node_base *)
PUBLIC 106c0 0 _STL::_Rb_tree<_STL::basic_string<char,_STL::char_traits<char>,_STL::allocator<char> >,_STL::pair<_STL::basic_string<char,_STL::char_traits<char>,_STL::allocator<char> > const ,boost::shared_ptr<TAKeyInfo> >,_STL::_Select1st<_STL::pair<_STL::basic_string<char,_STL::char_traits<char>,_STL::allocator<char> > const ,boost::shared_ptr<TAKeyInfo> > >,_STL::less<_STL::basic_string<char,_STL::char_traits<char>,_STL::allocator<char> > >,_STL::allocator<_STL::pair<_STL::basic_string<char,_STL::char_traits<char>,_STL::allocator<char> > const ,boost::shared_ptr<TAKeyInfo> > > >::size()
PUBLIC 106d0 0 _STL::_Rb_tree<_STL::basic_string<char,_STL::char_traits<char>,_STL::allocator<char> >,_STL::pair<_STL::basic_string<char,_STL::char_traits<char>,_STL::allocator<char> > const ,_STL::basic_string<char,_STL::char_traits<char>,_STL::allocator<char> > >,_STL::_Select1st<_STL::pair<_STL::basic_string<char,_STL::char_traits<char>,_STL::allocator<char> > const ,_STL::basic_string<char,_STL::char_traits<char>,_STL::allocator<char> > > >,_STL::less<_STL::basic_string<char,_STL::char_traits<char>,_STL::allocator<char> > >,_STL::allocator<_STL::pair<_STL::basic_string<char,_STL::char_traits<char>,_STL::allocator<char> > const ,_STL::basic_string<char,_STL::char_traits<char>,_STL::allocator<char> > > > >::_S_right(_STL::_Rb_tree_node_base *)
PUBLIC 106e0 0 _STL::_Rb_tree<_STL::basic_string<char,_STL::char_traits<char>,_STL::allocator<char> >,_STL::pair<_STL::basic_string<char,_STL::char_traits<char>,_STL::allocator<char> > const ,_STL::basic_string<char,_STL::char_traits<char>,_STL::allocator<char> > >,_STL::_Select1st<_STL::pair<_STL::basic_string<char,_STL::char_traits<char>,_STL::allocator<char> > const ,_STL::basic_string<char,_STL::char_traits<char>,_STL::allocator<char> > > >,_STL::less<_STL::basic_string<char,_STL::char_traits<char>,_STL::allocator<char> > >,_STL::allocator<_STL::pair<_STL::basic_string<char,_STL::char_traits<char>,_STL::allocator<char> > const ,_STL::basic_string<char,_STL::char_traits<char>,_STL::allocator<char> > > > >::_S_key(_STL::_Rb_tree_node_base *)
PUBLIC 106f0 0 _STL::_Rb_tree<_STL::basic_string<char,_STL::char_traits<char>,_STL::allocator<char> >,_STL::pair<_STL::basic_string<char,_STL::char_traits<char>,_STL::allocator<char> > const ,_STL::basic_string<char,_STL::char_traits<char>,_STL::allocator<char> > >,_STL::_Select1st<_STL::pair<_STL::basic_string<char,_STL::char_traits<char>,_STL::allocator<char> > const ,_STL::basic_string<char,_STL::char_traits<char>,_STL::allocator<char> > > >,_STL::less<_STL::basic_string<char,_STL::char_traits<char>,_STL::allocator<char> > >,_STL::allocator<_STL::pair<_STL::basic_string<char,_STL::char_traits<char>,_STL::allocator<char> > const ,_STL::basic_string<char,_STL::char_traits<char>,_STL::allocator<char> > > > >::size()
PUBLIC 10700 0 _STL::_Rb_tree_iterator<_STL::pair<_STL::basic_string<char,_STL::char_traits<char>,_STL::allocator<char> > const ,boost::shared_ptr<TAKeyInfo> >,_STL::_Nonconst_traits<_STL::pair<_STL::basic_string<char,_STL::char_traits<char>,_STL::allocator<char> > const ,boost::shared_ptr<TAKeyInfo> > > >::operator++()
PUBLIC 10720 0 _STL::_Rb_tree_iterator<_STL::pair<_STL::basic_string<char,_STL::char_traits<char>,_STL::allocator<char> > const ,boost::shared_ptr<TAKeyInfo> >,_STL::_Nonconst_traits<_STL::pair<_STL::basic_string<char,_STL::char_traits<char>,_STL::allocator<char> > const ,boost::shared_ptr<TAKeyInfo> > > >::operator--()
PUBLIC 10740 0 _STL::_Rb_tree_iterator<_STL::pair<_STL::basic_string<char,_STL::char_traits<char>,_STL::allocator<char> > const ,boost::shared_ptr<KeyDataInfo> >,_STL::_Nonconst_traits<_STL::pair<_STL::basic_string<char,_STL::char_traits<char>,_STL::allocator<char> > const ,boost::shared_ptr<KeyDataInfo> > > >::operator++()
PUBLIC 10760 0 _STL::_Rb_tree_iterator<_STL::pair<_STL::basic_string<char,_STL::char_traits<char>,_STL::allocator<char> > const ,boost::shared_ptr<KeyDataInfo> >,_STL::_Nonconst_traits<_STL::pair<_STL::basic_string<char,_STL::char_traits<char>,_STL::allocator<char> > const ,boost::shared_ptr<KeyDataInfo> > > >::operator--()
PUBLIC 10780 0 _STL::_Rb_tree_iterator<_STL::pair<_STL::basic_string<char,_STL::char_traits<char>,_STL::allocator<char> > const ,_STL::basic_string<char,_STL::char_traits<char>,_STL::allocator<char> > >,_STL::_Nonconst_traits<_STL::pair<_STL::basic_string<char,_STL::char_traits<char>,_STL::allocator<char> > const ,_STL::basic_string<char,_STL::char_traits<char>,_STL::allocator<char> > > > >::operator++()
PUBLIC 107a0 0 _STL::_Rb_tree_iterator<_STL::pair<_STL::basic_string<char,_STL::char_traits<char>,_STL::allocator<char> > const ,_STL::basic_string<char,_STL::char_traits<char>,_STL::allocator<char> > >,_STL::_Nonconst_traits<_STL::pair<_STL::basic_string<char,_STL::char_traits<char>,_STL::allocator<char> > const ,_STL::basic_string<char,_STL::char_traits<char>,_STL::allocator<char> > > > >::operator--()
PUBLIC 107c0 0 boost::escaped_list_separator<char,_STL::char_traits<char> >::escaped_list_separator<char,_STL::char_traits<char> >(char,char,char)
PUBLIC 10850 0 boost::token_iterator<boost::escaped_list_separator<char,_STL::char_traits<char> >,char const *,_STL::basic_string<char,_STL::char_traits<char>,_STL::allocator<char> > >::dereference()
PUBLIC 10860 0 CryptoPP::NameValuePairs::NameValuePairs(CryptoPP::NameValuePairs const &)
PUBLIC 10870 0 boost::escaped_list_separator<char,_STL::char_traits<char> >::char_eq::char_eq(char)
PUBLIC 10880 0 CryptoPP::AlgorithmParametersBase::AlgorithmParametersBase(CryptoPP::AlgorithmParametersBase const &)
PUBLIC 108b0 0 CryptoPP::STDMIN<unsigned int>(unsigned int const &,unsigned int const &)
PUBLIC 108d0 0 _STL::swap<CryptoPP::AllocatorWithCleanup<unsigned char> >(CryptoPP::AllocatorWithCleanup<unsigned char> &,CryptoPP::AllocatorWithCleanup<unsigned char> &)
PUBLIC 108e0 0 _STL::pair<_STL::basic_string<char,_STL::char_traits<char>,_STL::allocator<char> > const ,_STL::basic_string<char,_STL::char_traits<char>,_STL::allocator<char> > >::`scalar deleting destructor'(unsigned int)
PUBLIC 10900 0 _STL::_Rb_tree<_STL::basic_string<char,_STL::char_traits<char>,_STL::allocator<char> >,_STL::pair<_STL::basic_string<char,_STL::char_traits<char>,_STL::allocator<char> > const ,boost::shared_ptr<KeyDataInfo> >,_STL::_Select1st<_STL::pair<_STL::basic_string<char,_STL::char_traits<char>,_STL::allocator<char> > const ,boost::shared_ptr<KeyDataInfo> > >,_STL::less<_STL::basic_string<char,_STL::char_traits<char>,_STL::allocator<char> > >,_STL::allocator<_STL::pair<_STL::basic_string<char,_STL::char_traits<char>,_STL::allocator<char> > const ,boost::shared_ptr<KeyDataInfo> > > >::_S_parent(_STL::_Rb_tree_node<_STL::pair<_STL::basic_string<char,_STL::char_traits<char>,_STL::allocator<char> > const ,boost::shared_ptr<KeyDataInfo> > > *)
PUBLIC 10910 0 _STL::_Rb_tree<_STL::basic_string<char,_STL::char_traits<char>,_STL::allocator<char> >,_STL::pair<_STL::basic_string<char,_STL::char_traits<char>,_STL::allocator<char> > const ,boost::shared_ptr<KeyDataInfo> >,_STL::_Select1st<_STL::pair<_STL::basic_string<char,_STL::char_traits<char>,_STL::allocator<char> > const ,boost::shared_ptr<KeyDataInfo> > >,_STL::less<_STL::basic_string<char,_STL::char_traits<char>,_STL::allocator<char> > >,_STL::allocator<_STL::pair<_STL::basic_string<char,_STL::char_traits<char>,_STL::allocator<char> > const ,boost::shared_ptr<KeyDataInfo> > > >::begin()
PUBLIC 10920 0 _STL::_Rb_tree<_STL::basic_string<char,_STL::char_traits<char>,_STL::allocator<char> >,_STL::pair<_STL::basic_string<char,_STL::char_traits<char>,_STL::allocator<char> > const ,boost::shared_ptr<TAKeyInfo> >,_STL::_Select1st<_STL::pair<_STL::basic_string<char,_STL::char_traits<char>,_STL::allocator<char> > const ,boost::shared_ptr<TAKeyInfo> > >,_STL::less<_STL::basic_string<char,_STL::char_traits<char>,_STL::allocator<char> > >,_STL::allocator<_STL::pair<_STL::basic_string<char,_STL::char_traits<char>,_STL::allocator<char> > const ,boost::shared_ptr<TAKeyInfo> > > >::_S_parent(_STL::_Rb_tree_node<_STL::pair<_STL::basic_string<char,_STL::char_traits<char>,_STL::allocator<char> > const ,boost::shared_ptr<TAKeyInfo> > > *)
PUBLIC 10930 0 _STL::_Rb_tree<_STL::basic_string<char,_STL::char_traits<char>,_STL::allocator<char> >,_STL::pair<_STL::basic_string<char,_STL::char_traits<char>,_STL::allocator<char> > const ,boost::shared_ptr<TAKeyInfo> >,_STL::_Select1st<_STL::pair<_STL::basic_string<char,_STL::char_traits<char>,_STL::allocator<char> > const ,boost::shared_ptr<TAKeyInfo> > >,_STL::less<_STL::basic_string<char,_STL::char_traits<char>,_STL::allocator<char> > >,_STL::allocator<_STL::pair<_STL::basic_string<char,_STL::char_traits<char>,_STL::allocator<char> > const ,boost::shared_ptr<TAKeyInfo> > > >::begin()
PUBLIC 10940 0 _STL::_Rb_tree<_STL::basic_string<char,_STL::char_traits<char>,_STL::allocator<char> >,_STL::pair<_STL::basic_string<char,_STL::char_traits<char>,_STL::allocator<char> > const ,_STL::basic_string<char,_STL::char_traits<char>,_STL::allocator<char> > >,_STL::_Select1st<_STL::pair<_STL::basic_string<char,_STL::char_traits<char>,_STL::allocator<char> > const ,_STL::basic_string<char,_STL::char_traits<char>,_STL::allocator<char> > > >,_STL::less<_STL::basic_string<char,_STL::char_traits<char>,_STL::allocator<char> > >,_STL::allocator<_STL::pair<_STL::basic_string<char,_STL::char_traits<char>,_STL::allocator<char> > const ,_STL::basic_string<char,_STL::char_traits<char>,_STL::allocator<char> > > > >::_S_parent(_STL::_Rb_tree_node<_STL::pair<_STL::basic_string<char,_STL::char_traits<char>,_STL::allocator<char> > const ,_STL::basic_string<char,_STL::char_traits<char>,_STL::allocator<char> > > > *)
PUBLIC 10950 0 _STL::pair<_STL::_Rb_tree_iterator<_STL::pair<_STL::basic_string<char,_STL::char_traits<char>,_STL::allocator<char> > const ,boost::shared_ptr<KeyDataInfo> >,_STL::_Nonconst_traits<_STL::pair<_STL::basic_string<char,_STL::char_traits<char>,_STL::allocator<char> > const ,boost::shared_ptr<KeyDataInfo> > > >,bool>::pair<_STL::_Rb_tree_iterator<_STL::pair<_STL::basic_string<char,_STL::char_traits<char>,_STL::allocator<char> > const ,boost::shared_ptr<KeyDataInfo> >,_STL::_Nonconst_traits<_STL::pair<_STL::basic_string<char,_STL::char_traits<char>,_STL::allocator<char> > const ,boost::shared_ptr<KeyDataInfo> > > >,bool>(_STL::_Rb_tree_iterator<_STL::pair<_STL::basic_string<char,_STL::char_traits<char>,_STL::allocator<char> > const ,boost::shared_ptr<KeyDataInfo> >,_STL::_Nonconst_traits<_STL::pair<_STL::basic_string<char,_STL::char_traits<char>,_STL::allocator<char> > const ,boost::shared_ptr<KeyDataInfo> > > > const &,bool const &)
PUBLIC 10970 0 _STL::pair<_STL::_Rb_tree_iterator<_STL::pair<_STL::basic_string<char,_STL::char_traits<char>,_STL::allocator<char> > const ,boost::shared_ptr<TAKeyInfo> >,_STL::_Nonconst_traits<_STL::pair<_STL::basic_string<char,_STL::char_traits<char>,_STL::allocator<char> > const ,boost::shared_ptr<TAKeyInfo> > > >,bool>::pair<_STL::_Rb_tree_iterator<_STL::pair<_STL::basic_string<char,_STL::char_traits<char>,_STL::allocator<char> > const ,boost::shared_ptr<TAKeyInfo> >,_STL::_Nonconst_traits<_STL::pair<_STL::basic_string<char,_STL::char_traits<char>,_STL::allocator<char> > const ,boost::shared_ptr<TAKeyInfo> > > >,bool>(_STL::_Rb_tree_iterator<_STL::pair<_STL::basic_string<char,_STL::char_traits<char>,_STL::allocator<char> > const ,boost::shared_ptr<TAKeyInfo> >,_STL::_Nonconst_traits<_STL::pair<_STL::basic_string<char,_STL::char_traits<char>,_STL::allocator<char> > const ,boost::shared_ptr<TAKeyInfo> > > > const &,bool const &)
PUBLIC 10990 0 _STL::pair<_STL::_Rb_tree_iterator<_STL::pair<_STL::basic_string<char,_STL::char_traits<char>,_STL::allocator<char> > const ,_STL::basic_string<char,_STL::char_traits<char>,_STL::allocator<char> > >,_STL::_Nonconst_traits<_STL::pair<_STL::basic_string<char,_STL::char_traits<char>,_STL::allocator<char> > const ,_STL::basic_string<char,_STL::char_traits<char>,_STL::allocator<char> > > > >,bool>::pair<_STL::_Rb_tree_iterator<_STL::pair<_STL::basic_string<char,_STL::char_traits<char>,_STL::allocator<char> > const ,_STL::basic_string<char,_STL::char_traits<char>,_STL::allocator<char> > >,_STL::_Nonconst_traits<_STL::pair<_STL::basic_string<char,_STL::char_traits<char>,_STL::allocator<char> > const ,_STL::basic_string<char,_STL::char_traits<char>,_STL::allocator<char> > > > >,bool>(_STL::_Rb_tree_iterator<_STL::pair<_STL::basic_string<char,_STL::char_traits<char>,_STL::allocator<char> > const ,_STL::basic_string<char,_STL::char_traits<char>,_STL::allocator<char> > >,_STL::_Nonconst_traits<_STL::pair<_STL::basic_string<char,_STL::char_traits<char>,_STL::allocator<char> > const ,_STL::basic_string<char,_STL::char_traits<char>,_STL::allocator<char> > > > > const &,bool const &)
PUBLIC 109b0 0 boost::detail::sp_counted_impl_p<KeyDataInfo>::sp_counted_impl_p<KeyDataInfo>(KeyDataInfo *)
PUBLIC 109d0 0 boost::detail::sp_counted_impl_p<KeyDataInfo>::get_deleter(type_info const &)
PUBLIC 109e0 0 boost::detail::sp_counted_impl_p<TAKeyInfo>::sp_counted_impl_p<TAKeyInfo>(TAKeyInfo *)
PUBLIC 10a00 0 boost::detail::sp_counted_impl_p<TAKeyInfo>::get_deleter(type_info const &)
PUBLIC 10a10 0 boost::token_iterator<boost::escaped_list_separator<char,_STL::char_traits<char> >,char const *,_STL::basic_string<char,_STL::char_traits<char>,_STL::allocator<char> > >::equal<boost::token_iterator<boost::escaped_list_separator<char,_STL::char_traits<char> >,char const *,_STL::basic_string<char,_STL::char_traits<char>,_STL::allocator<char> > > >(boost::token_iterator<boost::escaped_list_separator<char,_STL::char_traits<char> >,char const *,_STL::basic_string<char,_STL::char_traits<char>,_STL::allocator<char> > > const &)
PUBLIC 10a50 0 KeyDataInfo::`scalar deleting destructor'(unsigned int)
PUBLIC 10a70 0 TAKeyInfo::`scalar deleting destructor'(unsigned int)
PUBLIC 10a90 0 _STL::pair<_STL::basic_string<char,_STL::char_traits<char>,_STL::allocator<char> > const ,_STL::basic_string<char,_STL::char_traits<char>,_STL::allocator<char> > >::pair<_STL::basic_string<char,_STL::char_traits<char>,_STL::allocator<char> > const ,_STL::basic_string<char,_STL::char_traits<char>,_STL::allocator<char> > >(_STL::pair<_STL::basic_string<char,_STL::char_traits<char>,_STL::allocator<char> > const ,_STL::basic_string<char,_STL::char_traits<char>,_STL::allocator<char> > > const &)
PUBLIC 10af0 0 boost::escaped_list_separator<char,_STL::char_traits<char> >::char_eq::operator()(char)
PUBLIC 10b00 0 boost::detail::sp_counted_base::release()
PUBLIC 10b30 0 boost::detail::shared_count::~shared_count()
PUBLIC 10b60 0 boost::detail::shared_count::operator=(boost::detail::shared_count const &)
PUBLIC 10bc0 0 boost::escaped_list_error::`vector deleting destructor'(unsigned int)
PUBLIC 10be0 0 boost::escaped_list_error::~escaped_list_error()
PUBLIC 10bf0 0 CryptoPP::InvalidArgument::`scalar deleting destructor'(unsigned int)
PUBLIC 10c10 0 CryptoPP::InvalidArgument::InvalidArgument(CryptoPP::InvalidArgument const &)
PUBLIC 10c30 0 CryptoPP::BufferedTransformation::BufferedTransformation()
PUBLIC 10c40 0 CryptoPP::Filter::~Filter()
PUBLIC 10c50 0 CryptoPP::Unflushable<CryptoPP::Filter>::Unflushable<CryptoPP::Filter>()
PUBLIC 10c60 0 CryptoPP::Unflushable<CryptoPP::Filter>::~Unflushable<CryptoPP::Filter>()
PUBLIC 10c70 0 CryptoPP::Sink::Sink()
PUBLIC 10c80 0 CryptoPP::Bufferless<CryptoPP::Sink>::Bufferless<CryptoPP::Sink>()
PUBLIC 10c90 0 boost::shared_ptr<TAKeyInfo>::shared_ptr<TAKeyInfo>(boost::shared_ptr<TAKeyInfo> const &)
PUBLIC 10cc0 0 boost::shared_ptr<TAKeyInfo>::~shared_ptr<TAKeyInfo>()
PUBLIC 10d00 0 boost::shared_ptr<KeyDataInfo>::shared_ptr<KeyDataInfo>(boost::shared_ptr<KeyDataInfo> const &)
PUBLIC 10d30 0 boost::shared_ptr<KeyDataInfo>::~shared_ptr<KeyDataInfo>()
PUBLIC 10d70 0 boost::shared_ptr<KeyDataInfo>::operator=(boost::shared_ptr<KeyDataInfo> const &)
PUBLIC 10d90 0 boost::tokenizer<boost::escaped_list_separator<char,_STL::char_traits<char> >,char const *,_STL::basic_string<char,_STL::char_traits<char>,_STL::allocator<char> > >::~tokenizer<boost::escaped_list_separator<char,_STL::char_traits<char> >,char const *,_STL::basic_string<char,_STL::char_traits<char>,_STL::allocator<char> > >()
PUBLIC 10da0 0 boost::token_iterator<boost::escaped_list_separator<char,_STL::char_traits<char> >,char const *,_STL::basic_string<char,_STL::char_traits<char>,_STL::allocator<char> > >::~token_iterator<boost::escaped_list_separator<char,_STL::char_traits<char> >,char const *,_STL::basic_string<char,_STL::char_traits<char>,_STL::allocator<char> > >()
PUBLIC 10df0 0 boost::token_iterator<boost::escaped_list_separator<char,_STL::char_traits<char> >,char const *,_STL::basic_string<char,_STL::char_traits<char>,_STL::allocator<char> > >::token_iterator<boost::escaped_list_separator<char,_STL::char_traits<char> >,char const *,_STL::basic_string<char,_STL::char_traits<char>,_STL::allocator<char> > >(boost::token_iterator<boost::escaped_list_separator<char,_STL::char_traits<char> >,char const *,_STL::basic_string<char,_STL::char_traits<char>,_STL::allocator<char> > > const &)
PUBLIC 10e60 0 boost::shared_ptr<TAKeyInfo>::operator=(boost::shared_ptr<TAKeyInfo> const &)
PUBLIC 10e80 0 CryptoPP::SecBlock<unsigned char,CryptoPP::AllocatorWithCleanup<unsigned char> >::~SecBlock<unsigned char,CryptoPP::AllocatorWithCleanup<unsigned char> >()
PUBLIC 10eb0 0 CryptoPP::StringSinkTemplate<_STL::basic_string<char,_STL::char_traits<char>,_STL::allocator<char> > >::StringSinkTemplate<_STL::basic_string<char,_STL::char_traits<char>,_STL::allocator<char> > >(_STL::basic_string<char,_STL::char_traits<char>,_STL::allocator<char> > &)
PUBLIC 10ee0 0 CryptoPP::Clonable::Clone()
PUBLIC 10f50 0 CryptoPP::NotImplemented::~NotImplemented()
PUBLIC 10f60 0 CryptoPP::NotImplemented::NotImplemented(CryptoPP::NotImplemented const &)
PUBLIC 10f80 0 CryptoPP::Algorithm::AlgorithmName()
PUBLIC 10fd0 0 CryptoPP::BufferedTransformation::CreatePutSpace(unsigned int &)
PUBLIC 10fe0 0 CryptoPP::BufferedTransformation::CanModifyInput()
PUBLIC 10ff0 0 CryptoPP::BufferedTransformation::PutModifiable2(unsigned char *,unsigned int,int,bool)
PUBLIC 11000 0 CryptoPP::BufferedTransformation::IsolatedMessageSeriesEnd(bool)
PUBLIC 11010 0 CryptoPP::BufferedTransformation::SetAutoSignalPropagation(int)
PUBLIC 11020 0 CryptoPP::BufferedTransformation::GetAutoSignalPropagation()
PUBLIC 11030 0 CryptoPP::BufferedTransformation::GetNextMessageSeries()
PUBLIC 11040 0 CryptoPP::BufferedTransformation::NumberOfMessagesInThisSeries()
PUBLIC 11050 0 CryptoPP::BufferedTransformation::NumberOfMessageSeries()
PUBLIC 11060 0 CryptoPP::BufferedTransformation::Attachable()
PUBLIC 11070 0 CryptoPP::BufferedTransformation::AttachedTransformation()
PUBLIC 11080 0 CryptoPP::BufferedTransformation::AttachedTransformation()
PUBLIC 11090 0 CryptoPP::BufferedTransformation::Detach(CryptoPP::BufferedTransformation *)
PUBLIC 11100 0 CryptoPP::Sink::TransferTo2(CryptoPP::BufferedTransformation &,unsigned __int64 &,_STL::basic_string<char,_STL::char_traits<char>,_STL::allocator<char> > const &,bool)
PUBLIC 11120 0 CryptoPP::Sink::CopyRangeTo2(CryptoPP::BufferedTransformation &,unsigned __int64 &,unsigned __int64,_STL::basic_string<char,_STL::char_traits<char>,_STL::allocator<char> > const &,bool)
PUBLIC 11130 0 CryptoPP::Bufferless<CryptoPP::Sink>::IsolatedFlush(bool,bool)
PUBLIC 11140 0 CryptoPP::NotImplemented::`scalar deleting destructor'(unsigned int)
PUBLIC 11160 0 CryptoPP::StringSinkTemplate<_STL::basic_string<char,_STL::char_traits<char>,_STL::allocator<char> > >::IsolatedInitialize(CryptoPP::NameValuePairs const &)
PUBLIC 111f0 0 _STL::_Rb_tree_iterator<_STL::pair<_STL::basic_string<char,_STL::char_traits<char>,_STL::allocator<char> > const ,boost::shared_ptr<TAKeyInfo> >,_STL::_Const_traits<_STL::pair<_STL::basic_string<char,_STL::char_traits<char>,_STL::allocator<char> > const ,boost::shared_ptr<TAKeyInfo> > > >::operator->()
PUBLIC 11200 0 _STL::_Rb_tree_iterator<_STL::pair<_STL::basic_string<char,_STL::char_traits<char>,_STL::allocator<char> > const ,boost::shared_ptr<KeyDataInfo> >,_STL::_Nonconst_traits<_STL::pair<_STL::basic_string<char,_STL::char_traits<char>,_STL::allocator<char> > const ,boost::shared_ptr<KeyDataInfo> > > >::operator->()
PUBLIC 11210 0 _STL::_Rb_tree_iterator<_STL::pair<_STL::basic_string<char,_STL::char_traits<char>,_STL::allocator<char> > const ,boost::shared_ptr<KeyDataInfo> >,_STL::_Const_traits<_STL::pair<_STL::basic_string<char,_STL::char_traits<char>,_STL::allocator<char> > const ,boost::shared_ptr<KeyDataInfo> > > >::operator->()
PUBLIC 11220 0 _STL::_Rb_tree_iterator<_STL::pair<_STL::basic_string<char,_STL::char_traits<char>,_STL::allocator<char> > const ,_STL::basic_string<char,_STL::char_traits<char>,_STL::allocator<char> > >,_STL::_Const_traits<_STL::pair<_STL::basic_string<char,_STL::char_traits<char>,_STL::allocator<char> > const ,_STL::basic_string<char,_STL::char_traits<char>,_STL::allocator<char> > > > >::operator->()
PUBLIC 11230 0 _STL::pair<_STL::basic_string<char,_STL::char_traits<char>,_STL::allocator<char> > const ,boost::shared_ptr<KeyDataInfo> >::~pair<_STL::basic_string<char,_STL::char_traits<char>,_STL::allocator<char> > const ,boost::shared_ptr<KeyDataInfo> >()
PUBLIC 112b0 0 _STL::pair<_STL::basic_string<char,_STL::char_traits<char>,_STL::allocator<char> > const ,boost::shared_ptr<TAKeyInfo> >::~pair<_STL::basic_string<char,_STL::char_traits<char>,_STL::allocator<char> > const ,boost::shared_ptr<TAKeyInfo> >()
PUBLIC 11330 0 CryptoPP::StringSinkTemplate<_STL::basic_string<char,_STL::char_traits<char>,_STL::allocator<char> > >::`vector deleting destructor'(unsigned int)
PUBLIC 11350 0 CryptoPP::StringSinkTemplate<_STL::basic_string<char,_STL::char_traits<char>,_STL::allocator<char> > >::~StringSinkTemplate<_STL::basic_string<char,_STL::char_traits<char>,_STL::allocator<char> > >()
PUBLIC 11360 0 _STL::map<_STL::basic_string<char,_STL::char_traits<char>,_STL::allocator<char> >,boost::shared_ptr<KeyDataInfo>,_STL::less<_STL::basic_string<char,_STL::char_traits<char>,_STL::allocator<char> > >,_STL::allocator<_STL::pair<_STL::basic_string<char,_STL::char_traits<char>,_STL::allocator<char> > const ,boost::shared_ptr<KeyDataInfo> > > >::key_comp()
PUBLIC 11370 0 _STL::_Rb_tree<_STL::basic_string<char,_STL::char_traits<char>,_STL::allocator<char> >,_STL::pair<_STL::basic_string<char,_STL::char_traits<char>,_STL::allocator<char> > const ,boost::shared_ptr<KeyDataInfo> >,_STL::_Select1st<_STL::pair<_STL::basic_string<char,_STL::char_traits<char>,_STL::allocator<char> > const ,boost::shared_ptr<KeyDataInfo> > >,_STL::less<_STL::basic_string<char,_STL::char_traits<char>,_STL::allocator<char> > >,_STL::allocator<_STL::pair<_STL::basic_string<char,_STL::char_traits<char>,_STL::allocator<char> > const ,boost::shared_ptr<KeyDataInfo> > > >::begin()
PUBLIC 11380 0 _STL::_Rb_tree<_STL::basic_string<char,_STL::char_traits<char>,_STL::allocator<char> >,_STL::pair<_STL::basic_string<char,_STL::char_traits<char>,_STL::allocator<char> > const ,boost::shared_ptr<KeyDataInfo> >,_STL::_Select1st<_STL::pair<_STL::basic_string<char,_STL::char_traits<char>,_STL::allocator<char> > const ,boost::shared_ptr<KeyDataInfo> > >,_STL::less<_STL::basic_string<char,_STL::char_traits<char>,_STL::allocator<char> > >,_STL::allocator<_STL::pair<_STL::basic_string<char,_STL::char_traits<char>,_STL::allocator<char> > const ,boost::shared_ptr<KeyDataInfo> > > >::end()
PUBLIC 11390 0 _STL::_Rb_tree<_STL::basic_string<char,_STL::char_traits<char>,_STL::allocator<char> >,_STL::pair<_STL::basic_string<char,_STL::char_traits<char>,_STL::allocator<char> > const ,boost::shared_ptr<KeyDataInfo> >,_STL::_Select1st<_STL::pair<_STL::basic_string<char,_STL::char_traits<char>,_STL::allocator<char> > const ,boost::shared_ptr<KeyDataInfo> > >,_STL::less<_STL::basic_string<char,_STL::char_traits<char>,_STL::allocator<char> > >,_STL::allocator<_STL::pair<_STL::basic_string<char,_STL::char_traits<char>,_STL::allocator<char> > const ,boost::shared_ptr<KeyDataInfo> > > >::end()
PUBLIC 113a0 0 _STL::map<_STL::basic_string<char,_STL::char_traits<char>,_STL::allocator<char> >,boost::shared_ptr<TAKeyInfo>,_STL::less<_STL::basic_string<char,_STL::char_traits<char>,_STL::allocator<char> > >,_STL::allocator<_STL::pair<_STL::basic_string<char,_STL::char_traits<char>,_STL::allocator<char> > const ,boost::shared_ptr<TAKeyInfo> > > >::key_comp()
PUBLIC 113b0 0 _STL::_Rb_tree<_STL::basic_string<char,_STL::char_traits<char>,_STL::allocator<char> >,_STL::pair<_STL::basic_string<char,_STL::char_traits<char>,_STL::allocator<char> > const ,boost::shared_ptr<TAKeyInfo> >,_STL::_Select1st<_STL::pair<_STL::basic_string<char,_STL::char_traits<char>,_STL::allocator<char> > const ,boost::shared_ptr<TAKeyInfo> > >,_STL::less<_STL::basic_string<char,_STL::char_traits<char>,_STL::allocator<char> > >,_STL::allocator<_STL::pair<_STL::basic_string<char,_STL::char_traits<char>,_STL::allocator<char> > const ,boost::shared_ptr<TAKeyInfo> > > >::end()
PUBLIC 113c0 0 _STL::map<_STL::basic_string<char,_STL::char_traits<char>,_STL::allocator<char> >,_STL::basic_string<char,_STL::char_traits<char>,_STL::allocator<char> >,_STL::less<_STL::basic_string<char,_STL::char_traits<char>,_STL::allocator<char> > >,_STL::allocator<_STL::pair<_STL::basic_string<char,_STL::char_traits<char>,_STL::allocator<char> > const ,_STL::basic_string<char,_STL::char_traits<char>,_STL::allocator<char> > > > >::key_comp()
PUBLIC 113d0 0 _STL::_Rb_tree<_STL::basic_string<char,_STL::char_traits<char>,_STL::allocator<char> >,_STL::pair<_STL::basic_string<char,_STL::char_traits<char>,_STL::allocator<char> > const ,_STL::basic_string<char,_STL::char_traits<char>,_STL::allocator<char> > >,_STL::_Select1st<_STL::pair<_STL::basic_string<char,_STL::char_traits<char>,_STL::allocator<char> > const ,_STL::basic_string<char,_STL::char_traits<char>,_STL::allocator<char> > > >,_STL::less<_STL::basic_string<char,_STL::char_traits<char>,_STL::allocator<char> > >,_STL::allocator<_STL::pair<_STL::basic_string<char,_STL::char_traits<char>,_STL::allocator<char> > const ,_STL::basic_string<char,_STL::char_traits<char>,_STL::allocator<char> > > > >::begin()
PUBLIC 113e0 0 _STL::_Rb_tree<_STL::basic_string<char,_STL::char_traits<char>,_STL::allocator<char> >,_STL::pair<_STL::basic_string<char,_STL::char_traits<char>,_STL::allocator<char> > const ,_STL::basic_string<char,_STL::char_traits<char>,_STL::allocator<char> > >,_STL::_Select1st<_STL::pair<_STL::basic_string<char,_STL::char_traits<char>,_STL::allocator<char> > const ,_STL::basic_string<char,_STL::char_traits<char>,_STL::allocator<char> > > >,_STL::less<_STL::basic_string<char,_STL::char_traits<char>,_STL::allocator<char> > >,_STL::allocator<_STL::pair<_STL::basic_string<char,_STL::char_traits<char>,_STL::allocator<char> > const ,_STL::basic_string<char,_STL::char_traits<char>,_STL::allocator<char> > > > >::end()
PUBLIC 113f0 0 CryptoPP::AllocatorWithCleanup<unsigned char>::allocate(unsigned int,void const *)
PUBLIC 11420 0 boost::shared_ptr<TAKeyInfo>::shared_ptr<TAKeyInfo>()
PUBLIC 11430 0 _STL::pair<_STL::basic_string<char,_STL::char_traits<char>,_STL::allocator<char> > const ,boost::shared_ptr<TAKeyInfo> >::pair<_STL::basic_string<char,_STL::char_traits<char>,_STL::allocator<char> > const ,boost::shared_ptr<TAKeyInfo> >(_STL::basic_string<char,_STL::char_traits<char>,_STL::allocator<char> > const &,boost::shared_ptr<TAKeyInfo> const &)
PUBLIC 11470 0 boost::shared_ptr<KeyDataInfo>::shared_ptr<KeyDataInfo>()
PUBLIC 11480 0 _STL::pair<_STL::basic_string<char,_STL::char_traits<char>,_STL::allocator<char> > const ,boost::shared_ptr<KeyDataInfo> >::pair<_STL::basic_string<char,_STL::char_traits<char>,_STL::allocator<char> > const ,boost::shared_ptr<KeyDataInfo> >(_STL::basic_string<char,_STL::char_traits<char>,_STL::allocator<char> > const &,boost::shared_ptr<KeyDataInfo> const &)
PUBLIC 114c0 0 _STL::_STLP_alloc_proxy<_STL::_Rb_tree_node<_STL::pair<_STL::basic_string<char,_STL::char_traits<char>,_STL::allocator<char> > const ,boost::shared_ptr<KeyDataInfo> > > *,_STL::_Rb_tree_node<_STL::pair<_STL::basic_string<char,_STL::char_traits<char>,_STL::allocator<char> > const ,boost::shared_ptr<KeyDataInfo> > >,_STL::allocator<_STL::_Rb_tree_node<_STL::pair<_STL::basic_string<char,_STL::char_traits<char>,_STL::allocator<char> > const ,boost::shared_ptr<KeyDataInfo> > > > >::~_STLP_alloc_proxy<_STL::_Rb_tree_node<_STL::pair<_STL::basic_string<char,_STL::char_traits<char>,_STL::allocator<char> > const ,boost::shared_ptr<KeyDataInfo> > > *,_STL::_Rb_tree_node<_STL::pair<_STL::basic_string<char,_STL::char_traits<char>,_STL::allocator<char> > const ,boost::shared_ptr<KeyDataInfo> > >,_STL::allocator<_STL::_Rb_tree_node<_STL::pair<_STL::basic_string<char,_STL::char_traits<char>,_STL::allocator<char> > const ,boost::shared_ptr<KeyDataInfo> > > > >()
PUBLIC 114d0 0 _STL::_STLP_alloc_proxy<_STL::_Rb_tree_node<_STL::pair<_STL::basic_string<char,_STL::char_traits<char>,_STL::allocator<char> > const ,boost::shared_ptr<TAKeyInfo> > > *,_STL::_Rb_tree_node<_STL::pair<_STL::basic_string<char,_STL::char_traits<char>,_STL::allocator<char> > const ,boost::shared_ptr<TAKeyInfo> > >,_STL::allocator<_STL::_Rb_tree_node<_STL::pair<_STL::basic_string<char,_STL::char_traits<char>,_STL::allocator<char> > const ,boost::shared_ptr<TAKeyInfo> > > > >::~_STLP_alloc_proxy<_STL::_Rb_tree_node<_STL::pair<_STL::basic_string<char,_STL::char_traits<char>,_STL::allocator<char> > const ,boost::shared_ptr<TAKeyInfo> > > *,_STL::_Rb_tree_node<_STL::pair<_STL::basic_string<char,_STL::char_traits<char>,_STL::allocator<char> > const ,boost::shared_ptr<TAKeyInfo> > >,_STL::allocator<_STL::_Rb_tree_node<_STL::pair<_STL::basic_string<char,_STL::char_traits<char>,_STL::allocator<char> > const ,boost::shared_ptr<TAKeyInfo> > > > >()
PUBLIC 114e0 0 _STL::_STLP_alloc_proxy<_STL::_Rb_tree_node<_STL::pair<_STL::basic_string<char,_STL::char_traits<char>,_STL::allocator<char> > const ,_STL::basic_string<char,_STL::char_traits<char>,_STL::allocator<char> > > > *,_STL::_Rb_tree_node<_STL::pair<_STL::basic_string<char,_STL::char_traits<char>,_STL::allocator<char> > const ,_STL::basic_string<char,_STL::char_traits<char>,_STL::allocator<char> > > >,_STL::allocator<_STL::_Rb_tree_node<_STL::pair<_STL::basic_string<char,_STL::char_traits<char>,_STL::allocator<char> > const ,_STL::basic_string<char,_STL::char_traits<char>,_STL::allocator<char> > > > > >::~_STLP_alloc_proxy<_STL::_Rb_tree_node<_STL::pair<_STL::basic_string<char,_STL::char_traits<char>,_STL::allocator<char> > const ,_STL::basic_string<char,_STL::char_traits<char>,_STL::allocator<char> > > > *,_STL::_Rb_tree_node<_STL::pair<_STL::basic_string<char,_STL::char_traits<char>,_STL::allocator<char> > const ,_STL::basic_string<char,_STL::char_traits<char>,_STL::allocator<char> > > >,_STL::allocator<_STL::_Rb_tree_node<_STL::pair<_STL::basic_string<char,_STL::char_traits<char>,_STL::allocator<char> > const ,_STL::basic_string<char,_STL::char_traits<char>,_STL::allocator<char> > > > > >()
PUBLIC 114f0 0 _STL::_Rb_tree<_STL::basic_string<char,_STL::char_traits<char>,_STL::allocator<char> >,_STL::pair<_STL::basic_string<char,_STL::char_traits<char>,_STL::allocator<char> > const ,boost::shared_ptr<KeyDataInfo> >,_STL::_Select1st<_STL::pair<_STL::basic_string<char,_STL::char_traits<char>,_STL::allocator<char> > const ,boost::shared_ptr<KeyDataInfo> > >,_STL::less<_STL::basic_string<char,_STL::char_traits<char>,_STL::allocator<char> > >,_STL::allocator<_STL::pair<_STL::basic_string<char,_STL::char_traits<char>,_STL::allocator<char> > const ,boost::shared_ptr<KeyDataInfo> > > >::_M_empty_initialize()
PUBLIC 11510 0 _STL::_Rb_tree<_STL::basic_string<char,_STL::char_traits<char>,_STL::allocator<char> >,_STL::pair<_STL::basic_string<char,_STL::char_traits<char>,_STL::allocator<char> > const ,boost::shared_ptr<TAKeyInfo> >,_STL::_Select1st<_STL::pair<_STL::basic_string<char,_STL::char_traits<char>,_STL::allocator<char> > const ,boost::shared_ptr<TAKeyInfo> > >,_STL::less<_STL::basic_string<char,_STL::char_traits<char>,_STL::allocator<char> > >,_STL::allocator<_STL::pair<_STL::basic_string<char,_STL::char_traits<char>,_STL::allocator<char> > const ,boost::shared_ptr<TAKeyInfo> > > >::_M_empty_initialize()
PUBLIC 11530 0 _STL::_Rb_tree<_STL::basic_string<char,_STL::char_traits<char>,_STL::allocator<char> >,_STL::pair<_STL::basic_string<char,_STL::char_traits<char>,_STL::allocator<char> > const ,_STL::basic_string<char,_STL::char_traits<char>,_STL::allocator<char> > >,_STL::_Select1st<_STL::pair<_STL::basic_string<char,_STL::char_traits<char>,_STL::allocator<char> > const ,_STL::basic_string<char,_STL::char_traits<char>,_STL::allocator<char> > > >,_STL::less<_STL::basic_string<char,_STL::char_traits<char>,_STL::allocator<char> > >,_STL::allocator<_STL::pair<_STL::basic_string<char,_STL::char_traits<char>,_STL::allocator<char> > const ,_STL::basic_string<char,_STL::char_traits<char>,_STL::allocator<char> > > > >::_M_empty_initialize()
PUBLIC 11550 0 _STL::_STLP_alloc_proxy<_STL::_Rb_tree_node<_STL::pair<_STL::basic_string<char,_STL::char_traits<char>,_STL::allocator<char> > const ,boost::shared_ptr<KeyDataInfo> > > *,_STL::_Rb_tree_node<_STL::pair<_STL::basic_string<char,_STL::char_traits<char>,_STL::allocator<char> > const ,boost::shared_ptr<KeyDataInfo> > >,_STL::allocator<_STL::_Rb_tree_node<_STL::pair<_STL::basic_string<char,_STL::char_traits<char>,_STL::allocator<char> > const ,boost::shared_ptr<KeyDataInfo> > > > >::_STLP_alloc_proxy<_STL::_Rb_tree_node<_STL::pair<_STL::basic_string<char,_STL::char_traits<char>,_STL::allocator<char> > const ,boost::shared_ptr<KeyDataInfo> > > *,_STL::_Rb_tree_node<_STL::pair<_STL::basic_string<char,_STL::char_traits<char>,_STL::allocator<char> > const ,boost::shared_ptr<KeyDataInfo> > >,_STL::allocator<_STL::_Rb_tree_node<_STL::pair<_STL::basic_string<char,_STL::char_traits<char>,_STL::allocator<char> > const ,boost::shared_ptr<KeyDataInfo> > > > >(_STL::allocator<_STL::_Rb_tree_node<_STL::pair<_STL::basic_string<char,_STL::char_traits<char>,_STL::allocator<char> > const ,boost::shared_ptr<KeyDataInfo> > > > const &,_STL::_Rb_tree_node<_STL::pair<_STL::basic_string<char,_STL::char_traits<char>,_STL::allocator<char> > const ,boost::shared_ptr<KeyDataInfo> > > *)
PUBLIC 11560 0 _STL::_STLP_alloc_proxy<_STL::_Rb_tree_node<_STL::pair<_STL::basic_string<char,_STL::char_traits<char>,_STL::allocator<char> > const ,boost::shared_ptr<TAKeyInfo> > > *,_STL::_Rb_tree_node<_STL::pair<_STL::basic_string<char,_STL::char_traits<char>,_STL::allocator<char> > const ,boost::shared_ptr<TAKeyInfo> > >,_STL::allocator<_STL::_Rb_tree_node<_STL::pair<_STL::basic_string<char,_STL::char_traits<char>,_STL::allocator<char> > const ,boost::shared_ptr<TAKeyInfo> > > > >::_STLP_alloc_proxy<_STL::_Rb_tree_node<_STL::pair<_STL::basic_string<char,_STL::char_traits<char>,_STL::allocator<char> > const ,boost::shared_ptr<TAKeyInfo> > > *,_STL::_Rb_tree_node<_STL::pair<_STL::basic_string<char,_STL::char_traits<char>,_STL::allocator<char> > const ,boost::shared_ptr<TAKeyInfo> > >,_STL::allocator<_STL::_Rb_tree_node<_STL::pair<_STL::basic_string<char,_STL::char_traits<char>,_STL::allocator<char> > const ,boost::shared_ptr<TAKeyInfo> > > > >(_STL::allocator<_STL::_Rb_tree_node<_STL::pair<_STL::basic_string<char,_STL::char_traits<char>,_STL::allocator<char> > const ,boost::shared_ptr<TAKeyInfo> > > > const &,_STL::_Rb_tree_node<_STL::pair<_STL::basic_string<char,_STL::char_traits<char>,_STL::allocator<char> > const ,boost::shared_ptr<TAKeyInfo> > > *)
PUBLIC 11570 0 _STL::_STLP_alloc_proxy<_STL::_Rb_tree_node<_STL::pair<_STL::basic_string<char,_STL::char_traits<char>,_STL::allocator<char> > const ,_STL::basic_string<char,_STL::char_traits<char>,_STL::allocator<char> > > > *,_STL::_Rb_tree_node<_STL::pair<_STL::basic_string<char,_STL::char_traits<char>,_STL::allocator<char> > const ,_STL::basic_string<char,_STL::char_traits<char>,_STL::allocator<char> > > >,_STL::allocator<_STL::_Rb_tree_node<_STL::pair<_STL::basic_string<char,_STL::char_traits<char>,_STL::allocator<char> > const ,_STL::basic_string<char,_STL::char_traits<char>,_STL::allocator<char> > > > > >::_STLP_alloc_proxy<_STL::_Rb_tree_node<_STL::pair<_STL::basic_string<char,_STL::char_traits<char>,_STL::allocator<char> > const ,_STL::basic_string<char,_STL::char_traits<char>,_STL::allocator<char> > > > *,_STL::_Rb_tree_node<_STL::pair<_STL::basic_string<char,_STL::char_traits<char>,_STL::allocator<char> > const ,_STL::basic_string<char,_STL::char_traits<char>,_STL::allocator<char> > > >,_STL::allocator<_STL::_Rb_tree_node<_STL::pair<_STL::basic_string<char,_STL::char_traits<char>,_STL::allocator<char> > const ,_STL::basic_string<char,_STL::char_traits<char>,_STL::allocator<char> > > > > >(_STL::allocator<_STL::_Rb_tree_node<_STL::pair<_STL::basic_string<char,_STL::char_traits<char>,_STL::allocator<char> > const ,_STL::basic_string<char,_STL::char_traits<char>,_STL::allocator<char> > > > > const &,_STL::_Rb_tree_node<_STL::pair<_STL::basic_string<char,_STL::char_traits<char>,_STL::allocator<char> > const ,_STL::basic_string<char,_STL::char_traits<char>,_STL::allocator<char> > > > *)
PUBLIC 11580 0 _STL::_Rb_tree<_STL::basic_string<char,_STL::char_traits<char>,_STL::allocator<char> >,_STL::pair<_STL::basic_string<char,_STL::char_traits<char>,_STL::allocator<char> > const ,boost::shared_ptr<KeyDataInfo> >,_STL::_Select1st<_STL::pair<_STL::basic_string<char,_STL::char_traits<char>,_STL::allocator<char> > const ,boost::shared_ptr<KeyDataInfo> > >,_STL::less<_STL::basic_string<char,_STL::char_traits<char>,_STL::allocator<char> > >,_STL::allocator<_STL::pair<_STL::basic_string<char,_STL::char_traits<char>,_STL::allocator<char> > const ,boost::shared_ptr<KeyDataInfo> > > >::_S_key(_STL::_Rb_tree_node<_STL::pair<_STL::basic_string<char,_STL::char_traits<char>,_STL::allocator<char> > const ,boost::shared_ptr<KeyDataInfo> > > *)
PUBLIC 11590 0 _STL::_Rb_tree<_STL::basic_string<char,_STL::char_traits<char>,_STL::allocator<char> >,_STL::pair<_STL::basic_string<char,_STL::char_traits<char>,_STL::allocator<char> > const ,boost::shared_ptr<TAKeyInfo> >,_STL::_Select1st<_STL::pair<_STL::basic_string<char,_STL::char_traits<char>,_STL::allocator<char> > const ,boost::shared_ptr<TAKeyInfo> > >,_STL::less<_STL::basic_string<char,_STL::char_traits<char>,_STL::allocator<char> > >,_STL::allocator<_STL::pair<_STL::basic_string<char,_STL::char_traits<char>,_STL::allocator<char> > const ,boost::shared_ptr<TAKeyInfo> > > >::_S_key(_STL::_Rb_tree_node<_STL::pair<_STL::basic_string<char,_STL::char_traits<char>,_STL::allocator<char> > const ,boost::shared_ptr<TAKeyInfo> > > *)
PUBLIC 115a0 0 _STL::_Rb_tree<_STL::basic_string<char,_STL::char_traits<char>,_STL::allocator<char> >,_STL::pair<_STL::basic_string<char,_STL::char_traits<char>,_STL::allocator<char> > const ,_STL::basic_string<char,_STL::char_traits<char>,_STL::allocator<char> > >,_STL::_Select1st<_STL::pair<_STL::basic_string<char,_STL::char_traits<char>,_STL::allocator<char> > const ,_STL::basic_string<char,_STL::char_traits<char>,_STL::allocator<char> > > >,_STL::less<_STL::basic_string<char,_STL::char_traits<char>,_STL::allocator<char> > >,_STL::allocator<_STL::pair<_STL::basic_string<char,_STL::char_traits<char>,_STL::allocator<char> > const ,_STL::basic_string<char,_STL::char_traits<char>,_STL::allocator<char> > > > >::_S_key(_STL::_Rb_tree_node<_STL::pair<_STL::basic_string<char,_STL::char_traits<char>,_STL::allocator<char> > const ,_STL::basic_string<char,_STL::char_traits<char>,_STL::allocator<char> > > > *)
PUBLIC 115b0 0 boost::tokenizer<boost::escaped_list_separator<char,_STL::char_traits<char> >,char const *,_STL::basic_string<char,_STL::char_traits<char>,_STL::allocator<char> > >::tokenizer<boost::escaped_list_separator<char,_STL::char_traits<char> >,char const *,_STL::basic_string<char,_STL::char_traits<char>,_STL::allocator<char> > ><_STL::basic_string<char,_STL::char_traits<char>,_STL::allocator<char> > >(_STL::basic_string<char,_STL::char_traits<char>,_STL::allocator<char> > const &)
PUBLIC 115e0 0 boost::iterator_core_access::dereference<boost::token_iterator<boost::escaped_list_separator<char,_STL::char_traits<char> >,char const *,_STL::basic_string<char,_STL::char_traits<char>,_STL::allocator<char> > > >(boost::token_iterator<boost::escaped_list_separator<char,_STL::char_traits<char> >,char const *,_STL::basic_string<char,_STL::char_traits<char>,_STL::allocator<char> > > const &)
PUBLIC 115f0 0 CryptoPP::StandardReallocate<unsigned char,CryptoPP::AllocatorWithCleanup<unsigned char> >(CryptoPP::AllocatorWithCleanup<unsigned char> &,unsigned char *,unsigned int,unsigned int,bool)
PUBLIC 116b0 0 CryptoPP::NullNameValuePairs::NullNameValuePairs(CryptoPP::NullNameValuePairs const &)
PUBLIC 116c0 0 CryptoPP::NullNameValuePairs::GetVoidValue(char const *,type_info const &,void *)
PUBLIC 116d0 0 CryptoPP::NullNameValuePairs::`vector deleting destructor'(unsigned int)
PUBLIC 116f0 0 CryptoPP::SecBlock<unsigned char,CryptoPP::AllocatorWithCleanup<unsigned char> >::SecBlock<unsigned char,CryptoPP::AllocatorWithCleanup<unsigned char> >(CryptoPP::SecBlock<unsigned char,CryptoPP::AllocatorWithCleanup<unsigned char> > const &)
PUBLIC 11740 0 _STL::_Destroy<_STL::pair<_STL::basic_string<char,_STL::char_traits<char>,_STL::allocator<char> > const ,_STL::basic_string<char,_STL::char_traits<char>,_STL::allocator<char> > > >(_STL::pair<_STL::basic_string<char,_STL::char_traits<char>,_STL::allocator<char> > const ,_STL::basic_string<char,_STL::char_traits<char>,_STL::allocator<char> > > *)
PUBLIC 11750 0 boost::iterator_core_access::equal<boost::token_iterator<boost::escaped_list_separator<char,_STL::char_traits<char> >,char const *,_STL::basic_string<char,_STL::char_traits<char>,_STL::allocator<char> > >,boost::token_iterator<boost::escaped_list_separator<char,_STL::char_traits<char> >,char const *,_STL::basic_string<char,_STL::char_traits<char>,_STL::allocator<char> > > >(boost::token_iterator<boost::escaped_list_separator<char,_STL::char_traits<char> >,char const *,_STL::basic_string<char,_STL::char_traits<char>,_STL::allocator<char> > > const &,boost::token_iterator<boost::escaped_list_separator<char,_STL::char_traits<char> >,char const *,_STL::basic_string<char,_STL::char_traits<char>,_STL::allocator<char> > > const &,boost::mpl::bool_<1>)
PUBLIC 11790 0 _STL::_Rb_tree<_STL::basic_string<char,_STL::char_traits<char>,_STL::allocator<char> >,_STL::pair<_STL::basic_string<char,_STL::char_traits<char>,_STL::allocator<char> > const ,boost::shared_ptr<KeyDataInfo> >,_STL::_Select1st<_STL::pair<_STL::basic_string<char,_STL::char_traits<char>,_STL::allocator<char> > const ,boost::shared_ptr<KeyDataInfo> > >,_STL::less<_STL::basic_string<char,_STL::char_traits<char>,_STL::allocator<char> > >,_STL::allocator<_STL::pair<_STL::basic_string<char,_STL::char_traits<char>,_STL::allocator<char> > const ,boost::shared_ptr<KeyDataInfo> > > >::_M_find<_STL::basic_string<char,_STL::char_traits<char>,_STL::allocator<char> > >(_STL::basic_string<char,_STL::char_traits<char>,_STL::allocator<char> > const &)
PUBLIC 11810 0 _STL::_Rb_tree<_STL::basic_string<char,_STL::char_traits<char>,_STL::allocator<char> >,_STL::pair<_STL::basic_string<char,_STL::char_traits<char>,_STL::allocator<char> > const ,boost::shared_ptr<TAKeyInfo> >,_STL::_Select1st<_STL::pair<_STL::basic_string<char,_STL::char_traits<char>,_STL::allocator<char> > const ,boost::shared_ptr<TAKeyInfo> > >,_STL::less<_STL::basic_string<char,_STL::char_traits<char>,_STL::allocator<char> > >,_STL::allocator<_STL::pair<_STL::basic_string<char,_STL::char_traits<char>,_STL::allocator<char> > const ,boost::shared_ptr<TAKeyInfo> > > >::_M_find<_STL::basic_string<char,_STL::char_traits<char>,_STL::allocator<char> > >(_STL::basic_string<char,_STL::char_traits<char>,_STL::allocator<char> > const &)
PUBLIC 11890 0 _STL::_Rb_tree<_STL::basic_string<char,_STL::char_traits<char>,_STL::allocator<char> >,_STL::pair<_STL::basic_string<char,_STL::char_traits<char>,_STL::allocator<char> > const ,_STL::basic_string<char,_STL::char_traits<char>,_STL::allocator<char> > >,_STL::_Select1st<_STL::pair<_STL::basic_string<char,_STL::char_traits<char>,_STL::allocator<char> > const ,_STL::basic_string<char,_STL::char_traits<char>,_STL::allocator<char> > > >,_STL::less<_STL::basic_string<char,_STL::char_traits<char>,_STL::allocator<char> > >,_STL::allocator<_STL::pair<_STL::basic_string<char,_STL::char_traits<char>,_STL::allocator<char> > const ,_STL::basic_string<char,_STL::char_traits<char>,_STL::allocator<char> > > > >::_M_find<_STL::basic_string<char,_STL::char_traits<char>,_STL::allocator<char> > >(_STL::basic_string<char,_STL::char_traits<char>,_STL::allocator<char> > const &)
PUBLIC 11910 0 _STL::pair<_STL::basic_string<char,_STL::char_traits<char>,_STL::allocator<char> > const ,boost::shared_ptr<KeyDataInfo> >::`scalar deleting destructor'(unsigned int)
PUBLIC 11930 0 _STL::pair<_STL::basic_string<char,_STL::char_traits<char>,_STL::allocator<char> > const ,boost::shared_ptr<TAKeyInfo> >::`scalar deleting destructor'(unsigned int)
PUBLIC 11950 0 boost::detail::sp_counted_impl_p<KeyDataInfo>::`scalar deleting destructor'(unsigned int)
PUBLIC 11970 0 boost::detail::sp_counted_impl_p<KeyDataInfo>::~sp_counted_impl_p<KeyDataInfo>()
PUBLIC 11980 0 boost::detail::sp_counted_impl_p<TAKeyInfo>::`scalar deleting destructor'(unsigned int)
PUBLIC 119a0 0 boost::detail::sp_counted_impl_p<TAKeyInfo>::~sp_counted_impl_p<TAKeyInfo>()
PUBLIC 119b0 0 boost::checked_delete<KeyDataInfo>(KeyDataInfo *)
PUBLIC 119d0 0 boost::checked_delete<TAKeyInfo>(TAKeyInfo *)
PUBLIC 119f0 0 _STL::__find_if<char *,boost::escaped_list_separator<char,_STL::char_traits<char> >::char_eq>(char *,char *,boost::escaped_list_separator<char,_STL::char_traits<char> >::char_eq,_STL::random_access_iterator_tag const &)
PUBLIC 11a60 0 _STL::_Construct<_STL::pair<_STL::basic_string<char,_STL::char_traits<char>,_STL::allocator<char> > const ,_STL::basic_string<char,_STL::char_traits<char>,_STL::allocator<char> > >,_STL::pair<_STL::basic_string<char,_STL::char_traits<char>,_STL::allocator<char> > const ,_STL::basic_string<char,_STL::char_traits<char>,_STL::allocator<char> > > >(_STL::pair<_STL::basic_string<char,_STL::char_traits<char>,_STL::allocator<char> > const ,_STL::basic_string<char,_STL::char_traits<char>,_STL::allocator<char> > > *,_STL::pair<_STL::basic_string<char,_STL::char_traits<char>,_STL::allocator<char> > const ,_STL::basic_string<char,_STL::char_traits<char>,_STL::allocator<char> > > const &)
PUBLIC 11ab0 0 _STL::pair<_STL::basic_string<char,_STL::char_traits<char>,_STL::allocator<char> > const ,boost::shared_ptr<TAKeyInfo> >::pair<_STL::basic_string<char,_STL::char_traits<char>,_STL::allocator<char> > const ,boost::shared_ptr<TAKeyInfo> >(_STL::pair<_STL::basic_string<char,_STL::char_traits<char>,_STL::allocator<char> > const ,boost::shared_ptr<TAKeyInfo> > const &)
PUBLIC 11af0 0 _STL::pair<_STL::basic_string<char,_STL::char_traits<char>,_STL::allocator<char> > const ,boost::shared_ptr<KeyDataInfo> >::pair<_STL::basic_string<char,_STL::char_traits<char>,_STL::allocator<char> > const ,boost::shared_ptr<KeyDataInfo> >(_STL::pair<_STL::basic_string<char,_STL::char_traits<char>,_STL::allocator<char> > const ,boost::shared_ptr<KeyDataInfo> > const &)
PUBLIC 11b30 0 CryptoPP::Bufferless<CryptoPP::Filter>::Bufferless<CryptoPP::Filter>()
PUBLIC 11b40 0 CryptoPP::Bufferless<CryptoPP::Filter>::~Bufferless<CryptoPP::Filter>()
PUBLIC 11b50 0 CryptoPP::FilterWithBufferedInput::BlockQueue::~BlockQueue()
PUBLIC 11b80 0 CryptoPP::ConstByteArrayParameter::~ConstByteArrayParameter()
PUBLIC 11bb0 0 CryptoPP::BaseN_Decoder::~BaseN_Decoder()
PUBLIC 11bf0 0 CryptoPP::HexDecoder::~HexDecoder()
PUBLIC 11c30 0 _STL::map<_STL::basic_string<char,_STL::char_traits<char>,_STL::allocator<char> >,boost::shared_ptr<KeyDataInfo>,_STL::less<_STL::basic_string<char,_STL::char_traits<char>,_STL::allocator<char> > >,_STL::allocator<_STL::pair<_STL::basic_string<char,_STL::char_traits<char>,_STL::allocator<char> > const ,boost::shared_ptr<KeyDataInfo> > > >::begin()
PUBLIC 11c40 0 _STL::map<_STL::basic_string<char,_STL::char_traits<char>,_STL::allocator<char> >,boost::shared_ptr<KeyDataInfo>,_STL::less<_STL::basic_string<char,_STL::char_traits<char>,_STL::allocator<char> > >,_STL::allocator<_STL::pair<_STL::basic_string<char,_STL::char_traits<char>,_STL::allocator<char> > const ,boost::shared_ptr<KeyDataInfo> > > >::end()
PUBLIC 11c50 0 _STL::map<_STL::basic_string<char,_STL::char_traits<char>,_STL::allocator<char> >,boost::shared_ptr<KeyDataInfo>,_STL::less<_STL::basic_string<char,_STL::char_traits<char>,_STL::allocator<char> > >,_STL::allocator<_STL::pair<_STL::basic_string<char,_STL::char_traits<char>,_STL::allocator<char> > const ,boost::shared_ptr<KeyDataInfo> > > >::end()
PUBLIC 11c60 0 _STL::map<_STL::basic_string<char,_STL::char_traits<char>,_STL::allocator<char> >,boost::shared_ptr<TAKeyInfo>,_STL::less<_STL::basic_string<char,_STL::char_traits<char>,_STL::allocator<char> > >,_STL::allocator<_STL::pair<_STL::basic_string<char,_STL::char_traits<char>,_STL::allocator<char> > const ,boost::shared_ptr<TAKeyInfo> > > >::end()
PUBLIC 11c70 0 _STL::map<_STL::basic_string<char,_STL::char_traits<char>,_STL::allocator<char> >,_STL::basic_string<char,_STL::char_traits<char>,_STL::allocator<char> >,_STL::less<_STL::basic_string<char,_STL::char_traits<char>,_STL::allocator<char> > >,_STL::allocator<_STL::pair<_STL::basic_string<char,_STL::char_traits<char>,_STL::allocator<char> > const ,_STL::basic_string<char,_STL::char_traits<char>,_STL::allocator<char> > > > >::begin()
PUBLIC 11c80 0 _STL::map<_STL::basic_string<char,_STL::char_traits<char>,_STL::allocator<char> >,_STL::basic_string<char,_STL::char_traits<char>,_STL::allocator<char> >,_STL::less<_STL::basic_string<char,_STL::char_traits<char>,_STL::allocator<char> > >,_STL::allocator<_STL::pair<_STL::basic_string<char,_STL::char_traits<char>,_STL::allocator<char> > const ,_STL::basic_string<char,_STL::char_traits<char>,_STL::allocator<char> > > > >::end()
PUBLIC 11c90 0 CryptoPP::SecBlock<unsigned char,CryptoPP::AllocatorWithCleanup<unsigned char> >::SecBlock<unsigned char,CryptoPP::AllocatorWithCleanup<unsigned char> >(unsigned int)
PUBLIC 11cd0 0 boost::iterator_facade<boost::token_iterator<boost::escaped_list_separator<char,_STL::char_traits<char> >,char const *,_STL::basic_string<char,_STL::char_traits<char>,_STL::allocator<char> > >,_STL::basic_string<char,_STL::char_traits<char>,_STL::allocator<char> >,boost::forward_traversal_tag,_STL::basic_string<char,_STL::char_traits<char>,_STL::allocator<char> > const &,int>::operator*()
PUBLIC 11ce0 0 _STL::_Rb_tree_base<_STL::pair<_STL::basic_string<char,_STL::char_traits<char>,_STL::allocator<char> > const ,boost::shared_ptr<KeyDataInfo> >,_STL::allocator<_STL::pair<_STL::basic_string<char,_STL::char_traits<char>,_STL::allocator<char> > const ,boost::shared_ptr<KeyDataInfo> > > >::~_Rb_tree_base<_STL::pair<_STL::basic_string<char,_STL::char_traits<char>,_STL::allocator<char> > const ,boost::shared_ptr<KeyDataInfo> >,_STL::allocator<_STL::pair<_STL::basic_string<char,_STL::char_traits<char>,_STL::allocator<char> > const ,boost::shared_ptr<KeyDataInfo> > > >()
PUBLIC 11d00 0 _STL::_Rb_tree_base<_STL::pair<_STL::basic_string<char,_STL::char_traits<char>,_STL::allocator<char> > const ,boost::shared_ptr<TAKeyInfo> >,_STL::allocator<_STL::pair<_STL::basic_string<char,_STL::char_traits<char>,_STL::allocator<char> > const ,boost::shared_ptr<TAKeyInfo> > > >::~_Rb_tree_base<_STL::pair<_STL::basic_string<char,_STL::char_traits<char>,_STL::allocator<char> > const ,boost::shared_ptr<TAKeyInfo> >,_STL::allocator<_STL::pair<_STL::basic_string<char,_STL::char_traits<char>,_STL::allocator<char> > const ,boost::shared_ptr<TAKeyInfo> > > >()
PUBLIC 11d20 0 _STL::_Rb_tree_base<_STL::pair<_STL::basic_string<char,_STL::char_traits<char>,_STL::allocator<char> > const ,_STL::basic_string<char,_STL::char_traits<char>,_STL::allocator<char> > >,_STL::allocator<_STL::pair<_STL::basic_string<char,_STL::char_traits<char>,_STL::allocator<char> > const ,_STL::basic_string<char,_STL::char_traits<char>,_STL::allocator<char> > > > >::~_Rb_tree_base<_STL::pair<_STL::basic_string<char,_STL::char_traits<char>,_STL::allocator<char> > const ,_STL::basic_string<char,_STL::char_traits<char>,_STL::allocator<char> > >,_STL::allocator<_STL::pair<_STL::basic_string<char,_STL::char_traits<char>,_STL::allocator<char> > const ,_STL::basic_string<char,_STL::char_traits<char>,_STL::allocator<char> > > > >()
PUBLIC 11d40 0 CryptoPP::AllocatorWithCleanup<unsigned char>::reallocate(unsigned char *,unsigned int,unsigned int,bool)
PUBLIC 11d60 0 _STL::_Rb_tree_base<_STL::pair<_STL::basic_string<char,_STL::char_traits<char>,_STL::allocator<char> > const ,boost::shared_ptr<KeyDataInfo> >,_STL::allocator<_STL::pair<_STL::basic_string<char,_STL::char_traits<char>,_STL::allocator<char> > const ,boost::shared_ptr<KeyDataInfo> > > >::_Rb_tree_base<_STL::pair<_STL::basic_string<char,_STL::char_traits<char>,_STL::allocator<char> > const ,boost::shared_ptr<KeyDataInfo> >,_STL::allocator<_STL::pair<_STL::basic_string<char,_STL::char_traits<char>,_STL::allocator<char> > const ,boost::shared_ptr<KeyDataInfo> > > >(_STL::allocator<_STL::pair<_STL::basic_string<char,_STL::char_traits<char>,_STL::allocator<char> > const ,boost::shared_ptr<KeyDataInfo> > > const &)
PUBLIC 11d90 0 _STL::_Rb_tree_base<_STL::pair<_STL::basic_string<char,_STL::char_traits<char>,_STL::allocator<char> > const ,boost::shared_ptr<TAKeyInfo> >,_STL::allocator<_STL::pair<_STL::basic_string<char,_STL::char_traits<char>,_STL::allocator<char> > const ,boost::shared_ptr<TAKeyInfo> > > >::_Rb_tree_base<_STL::pair<_STL::basic_string<char,_STL::char_traits<char>,_STL::allocator<char> > const ,boost::shared_ptr<TAKeyInfo> >,_STL::allocator<_STL::pair<_STL::basic_string<char,_STL::char_traits<char>,_STL::allocator<char> > const ,boost::shared_ptr<TAKeyInfo> > > >(_STL::allocator<_STL::pair<_STL::basic_string<char,_STL::char_traits<char>,_STL::allocator<char> > const ,boost::shared_ptr<TAKeyInfo> > > const &)
PUBLIC 11dc0 0 _STL::_Rb_tree_base<_STL::pair<_STL::basic_string<char,_STL::char_traits<char>,_STL::allocator<char> > const ,_STL::basic_string<char,_STL::char_traits<char>,_STL::allocator<char> > >,_STL::allocator<_STL::pair<_STL::basic_string<char,_STL::char_traits<char>,_STL::allocator<char> > const ,_STL::basic_string<char,_STL::char_traits<char>,_STL::allocator<char> > > > >::_Rb_tree_base<_STL::pair<_STL::basic_string<char,_STL::char_traits<char>,_STL::allocator<char> > const ,_STL::basic_string<char,_STL::char_traits<char>,_STL::allocator<char> > >,_STL::allocator<_STL::pair<_STL::basic_string<char,_STL::char_traits<char>,_STL::allocator<char> > const ,_STL::basic_string<char,_STL::char_traits<char>,_STL::allocator<char> > > > >(_STL::allocator<_STL::pair<_STL::basic_string<char,_STL::char_traits<char>,_STL::allocator<char> > const ,_STL::basic_string<char,_STL::char_traits<char>,_STL::allocator<char> > > > const &)
PUBLIC 11df0 0 _STL::_Rb_tree<_STL::basic_string<char,_STL::char_traits<char>,_STL::allocator<char> >,_STL::pair<_STL::basic_string<char,_STL::char_traits<char>,_STL::allocator<char> > const ,boost::shared_ptr<KeyDataInfo> >,_STL::_Select1st<_STL::pair<_STL::basic_string<char,_STL::char_traits<char>,_STL::allocator<char> > const ,boost::shared_ptr<KeyDataInfo> > >,_STL::less<_STL::basic_string<char,_STL::char_traits<char>,_STL::allocator<char> > >,_STL::allocator<_STL::pair<_STL::basic_string<char,_STL::char_traits<char>,_STL::allocator<char> > const ,boost::shared_ptr<KeyDataInfo> > > >::_M_lower_bound(_STL::basic_string<char,_STL::char_traits<char>,_STL::allocator<char> > const &)
PUBLIC 11e40 0 _STL::_Rb_tree<_STL::basic_string<char,_STL::char_traits<char>,_STL::allocator<char> >,_STL::pair<_STL::basic_string<char,_STL::char_traits<char>,_STL::allocator<char> > const ,boost::shared_ptr<TAKeyInfo> >,_STL::_Select1st<_STL::pair<_STL::basic_string<char,_STL::char_traits<char>,_STL::allocator<char> > const ,boost::shared_ptr<TAKeyInfo> > >,_STL::less<_STL::basic_string<char,_STL::char_traits<char>,_STL::allocator<char> > >,_STL::allocator<_STL::pair<_STL::basic_string<char,_STL::char_traits<char>,_STL::allocator<char> > const ,boost::shared_ptr<TAKeyInfo> > > >::_M_lower_bound(_STL::basic_string<char,_STL::char_traits<char>,_STL::allocator<char> > const &)
PUBLIC 11e90 0 _STL::_Rb_tree<_STL::basic_string<char,_STL::char_traits<char>,_STL::allocator<char> >,_STL::pair<_STL::basic_string<char,_STL::char_traits<char>,_STL::allocator<char> > const ,_STL::basic_string<char,_STL::char_traits<char>,_STL::allocator<char> > >,_STL::_Select1st<_STL::pair<_STL::basic_string<char,_STL::char_traits<char>,_STL::allocator<char> > const ,_STL::basic_string<char,_STL::char_traits<char>,_STL::allocator<char> > > >,_STL::less<_STL::basic_string<char,_STL::char_traits<char>,_STL::allocator<char> > >,_STL::allocator<_STL::pair<_STL::basic_string<char,_STL::char_traits<char>,_STL::allocator<char> > const ,_STL::basic_string<char,_STL::char_traits<char>,_STL::allocator<char> > > > >::_M_lower_bound(_STL::basic_string<char,_STL::char_traits<char>,_STL::allocator<char> > const &)
PUBLIC 11ee0 0 _STL::_Rb_tree<_STL::basic_string<char,_STL::char_traits<char>,_STL::allocator<char> >,_STL::pair<_STL::basic_string<char,_STL::char_traits<char>,_STL::allocator<char> > const ,_STL::basic_string<char,_STL::char_traits<char>,_STL::allocator<char> > >,_STL::_Select1st<_STL::pair<_STL::basic_string<char,_STL::char_traits<char>,_STL::allocator<char> > const ,_STL::basic_string<char,_STL::char_traits<char>,_STL::allocator<char> > > >,_STL::less<_STL::basic_string<char,_STL::char_traits<char>,_STL::allocator<char> > >,_STL::allocator<_STL::pair<_STL::basic_string<char,_STL::char_traits<char>,_STL::allocator<char> > const ,_STL::basic_string<char,_STL::char_traits<char>,_STL::allocator<char> > > > >::_M_erase(_STL::_Rb_tree_node<_STL::pair<_STL::basic_string<char,_STL::char_traits<char>,_STL::allocator<char> > const ,_STL::basic_string<char,_STL::char_traits<char>,_STL::allocator<char> > > > *)
PUBLIC 11f20 0 boost::operator!=<boost::token_iterator<boost::escaped_list_separator<char,_STL::char_traits<char> >,char const *,_STL::basic_string<char,_STL::char_traits<char>,_STL::allocator<char> > >,_STL::basic_string<char,_STL::char_traits<char>,_STL::allocator<char> >,boost::forward_traversal_tag,_STL::basic_string<char,_STL::char_traits<char>,_STL::allocator<char> > const &,int,boost::token_iterator<boost::escaped_list_separator<char,_STL::char_traits<char> >,char const *,_STL::basic_string<char,_STL::char_traits<char>,_STL::allocator<char> > >,_STL::basic_string<char,_STL::char_traits<char>,_STL::allocator<char> >,boost::forward_traversal_tag,_STL::basic_string<char,_STL::char_traits<char>,_STL::allocator<char> > const &,int>(boost::iterator_facade<boost::token_iterator<boost::escaped_list_separator<char,_STL::char_traits<char> >,char const *,_STL::basic_string<char,_STL::char_traits<char>,_STL::allocator<char> > >,_STL::basic_string<char,_STL::char_traits<char>,_STL::allocator<char> >,boost::forward_traversal_tag,_STL::basic_string<char,_STL::char_traits<char>,_STL::allocator<char> > const &,int> const &,boost::iterator_facade<boost::token_iterator<boost::escaped_list_separator<char,_STL::char_traits<char> >,char const *,_STL::basic_string<char,_STL::char_traits<char>,_STL::allocator<char> > >,_STL::basic_string<char,_STL::char_traits<char>,_STL::allocator<char> >,boost::forward_traversal_tag,_STL::basic_string<char,_STL::char_traits<char>,_STL::allocator<char> > const &,int> const &)
PUBLIC 11f80 0 _STL::_Rb_tree<_STL::basic_string<char,_STL::char_traits<char>,_STL::allocator<char> >,_STL::pair<_STL::basic_string<char,_STL::char_traits<char>,_STL::allocator<char> > const ,boost::shared_ptr<KeyDataInfo> >,_STL::_Select1st<_STL::pair<_STL::basic_string<char,_STL::char_traits<char>,_STL::allocator<char> > const ,boost::shared_ptr<KeyDataInfo> > >,_STL::less<_STL::basic_string<char,_STL::char_traits<char>,_STL::allocator<char> > >,_STL::allocator<_STL::pair<_STL::basic_string<char,_STL::char_traits<char>,_STL::allocator<char> > const ,boost::shared_ptr<KeyDataInfo> > > >::find<_STL::basic_string<char,_STL::char_traits<char>,_STL::allocator<char> > >(_STL::basic_string<char,_STL::char_traits<char>,_STL::allocator<char> > const &)
PUBLIC 11fa0 0 _STL::_Rb_tree<_STL::basic_string<char,_STL::char_traits<char>,_STL::allocator<char> >,_STL::pair<_STL::basic_string<char,_STL::char_traits<char>,_STL::allocator<char> > const ,boost::shared_ptr<TAKeyInfo> >,_STL::_Select1st<_STL::pair<_STL::basic_string<char,_STL::char_traits<char>,_STL::allocator<char> > const ,boost::shared_ptr<TAKeyInfo> > >,_STL::less<_STL::basic_string<char,_STL::char_traits<char>,_STL::allocator<char> > >,_STL::allocator<_STL::pair<_STL::basic_string<char,_STL::char_traits<char>,_STL::allocator<char> > const ,boost::shared_ptr<TAKeyInfo> > > >::find<_STL::basic_string<char,_STL::char_traits<char>,_STL::allocator<char> > >(_STL::basic_string<char,_STL::char_traits<char>,_STL::allocator<char> > const &)
PUBLIC 11fc0 0 _STL::_Rb_tree<_STL::basic_string<char,_STL::char_traits<char>,_STL::allocator<char> >,_STL::pair<_STL::basic_string<char,_STL::char_traits<char>,_STL::allocator<char> > const ,_STL::basic_string<char,_STL::char_traits<char>,_STL::allocator<char> > >,_STL::_Select1st<_STL::pair<_STL::basic_string<char,_STL::char_traits<char>,_STL::allocator<char> > const ,_STL::basic_string<char,_STL::char_traits<char>,_STL::allocator<char> > > >,_STL::less<_STL::basic_string<char,_STL::char_traits<char>,_STL::allocator<char> > >,_STL::allocator<_STL::pair<_STL::basic_string<char,_STL::char_traits<char>,_STL::allocator<char> > const ,_STL::basic_string<char,_STL::char_traits<char>,_STL::allocator<char> > > > >::find<_STL::basic_string<char,_STL::char_traits<char>,_STL::allocator<char> > >(_STL::basic_string<char,_STL::char_traits<char>,_STL::allocator<char> > const &)
PUBLIC 11fe0 0 CryptoPP::ConstByteArrayParameter::ConstByteArrayParameter(CryptoPP::ConstByteArrayParameter const &)
PUBLIC 12040 0 _STL::_Destroy<_STL::pair<_STL::basic_string<char,_STL::char_traits<char>,_STL::allocator<char> > const ,boost::shared_ptr<KeyDataInfo> > >(_STL::pair<_STL::basic_string<char,_STL::char_traits<char>,_STL::allocator<char> > const ,boost::shared_ptr<KeyDataInfo> > *)
PUBLIC 12050 0 _STL::_Destroy<_STL::pair<_STL::basic_string<char,_STL::char_traits<char>,_STL::allocator<char> > const ,boost::shared_ptr<TAKeyInfo> > >(_STL::pair<_STL::basic_string<char,_STL::char_traits<char>,_STL::allocator<char> > const ,boost::shared_ptr<TAKeyInfo> > *)
PUBLIC 12060 0 boost::detail::shared_count::shared_count<KeyDataInfo>(KeyDataInfo *)
PUBLIC 120f0 0 boost::detail::shared_count::shared_count<TAKeyInfo>(TAKeyInfo *)
PUBLIC 12180 0 _STL::find_if<char *,boost::escaped_list_separator<char,_STL::char_traits<char> >::char_eq>(char *,char *,boost::escaped_list_separator<char,_STL::char_traits<char> >::char_eq)
PUBLIC 121a0 0 _STL::_Rb_tree<_STL::basic_string<char,_STL::char_traits<char>,_STL::allocator<char> >,_STL::pair<_STL::basic_string<char,_STL::char_traits<char>,_STL::allocator<char> > const ,_STL::basic_string<char,_STL::char_traits<char>,_STL::allocator<char> > >,_STL::_Select1st<_STL::pair<_STL::basic_string<char,_STL::char_traits<char>,_STL::allocator<char> > const ,_STL::basic_string<char,_STL::char_traits<char>,_STL::allocator<char> > > >,_STL::less<_STL::basic_string<char,_STL::char_traits<char>,_STL::allocator<char> > >,_STL::allocator<_STL::pair<_STL::basic_string<char,_STL::char_traits<char>,_STL::allocator<char> > const ,_STL::basic_string<char,_STL::char_traits<char>,_STL::allocator<char> > > > >::_M_create_node(_STL::pair<_STL::basic_string<char,_STL::char_traits<char>,_STL::allocator<char> > const ,_STL::basic_string<char,_STL::char_traits<char>,_STL::allocator<char> > > const &)
PUBLIC 12230 0 boost::detail::sp_counted_impl_p<KeyDataInfo>::dispose()
PUBLIC 12250 0 boost::detail::sp_counted_impl_p<TAKeyInfo>::dispose()
PUBLIC 12270 0 _STL::_Construct<_STL::pair<_STL::basic_string<char,_STL::char_traits<char>,_STL::allocator<char> > const ,boost::shared_ptr<KeyDataInfo> >,_STL::pair<_STL::basic_string<char,_STL::char_traits<char>,_STL::allocator<char> > const ,boost::shared_ptr<KeyDataInfo> > >(_STL::pair<_STL::basic_string<char,_STL::char_traits<char>,_STL::allocator<char> > const ,boost::shared_ptr<KeyDataInfo> > *,_STL::pair<_STL::basic_string<char,_STL::char_traits<char>,_STL::allocator<char> > const ,boost::shared_ptr<KeyDataInfo> > const &)
PUBLIC 122e0 0 _STL::_Construct<_STL::pair<_STL::basic_string<char,_STL::char_traits<char>,_STL::allocator<char> > const ,boost::shared_ptr<TAKeyInfo> >,_STL::pair<_STL::basic_string<char,_STL::char_traits<char>,_STL::allocator<char> > const ,boost::shared_ptr<TAKeyInfo> > >(_STL::pair<_STL::basic_string<char,_STL::char_traits<char>,_STL::allocator<char> > const ,boost::shared_ptr<TAKeyInfo> > *,_STL::pair<_STL::basic_string<char,_STL::char_traits<char>,_STL::allocator<char> > const ,boost::shared_ptr<TAKeyInfo> > const &)
PUBLIC 12350 0 CryptoPP::FilterWithBufferedInput::~FilterWithBufferedInput()
PUBLIC 12390 0 CryptoPP::BaseN_Encoder::BaseN_Encoder(CryptoPP::BufferedTransformation *)
PUBLIC 12400 0 CryptoPP::Filter::Attachable()
PUBLIC 12410 0 CryptoPP::Filter::ShouldPropagateMessageEnd()
PUBLIC 12420 0 CryptoPP::Filter::ShouldPropagateMessageSeriesEnd()
PUBLIC 12430 0 CryptoPP::Unflushable<CryptoPP::Filter>::Flush(bool,int,bool)
PUBLIC 12450 0 CryptoPP::Unflushable<CryptoPP::Filter>::IsolatedFlush(bool,bool)
PUBLIC 12460 0 CryptoPP::Unflushable<CryptoPP::Filter>::ChannelFlush(_STL::basic_string<char,_STL::char_traits<char>,_STL::allocator<char> > const &,bool,int,bool)
PUBLIC 12530 0 CryptoPP::CannotFlush::~CannotFlush()
PUBLIC 12540 0 CryptoPP::Unflushable<CryptoPP::Filter>::InputBufferIsEmpty()
PUBLIC 12550 0 CryptoPP::CannotFlush::CannotFlush(CryptoPP::CannotFlush const &)
PUBLIC 12570 0 CryptoPP::CannotFlush::`vector deleting destructor'(unsigned int)
PUBLIC 12590 0 CryptoPP::BaseN_Encoder::`vector deleting destructor'(unsigned int)
PUBLIC 125b0 0 CryptoPP::BaseN_Encoder::~BaseN_Encoder()
PUBLIC 125f0 0 CryptoPP::Grouper::Grouper(CryptoPP::BufferedTransformation *)
PUBLIC 12660 0 CryptoPP::Bufferless<CryptoPP::Filter>::IsolatedFlush(bool,bool)
PUBLIC 12670 0 CryptoPP::Grouper::`scalar deleting destructor'(unsigned int)
PUBLIC 12690 0 CryptoPP::Grouper::~Grouper()
PUBLIC 126f0 0 KeyManager::checkNearKeyExpiration()
PUBLIC 127d0 0 _STL::map<_STL::basic_string<char,_STL::char_traits<char>,_STL::allocator<char> >,boost::shared_ptr<KeyDataInfo>,_STL::less<_STL::basic_string<char,_STL::char_traits<char>,_STL::allocator<char> > >,_STL::allocator<_STL::pair<_STL::basic_string<char,_STL::char_traits<char>,_STL::allocator<char> > const ,boost::shared_ptr<KeyDataInfo> > > >::find(_STL::basic_string<char,_STL::char_traits<char>,_STL::allocator<char> > const &)
PUBLIC 127f0 0 _STL::map<_STL::basic_string<char,_STL::char_traits<char>,_STL::allocator<char> >,boost::shared_ptr<TAKeyInfo>,_STL::less<_STL::basic_string<char,_STL::char_traits<char>,_STL::allocator<char> > >,_STL::allocator<_STL::pair<_STL::basic_string<char,_STL::char_traits<char>,_STL::allocator<char> > const ,boost::shared_ptr<TAKeyInfo> > > >::find(_STL::basic_string<char,_STL::char_traits<char>,_STL::allocator<char> > const &)
PUBLIC 12810 0 _STL::map<_STL::basic_string<char,_STL::char_traits<char>,_STL::allocator<char> >,_STL::basic_string<char,_STL::char_traits<char>,_STL::allocator<char> >,_STL::less<_STL::basic_string<char,_STL::char_traits<char>,_STL::allocator<char> > >,_STL::allocator<_STL::pair<_STL::basic_string<char,_STL::char_traits<char>,_STL::allocator<char> > const ,_STL::basic_string<char,_STL::char_traits<char>,_STL::allocator<char> > > > >::find(_STL::basic_string<char,_STL::char_traits<char>,_STL::allocator<char> > const &)
PUBLIC 12830 0 CryptoPP::SecBlock<unsigned char,CryptoPP::AllocatorWithCleanup<unsigned char> >::New(unsigned int)
PUBLIC 128a0 0 _STL::_Rb_tree<_STL::basic_string<char,_STL::char_traits<char>,_STL::allocator<char> >,_STL::pair<_STL::basic_string<char,_STL::char_traits<char>,_STL::allocator<char> > const ,boost::shared_ptr<KeyDataInfo> >,_STL::_Select1st<_STL::pair<_STL::basic_string<char,_STL::char_traits<char>,_STL::allocator<char> > const ,boost::shared_ptr<KeyDataInfo> > >,_STL::less<_STL::basic_string<char,_STL::char_traits<char>,_STL::allocator<char> > >,_STL::allocator<_STL::pair<_STL::basic_string<char,_STL::char_traits<char>,_STL::allocator<char> > const ,boost::shared_ptr<KeyDataInfo> > > >::_Rb_tree<_STL::basic_string<char,_STL::char_traits<char>,_STL::allocator<char> >,_STL::pair<_STL::basic_string<char,_STL::char_traits<char>,_STL::allocator<char> > const ,boost::shared_ptr<KeyDataInfo> >,_STL::_Select1st<_STL::pair<_STL::basic_string<char,_STL::char_traits<char>,_STL::allocator<char> > const ,boost::shared_ptr<KeyDataInfo> > >,_STL::less<_STL::basic_string<char,_STL::char_traits<char>,_STL::allocator<char> > >,_STL::allocator<_STL::pair<_STL::basic_string<char,_STL::char_traits<char>,_STL::allocator<char> > const ,boost::shared_ptr<KeyDataInfo> > > >(_STL::less<_STL::basic_string<char,_STL::char_traits<char>,_STL::allocator<char> > > const &,_STL::allocator<_STL::pair<_STL::basic_string<char,_STL::char_traits<char>,_STL::allocator<char> > const ,boost::shared_ptr<KeyDataInfo> > > const &)
PUBLIC 128e0 0 _STL::_Rb_tree<_STL::basic_string<char,_STL::char_traits<char>,_STL::allocator<char> >,_STL::pair<_STL::basic_string<char,_STL::char_traits<char>,_STL::allocator<char> > const ,boost::shared_ptr<TAKeyInfo> >,_STL::_Select1st<_STL::pair<_STL::basic_string<char,_STL::char_traits<char>,_STL::allocator<char> > const ,boost::shared_ptr<TAKeyInfo> > >,_STL::less<_STL::basic_string<char,_STL::char_traits<char>,_STL::allocator<char> > >,_STL::allocator<_STL::pair<_STL::basic_string<char,_STL::char_traits<char>,_STL::allocator<char> > const ,boost::shared_ptr<TAKeyInfo> > > >::_Rb_tree<_STL::basic_string<char,_STL::char_traits<char>,_STL::allocator<char> >,_STL::pair<_STL::basic_string<char,_STL::char_traits<char>,_STL::allocator<char> > const ,boost::shared_ptr<TAKeyInfo> >,_STL::_Select1st<_STL::pair<_STL::basic_string<char,_STL::char_traits<char>,_STL::allocator<char> > const ,boost::shared_ptr<TAKeyInfo> > >,_STL::less<_STL::basic_string<char,_STL::char_traits<char>,_STL::allocator<char> > >,_STL::allocator<_STL::pair<_STL::basic_string<char,_STL::char_traits<char>,_STL::allocator<char> > const ,boost::shared_ptr<TAKeyInfo> > > >(_STL::less<_STL::basic_string<char,_STL::char_traits<char>,_STL::allocator<char> > > const &,_STL::allocator<_STL::pair<_STL::basic_string<char,_STL::char_traits<char>,_STL::allocator<char> > const ,boost::shared_ptr<TAKeyInfo> > > const &)
PUBLIC 12920 0 _STL::_Rb_tree<_STL::basic_string<char,_STL::char_traits<char>,_STL::allocator<char> >,_STL::pair<_STL::basic_string<char,_STL::char_traits<char>,_STL::allocator<char> > const ,_STL::basic_string<char,_STL::char_traits<char>,_STL::allocator<char> > >,_STL::_Select1st<_STL::pair<_STL::basic_string<char,_STL::char_traits<char>,_STL::allocator<char> > const ,_STL::basic_string<char,_STL::char_traits<char>,_STL::allocator<char> > > >,_STL::less<_STL::basic_string<char,_STL::char_traits<char>,_STL::allocator<char> > >,_STL::allocator<_STL::pair<_STL::basic_string<char,_STL::char_traits<char>,_STL::allocator<char> > const ,_STL::basic_string<char,_STL::char_traits<char>,_STL::allocator<char> > > > >::_Rb_tree<_STL::basic_string<char,_STL::char_traits<char>,_STL::allocator<char> >,_STL::pair<_STL::basic_string<char,_STL::char_traits<char>,_STL::allocator<char> > const ,_STL::basic_string<char,_STL::char_traits<char>,_STL::allocator<char> > >,_STL::_Select1st<_STL::pair<_STL::basic_string<char,_STL::char_traits<char>,_STL::allocator<char> > const ,_STL::basic_string<char,_STL::char_traits<char>,_STL::allocator<char> > > >,_STL::less<_STL::basic_string<char,_STL::char_traits<char>,_STL::allocator<char> > >,_STL::allocator<_STL::pair<_STL::basic_string<char,_STL::char_traits<char>,_STL::allocator<char> > const ,_STL::basic_string<char,_STL::char_traits<char>,_STL::allocator<char> > > > >(_STL::less<_STL::basic_string<char,_STL::char_traits<char>,_STL::allocator<char> > > const &,_STL::allocator<_STL::pair<_STL::basic_string<char,_STL::char_traits<char>,_STL::allocator<char> > const ,_STL::basic_string<char,_STL::char_traits<char>,_STL::allocator<char> > > > const &)
PUBLIC 12960 0 _STL::_Rb_tree<_STL::basic_string<char,_STL::char_traits<char>,_STL::allocator<char> >,_STL::pair<_STL::basic_string<char,_STL::char_traits<char>,_STL::allocator<char> > const ,_STL::basic_string<char,_STL::char_traits<char>,_STL::allocator<char> > >,_STL::_Select1st<_STL::pair<_STL::basic_string<char,_STL::char_traits<char>,_STL::allocator<char> > const ,_STL::basic_string<char,_STL::char_traits<char>,_STL::allocator<char> > > >,_STL::less<_STL::basic_string<char,_STL::char_traits<char>,_STL::allocator<char> > >,_STL::allocator<_STL::pair<_STL::basic_string<char,_STL::char_traits<char>,_STL::allocator<char> > const ,_STL::basic_string<char,_STL::char_traits<char>,_STL::allocator<char> > > > >::clear()
PUBLIC 129a0 0 _STL::_Rb_tree<_STL::basic_string<char,_STL::char_traits<char>,_STL::allocator<char> >,_STL::pair<_STL::basic_string<char,_STL::char_traits<char>,_STL::allocator<char> > const ,boost::shared_ptr<KeyDataInfo> >,_STL::_Select1st<_STL::pair<_STL::basic_string<char,_STL::char_traits<char>,_STL::allocator<char> > const ,boost::shared_ptr<KeyDataInfo> > >,_STL::less<_STL::basic_string<char,_STL::char_traits<char>,_STL::allocator<char> > >,_STL::allocator<_STL::pair<_STL::basic_string<char,_STL::char_traits<char>,_STL::allocator<char> > const ,boost::shared_ptr<KeyDataInfo> > > >::lower_bound(_STL::basic_string<char,_STL::char_traits<char>,_STL::allocator<char> > const &)
PUBLIC 129c0 0 _STL::_Rb_tree<_STL::basic_string<char,_STL::char_traits<char>,_STL::allocator<char> >,_STL::pair<_STL::basic_string<char,_STL::char_traits<char>,_STL::allocator<char> > const ,boost::shared_ptr<TAKeyInfo> >,_STL::_Select1st<_STL::pair<_STL::basic_string<char,_STL::char_traits<char>,_STL::allocator<char> > const ,boost::shared_ptr<TAKeyInfo> > >,_STL::less<_STL::basic_string<char,_STL::char_traits<char>,_STL::allocator<char> > >,_STL::allocator<_STL::pair<_STL::basic_string<char,_STL::char_traits<char>,_STL::allocator<char> > const ,boost::shared_ptr<TAKeyInfo> > > >::lower_bound(_STL::basic_string<char,_STL::char_traits<char>,_STL::allocator<char> > const &)
PUBLIC 129e0 0 _STL::_Rb_tree<_STL::basic_string<char,_STL::char_traits<char>,_STL::allocator<char> >,_STL::pair<_STL::basic_string<char,_STL::char_traits<char>,_STL::allocator<char> > const ,_STL::basic_string<char,_STL::char_traits<char>,_STL::allocator<char> > >,_STL::_Select1st<_STL::pair<_STL::basic_string<char,_STL::char_traits<char>,_STL::allocator<char> > const ,_STL::basic_string<char,_STL::char_traits<char>,_STL::allocator<char> > > >,_STL::less<_STL::basic_string<char,_STL::char_traits<char>,_STL::allocator<char> > >,_STL::allocator<_STL::pair<_STL::basic_string<char,_STL::char_traits<char>,_STL::allocator<char> > const ,_STL::basic_string<char,_STL::char_traits<char>,_STL::allocator<char> > > > >::lower_bound(_STL::basic_string<char,_STL::char_traits<char>,_STL::allocator<char> > const &)
PUBLIC 12a00 0 _STL::_Rb_tree<_STL::basic_string<char,_STL::char_traits<char>,_STL::allocator<char> >,_STL::pair<_STL::basic_string<char,_STL::char_traits<char>,_STL::allocator<char> > const ,boost::shared_ptr<KeyDataInfo> >,_STL::_Select1st<_STL::pair<_STL::basic_string<char,_STL::char_traits<char>,_STL::allocator<char> > const ,boost::shared_ptr<KeyDataInfo> > >,_STL::less<_STL::basic_string<char,_STL::char_traits<char>,_STL::allocator<char> > >,_STL::allocator<_STL::pair<_STL::basic_string<char,_STL::char_traits<char>,_STL::allocator<char> > const ,boost::shared_ptr<KeyDataInfo> > > >::_M_erase(_STL::_Rb_tree_node<_STL::pair<_STL::basic_string<char,_STL::char_traits<char>,_STL::allocator<char> > const ,boost::shared_ptr<KeyDataInfo> > > *)
PUBLIC 12a40 0 _STL::_Rb_tree<_STL::basic_string<char,_STL::char_traits<char>,_STL::allocator<char> >,_STL::pair<_STL::basic_string<char,_STL::char_traits<char>,_STL::allocator<char> > const ,boost::shared_ptr<TAKeyInfo> >,_STL::_Select1st<_STL::pair<_STL::basic_string<char,_STL::char_traits<char>,_STL::allocator<char> > const ,boost::shared_ptr<TAKeyInfo> > >,_STL::less<_STL::basic_string<char,_STL::char_traits<char>,_STL::allocator<char> > >,_STL::allocator<_STL::pair<_STL::basic_string<char,_STL::char_traits<char>,_STL::allocator<char> > const ,boost::shared_ptr<TAKeyInfo> > > >::_M_erase(_STL::_Rb_tree_node<_STL::pair<_STL::basic_string<char,_STL::char_traits<char>,_STL::allocator<char> > const ,boost::shared_ptr<TAKeyInfo> > > *)
PUBLIC 12a80 0 boost::shared_ptr<KeyDataInfo>::shared_ptr<KeyDataInfo><KeyDataInfo>(KeyDataInfo *)
PUBLIC 12aa0 0 boost::shared_ptr<TAKeyInfo>::shared_ptr<TAKeyInfo><TAKeyInfo>(TAKeyInfo *)
PUBLIC 12ac0 0 boost::escaped_list_separator<char,_STL::char_traits<char> >::is_escape(char)
PUBLIC 12af0 0 boost::escaped_list_separator<char,_STL::char_traits<char> >::is_c(char)
PUBLIC 12b20 0 boost::escaped_list_separator<char,_STL::char_traits<char> >::is_quote(char)
PUBLIC 12b50 0 _STL::_Rb_tree<_STL::basic_string<char,_STL::char_traits<char>,_STL::allocator<char> >,_STL::pair<_STL::basic_string<char,_STL::char_traits<char>,_STL::allocator<char> > const ,_STL::basic_string<char,_STL::char_traits<char>,_STL::allocator<char> > >,_STL::_Select1st<_STL::pair<_STL::basic_string<char,_STL::char_traits<char>,_STL::allocator<char> > const ,_STL::basic_string<char,_STL::char_traits<char>,_STL::allocator<char> > > >,_STL::less<_STL::basic_string<char,_STL::char_traits<char>,_STL::allocator<char> > >,_STL::allocator<_STL::pair<_STL::basic_string<char,_STL::char_traits<char>,_STL::allocator<char> > const ,_STL::basic_string<char,_STL::char_traits<char>,_STL::allocator<char> > > > >::_M_insert(_STL::_Rb_tree_node_base *,_STL::_Rb_tree_node_base *,_STL::pair<_STL::basic_string<char,_STL::char_traits<char>,_STL::allocator<char> > const ,_STL::basic_string<char,_STL::char_traits<char>,_STL::allocator<char> > > const &,_STL::_Rb_tree_node_base *)
PUBLIC 12c00 0 _STL::_Rb_tree<_STL::basic_string<char,_STL::char_traits<char>,_STL::allocator<char> >,_STL::pair<_STL::basic_string<char,_STL::char_traits<char>,_STL::allocator<char> > const ,_STL::basic_string<char,_STL::char_traits<char>,_STL::allocator<char> > >,_STL::_Select1st<_STL::pair<_STL::basic_string<char,_STL::char_traits<char>,_STL::allocator<char> > const ,_STL::basic_string<char,_STL::char_traits<char>,_STL::allocator<char> > > >,_STL::less<_STL::basic_string<char,_STL::char_traits<char>,_STL::allocator<char> > >,_STL::allocator<_STL::pair<_STL::basic_string<char,_STL::char_traits<char>,_STL::allocator<char> > const ,_STL::basic_string<char,_STL::char_traits<char>,_STL::allocator<char> > > > >::insert_unique(_STL::pair<_STL::basic_string<char,_STL::char_traits<char>,_STL::allocator<char> > const ,_STL::basic_string<char,_STL::char_traits<char>,_STL::allocator<char> > > const &)
PUBLIC 12d00 0 boost::escaped_list_separator<char,_STL::char_traits<char> >::do_escape<char const *,_STL::basic_string<char,_STL::char_traits<char>,_STL::allocator<char> > >(char const * &,char const *,_STL::basic_string<char,_STL::char_traits<char>,_STL::allocator<char> > &)
PUBLIC 12e70 0 boost::escaped_list_error::escaped_list_error(boost::escaped_list_error const &)
PUBLIC 12eb0 0 _STL::_Rb_tree<_STL::basic_string<char,_STL::char_traits<char>,_STL::allocator<char> >,_STL::pair<_STL::basic_string<char,_STL::char_traits<char>,_STL::allocator<char> > const ,boost::shared_ptr<KeyDataInfo> >,_STL::_Select1st<_STL::pair<_STL::basic_string<char,_STL::char_traits<char>,_STL::allocator<char> > const ,boost::shared_ptr<KeyDataInfo> > >,_STL::less<_STL::basic_string<char,_STL::char_traits<char>,_STL::allocator<char> > >,_STL::allocator<_STL::pair<_STL::basic_string<char,_STL::char_traits<char>,_STL::allocator<char> > const ,boost::shared_ptr<KeyDataInfo> > > >::_M_create_node(_STL::pair<_STL::basic_string<char,_STL::char_traits<char>,_STL::allocator<char> > const ,boost::shared_ptr<KeyDataInfo> > const &)
PUBLIC 12f30 0 _STL::_Rb_tree<_STL::basic_string<char,_STL::char_traits<char>,_STL::allocator<char> >,_STL::pair<_STL::basic_string<char,_STL::char_traits<char>,_STL::allocator<char> > const ,boost::shared_ptr<TAKeyInfo> >,_STL::_Select1st<_STL::pair<_STL::basic_string<char,_STL::char_traits<char>,_STL::allocator<char> > const ,boost::shared_ptr<TAKeyInfo> > >,_STL::less<_STL::basic_string<char,_STL::char_traits<char>,_STL::allocator<char> > >,_STL::allocator<_STL::pair<_STL::basic_string<char,_STL::char_traits<char>,_STL::allocator<char> > const ,boost::shared_ptr<TAKeyInfo> > > >::_M_create_node(_STL::pair<_STL::basic_string<char,_STL::char_traits<char>,_STL::allocator<char> > const ,boost::shared_ptr<TAKeyInfo> > const &)
PUBLIC 12fb0 0 CryptoPP::ProxyFilter::~ProxyFilter()
PUBLIC 13030 0 CryptoPP::SimpleProxyFilter::~SimpleProxyFilter()
PUBLIC 13040 0 KeyManager::releaseKey(ParamKeyCheckType const &)
PUBLIC 132f0 0 CryptoPP::DefaultEncryptorWithMAC::~DefaultEncryptorWithMAC()
PUBLIC 13350 0 _STL::_Rb_tree<_STL::basic_string<char,_STL::char_traits<char>,_STL::allocator<char> >,_STL::pair<_STL::basic_string<char,_STL::char_traits<char>,_STL::allocator<char> > const ,_STL::basic_string<char,_STL::char_traits<char>,_STL::allocator<char> > >,_STL::_Select1st<_STL::pair<_STL::basic_string<char,_STL::char_traits<char>,_STL::allocator<char> > const ,_STL::basic_string<char,_STL::char_traits<char>,_STL::allocator<char> > > >,_STL::less<_STL::basic_string<char,_STL::char_traits<char>,_STL::allocator<char> > >,_STL::allocator<_STL::pair<_STL::basic_string<char,_STL::char_traits<char>,_STL::allocator<char> > const ,_STL::basic_string<char,_STL::char_traits<char>,_STL::allocator<char> > > > >::~_Rb_tree<_STL::basic_string<char,_STL::char_traits<char>,_STL::allocator<char> >,_STL::pair<_STL::basic_string<char,_STL::char_traits<char>,_STL::allocator<char> > const ,_STL::basic_string<char,_STL::char_traits<char>,_STL::allocator<char> > >,_STL::_Select1st<_STL::pair<_STL::basic_string<char,_STL::char_traits<char>,_STL::allocator<char> > const ,_STL::basic_string<char,_STL::char_traits<char>,_STL::allocator<char> > > >,_STL::less<_STL::basic_string<char,_STL::char_traits<char>,_STL::allocator<char> > >,_STL::allocator<_STL::pair<_STL::basic_string<char,_STL::char_traits<char>,_STL::allocator<char> > const ,_STL::basic_string<char,_STL::char_traits<char>,_STL::allocator<char> > > > >()
PUBLIC 133d0 0 CryptoPP::SecBlock<unsigned char,CryptoPP::AllocatorWithCleanup<unsigned char> >::Assign(unsigned char const *,unsigned int)
PUBLIC 13400 0 _STL::map<_STL::basic_string<char,_STL::char_traits<char>,_STL::allocator<char> >,boost::shared_ptr<KeyDataInfo>,_STL::less<_STL::basic_string<char,_STL::char_traits<char>,_STL::allocator<char> > >,_STL::allocator<_STL::pair<_STL::basic_string<char,_STL::char_traits<char>,_STL::allocator<char> > const ,boost::shared_ptr<KeyDataInfo> > > >::lower_bound(_STL::basic_string<char,_STL::char_traits<char>,_STL::allocator<char> > const &)
PUBLIC 13420 0 _STL::_Rb_tree<_STL::basic_string<char,_STL::char_traits<char>,_STL::allocator<char> >,_STL::pair<_STL::basic_string<char,_STL::char_traits<char>,_STL::allocator<char> > const ,boost::shared_ptr<KeyDataInfo> >,_STL::_Select1st<_STL::pair<_STL::basic_string<char,_STL::char_traits<char>,_STL::allocator<char> > const ,boost::shared_ptr<KeyDataInfo> > >,_STL::less<_STL::basic_string<char,_STL::char_traits<char>,_STL::allocator<char> > >,_STL::allocator<_STL::pair<_STL::basic_string<char,_STL::char_traits<char>,_STL::allocator<char> > const ,boost::shared_ptr<KeyDataInfo> > > >::clear()
PUBLIC 13460 0 _STL::map<_STL::basic_string<char,_STL::char_traits<char>,_STL::allocator<char> >,boost::shared_ptr<TAKeyInfo>,_STL::less<_STL::basic_string<char,_STL::char_traits<char>,_STL::allocator<char> > >,_STL::allocator<_STL::pair<_STL::basic_string<char,_STL::char_traits<char>,_STL::allocator<char> > const ,boost::shared_ptr<TAKeyInfo> > > >::lower_bound(_STL::basic_string<char,_STL::char_traits<char>,_STL::allocator<char> > const &)
PUBLIC 13480 0 _STL::_Rb_tree<_STL::basic_string<char,_STL::char_traits<char>,_STL::allocator<char> >,_STL::pair<_STL::basic_string<char,_STL::char_traits<char>,_STL::allocator<char> > const ,boost::shared_ptr<TAKeyInfo> >,_STL::_Select1st<_STL::pair<_STL::basic_string<char,_STL::char_traits<char>,_STL::allocator<char> > const ,boost::shared_ptr<TAKeyInfo> > >,_STL::less<_STL::basic_string<char,_STL::char_traits<char>,_STL::allocator<char> > >,_STL::allocator<_STL::pair<_STL::basic_string<char,_STL::char_traits<char>,_STL::allocator<char> > const ,boost::shared_ptr<TAKeyInfo> > > >::clear()
PUBLIC 134c0 0 _STL::map<_STL::basic_string<char,_STL::char_traits<char>,_STL::allocator<char> >,_STL::basic_string<char,_STL::char_traits<char>,_STL::allocator<char> >,_STL::less<_STL::basic_string<char,_STL::char_traits<char>,_STL::allocator<char> > >,_STL::allocator<_STL::pair<_STL::basic_string<char,_STL::char_traits<char>,_STL::allocator<char> > const ,_STL::basic_string<char,_STL::char_traits<char>,_STL::allocator<char> > > > >::lower_bound(_STL::basic_string<char,_STL::char_traits<char>,_STL::allocator<char> > const &)
PUBLIC 134e0 0 _STL::_Rb_tree<_STL::basic_string<char,_STL::char_traits<char>,_STL::allocator<char> >,_STL::pair<_STL::basic_string<char,_STL::char_traits<char>,_STL::allocator<char> > const ,_STL::basic_string<char,_STL::char_traits<char>,_STL::allocator<char> > >,_STL::_Select1st<_STL::pair<_STL::basic_string<char,_STL::char_traits<char>,_STL::allocator<char> > const ,_STL::basic_string<char,_STL::char_traits<char>,_STL::allocator<char> > > >,_STL::less<_STL::basic_string<char,_STL::char_traits<char>,_STL::allocator<char> > >,_STL::allocator<_STL::pair<_STL::basic_string<char,_STL::char_traits<char>,_STL::allocator<char> > const ,_STL::basic_string<char,_STL::char_traits<char>,_STL::allocator<char> > > > >::insert_unique(_STL::_Rb_tree_iterator<_STL::pair<_STL::basic_string<char,_STL::char_traits<char>,_STL::allocator<char> > const ,_STL::basic_string<char,_STL::char_traits<char>,_STL::allocator<char> > >,_STL::_Nonconst_traits<_STL::pair<_STL::basic_string<char,_STL::char_traits<char>,_STL::allocator<char> > const ,_STL::basic_string<char,_STL::char_traits<char>,_STL::allocator<char> > > > >,_STL::pair<_STL::basic_string<char,_STL::char_traits<char>,_STL::allocator<char> > const ,_STL::basic_string<char,_STL::char_traits<char>,_STL::allocator<char> > > const &)
PUBLIC 137a0 0 boost::escaped_list_separator<char,_STL::char_traits<char> >::operator()<char const *,_STL::basic_string<char,_STL::char_traits<char>,_STL::allocator<char> > >(char const * &,char const *,_STL::basic_string<char,_STL::char_traits<char>,_STL::allocator<char> > &)
PUBLIC 13920 0 boost::token_iterator<boost::escaped_list_separator<char,_STL::char_traits<char> >,char const *,_STL::basic_string<char,_STL::char_traits<char>,_STL::allocator<char> > >::increment()
PUBLIC 13940 0 _STL::_Rb_tree<_STL::basic_string<char,_STL::char_traits<char>,_STL::allocator<char> >,_STL::pair<_STL::basic_string<char,_STL::char_traits<char>,_STL::allocator<char> > const ,boost::shared_ptr<KeyDataInfo> >,_STL::_Select1st<_STL::pair<_STL::basic_string<char,_STL::char_traits<char>,_STL::allocator<char> > const ,boost::shared_ptr<KeyDataInfo> > >,_STL::less<_STL::basic_string<char,_STL::char_traits<char>,_STL::allocator<char> > >,_STL::allocator<_STL::pair<_STL::basic_string<char,_STL::char_traits<char>,_STL::allocator<char> > const ,boost::shared_ptr<KeyDataInfo> > > >::_M_insert(_STL::_Rb_tree_node_base *,_STL::_Rb_tree_node_base *,_STL::pair<_STL::basic_string<char,_STL::char_traits<char>,_STL::allocator<char> > const ,boost::shared_ptr<KeyDataInfo> > const &,_STL::_Rb_tree_node_base *)
PUBLIC 139f0 0 _STL::_Rb_tree<_STL::basic_string<char,_STL::char_traits<char>,_STL::allocator<char> >,_STL::pair<_STL::basic_string<char,_STL::char_traits<char>,_STL::allocator<char> > const ,boost::shared_ptr<KeyDataInfo> >,_STL::_Select1st<_STL::pair<_STL::basic_string<char,_STL::char_traits<char>,_STL::allocator<char> > const ,boost::shared_ptr<KeyDataInfo> > >,_STL::less<_STL::basic_string<char,_STL::char_traits<char>,_STL::allocator<char> > >,_STL::allocator<_STL::pair<_STL::basic_string<char,_STL::char_traits<char>,_STL::allocator<char> > const ,boost::shared_ptr<KeyDataInfo> > > >::insert_unique(_STL::pair<_STL::basic_string<char,_STL::char_traits<char>,_STL::allocator<char> > const ,boost::shared_ptr<KeyDataInfo> > const &)
PUBLIC 13af0 0 _STL::_Rb_tree<_STL::basic_string<char,_STL::char_traits<char>,_STL::allocator<char> >,_STL::pair<_STL::basic_string<char,_STL::char_traits<char>,_STL::allocator<char> > const ,boost::shared_ptr<TAKeyInfo> >,_STL::_Select1st<_STL::pair<_STL::basic_string<char,_STL::char_traits<char>,_STL::allocator<char> > const ,boost::shared_ptr<TAKeyInfo> > >,_STL::less<_STL::basic_string<char,_STL::char_traits<char>,_STL::allocator<char> > >,_STL::allocator<_STL::pair<_STL::basic_string<char,_STL::char_traits<char>,_STL::allocator<char> > const ,boost::shared_ptr<TAKeyInfo> > > >::_M_insert(_STL::_Rb_tree_node_base *,_STL::_Rb_tree_node_base *,_STL::pair<_STL::basic_string<char,_STL::char_traits<char>,_STL::allocator<char> > const ,boost::shared_ptr<TAKeyInfo> > const &,_STL::_Rb_tree_node_base *)
PUBLIC 13ba0 0 _STL::_Rb_tree<_STL::basic_string<char,_STL::char_traits<char>,_STL::allocator<char> >,_STL::pair<_STL::basic_string<char,_STL::char_traits<char>,_STL::allocator<char> > const ,boost::shared_ptr<TAKeyInfo> >,_STL::_Select1st<_STL::pair<_STL::basic_string<char,_STL::char_traits<char>,_STL::allocator<char> > const ,boost::shared_ptr<TAKeyInfo> > >,_STL::less<_STL::basic_string<char,_STL::char_traits<char>,_STL::allocator<char> > >,_STL::allocator<_STL::pair<_STL::basic_string<char,_STL::char_traits<char>,_STL::allocator<char> > const ,boost::shared_ptr<TAKeyInfo> > > >::insert_unique(_STL::pair<_STL::basic_string<char,_STL::char_traits<char>,_STL::allocator<char> > const ,boost::shared_ptr<TAKeyInfo> > const &)
PUBLIC 13ca0 0 CryptoPP::ConstByteArrayParameter::Assign(unsigned char const *,unsigned int,bool)
PUBLIC 13d00 0 CryptoPP::SimpleProxyFilter::SimpleProxyFilter(CryptoPP::BufferedTransformation *,CryptoPP::BufferedTransformation *)
PUBLIC 13d30 0 CryptoPP::FilterWithBufferedInput::Put2(unsigned char const *,unsigned int,int,bool)
PUBLIC 13d50 0 CryptoPP::FilterWithBufferedInput::PutModifiable2(unsigned char *,unsigned int,int,bool)
PUBLIC 13d70 0 CryptoPP::FilterWithBufferedInput::InitializeDerivedAndReturnNewSizes(CryptoPP::NameValuePairs const &,unsigned int &,unsigned int &,unsigned int &)
PUBLIC 13d80 0 CryptoPP::FilterWithBufferedInput::InitializeDerived(CryptoPP::NameValuePairs const &)
PUBLIC 13d90 0 CryptoPP::FilterWithBufferedInput::NextPutSingle(unsigned char const *)
PUBLIC 13da0 0 CryptoPP::FilterWithBufferedInput::FlushDerived()
PUBLIC 13db0 0 CryptoPP::FilterWithBufferedInput::NextPut(unsigned char const *,unsigned int)
PUBLIC 13dc0 0 CryptoPP::SimpleProxyFilter::FirstPut(unsigned char const *)
PUBLIC 13dd0 0 CryptoPP::SimpleProxyFilter::LastPut(unsigned char const *,unsigned int)
PUBLIC 13df0 0 CryptoPP::SimpleProxyFilter::`scalar deleting destructor'(unsigned int)
PUBLIC 13e10 0 _STL::map<_STL::basic_string<char,_STL::char_traits<char>,_STL::allocator<char> >,_STL::basic_string<char,_STL::char_traits<char>,_STL::allocator<char> >,_STL::less<_STL::basic_string<char,_STL::char_traits<char>,_STL::allocator<char> > >,_STL::allocator<_STL::pair<_STL::basic_string<char,_STL::char_traits<char>,_STL::allocator<char> > const ,_STL::basic_string<char,_STL::char_traits<char>,_STL::allocator<char> > > > >::~map<_STL::basic_string<char,_STL::char_traits<char>,_STL::allocator<char> >,_STL::basic_string<char,_STL::char_traits<char>,_STL::allocator<char> >,_STL::less<_STL::basic_string<char,_STL::char_traits<char>,_STL::allocator<char> > >,_STL::allocator<_STL::pair<_STL::basic_string<char,_STL::char_traits<char>,_STL::allocator<char> > const ,_STL::basic_string<char,_STL::char_traits<char>,_STL::allocator<char> > > > >()
PUBLIC 13e20 0 _STL::_Rb_tree<_STL::basic_string<char,_STL::char_traits<char>,_STL::allocator<char> >,_STL::pair<_STL::basic_string<char,_STL::char_traits<char>,_STL::allocator<char> > const ,boost::shared_ptr<KeyDataInfo> >,_STL::_Select1st<_STL::pair<_STL::basic_string<char,_STL::char_traits<char>,_STL::allocator<char> > const ,boost::shared_ptr<KeyDataInfo> > >,_STL::less<_STL::basic_string<char,_STL::char_traits<char>,_STL::allocator<char> > >,_STL::allocator<_STL::pair<_STL::basic_string<char,_STL::char_traits<char>,_STL::allocator<char> > const ,boost::shared_ptr<KeyDataInfo> > > >::~_Rb_tree<_STL::basic_string<char,_STL::char_traits<char>,_STL::allocator<char> >,_STL::pair<_STL::basic_string<char,_STL::char_traits<char>,_STL::allocator<char> > const ,boost::shared_ptr<KeyDataInfo> >,_STL::_Select1st<_STL::pair<_STL::basic_string<char,_STL::char_traits<char>,_STL::allocator<char> > const ,boost::shared_ptr<KeyDataInfo> > >,_STL::less<_STL::basic_string<char,_STL::char_traits<char>,_STL::allocator<char> > >,_STL::allocator<_STL::pair<_STL::basic_string<char,_STL::char_traits<char>,_STL::allocator<char> > const ,boost::shared_ptr<KeyDataInfo> > > >()
PUBLIC 13ea0 0 _STL::_Rb_tree<_STL::basic_string<char,_STL::char_traits<char>,_STL::allocator<char> >,_STL::pair<_STL::basic_string<char,_STL::char_traits<char>,_STL::allocator<char> > const ,boost::shared_ptr<TAKeyInfo> >,_STL::_Select1st<_STL::pair<_STL::basic_string<char,_STL::char_traits<char>,_STL::allocator<char> > const ,boost::shared_ptr<TAKeyInfo> > >,_STL::less<_STL::basic_string<char,_STL::char_traits<char>,_STL::allocator<char> > >,_STL::allocator<_STL::pair<_STL::basic_string<char,_STL::char_traits<char>,_STL::allocator<char> > const ,boost::shared_ptr<TAKeyInfo> > > >::~_Rb_tree<_STL::basic_string<char,_STL::char_traits<char>,_STL::allocator<char> >,_STL::pair<_STL::basic_string<char,_STL::char_traits<char>,_STL::allocator<char> > const ,boost::shared_ptr<TAKeyInfo> >,_STL::_Select1st<_STL::pair<_STL::basic_string<char,_STL::char_traits<char>,_STL::allocator<char> > const ,boost::shared_ptr<TAKeyInfo> > >,_STL::less<_STL::basic_string<char,_STL::char_traits<char>,_STL::allocator<char> > >,_STL::allocator<_STL::pair<_STL::basic_string<char,_STL::char_traits<char>,_STL::allocator<char> > const ,boost::shared_ptr<TAKeyInfo> > > >()
PUBLIC 13f20 0 _STL::map<_STL::basic_string<char,_STL::char_traits<char>,_STL::allocator<char> >,_STL::basic_string<char,_STL::char_traits<char>,_STL::allocator<char> >,_STL::less<_STL::basic_string<char,_STL::char_traits<char>,_STL::allocator<char> > >,_STL::allocator<_STL::pair<_STL::basic_string<char,_STL::char_traits<char>,_STL::allocator<char> > const ,_STL::basic_string<char,_STL::char_traits<char>,_STL::allocator<char> > > > >::map<_STL::basic_string<char,_STL::char_traits<char>,_STL::allocator<char> >,_STL::basic_string<char,_STL::char_traits<char>,_STL::allocator<char> >,_STL::less<_STL::basic_string<char,_STL::char_traits<char>,_STL::allocator<char> > >,_STL::allocator<_STL::pair<_STL::basic_string<char,_STL::char_traits<char>,_STL::allocator<char> > const ,_STL::basic_string<char,_STL::char_traits<char>,_STL::allocator<char> > > > >()
PUBLIC 13f60 0 _STL::map<_STL::basic_string<char,_STL::char_traits<char>,_STL::allocator<char> >,_STL::basic_string<char,_STL::char_traits<char>,_STL::allocator<char> >,_STL::less<_STL::basic_string<char,_STL::char_traits<char>,_STL::allocator<char> > >,_STL::allocator<_STL::pair<_STL::basic_string<char,_STL::char_traits<char>,_STL::allocator<char> > const ,_STL::basic_string<char,_STL::char_traits<char>,_STL::allocator<char> > > > >::insert(_STL::_Rb_tree_iterator<_STL::pair<_STL::basic_string<char,_STL::char_traits<char>,_STL::allocator<char> > const ,_STL::basic_string<char,_STL::char_traits<char>,_STL::allocator<char> > >,_STL::_Nonconst_traits<_STL::pair<_STL::basic_string<char,_STL::char_traits<char>,_STL::allocator<char> > const ,_STL::basic_string<char,_STL::char_traits<char>,_STL::allocator<char> > > > >,_STL::pair<_STL::basic_string<char,_STL::char_traits<char>,_STL::allocator<char> > const ,_STL::basic_string<char,_STL::char_traits<char>,_STL::allocator<char> > > const &)
PUBLIC 13f80 0 boost::token_iterator<boost::escaped_list_separator<char,_STL::char_traits<char> >,char const *,_STL::basic_string<char,_STL::char_traits<char>,_STL::allocator<char> > >::initialize()
PUBLIC 13fc0 0 _STL::_Rb_tree<_STL::basic_string<char,_STL::char_traits<char>,_STL::allocator<char> >,_STL::pair<_STL::basic_string<char,_STL::char_traits<char>,_STL::allocator<char> > const ,boost::shared_ptr<KeyDataInfo> >,_STL::_Select1st<_STL::pair<_STL::basic_string<char,_STL::char_traits<char>,_STL::allocator<char> > const ,boost::shared_ptr<KeyDataInfo> > >,_STL::less<_STL::basic_string<char,_STL::char_traits<char>,_STL::allocator<char> > >,_STL::allocator<_STL::pair<_STL::basic_string<char,_STL::char_traits<char>,_STL::allocator<char> > const ,boost::shared_ptr<KeyDataInfo> > > >::insert_unique(_STL::_Rb_tree_iterator<_STL::pair<_STL::basic_string<char,_STL::char_traits<char>,_STL::allocator<char> > const ,boost::shared_ptr<KeyDataInfo> >,_STL::_Nonconst_traits<_STL::pair<_STL::basic_string<char,_STL::char_traits<char>,_STL::allocator<char> > const ,boost::shared_ptr<KeyDataInfo> > > >,_STL::pair<_STL::basic_string<char,_STL::char_traits<char>,_STL::allocator<char> > const ,boost::shared_ptr<KeyDataInfo> > const &)
PUBLIC 14280 0 _STL::_Rb_tree<_STL::basic_string<char,_STL::char_traits<char>,_STL::allocator<char> >,_STL::pair<_STL::basic_string<char,_STL::char_traits<char>,_STL::allocator<char> > const ,boost::shared_ptr<TAKeyInfo> >,_STL::_Select1st<_STL::pair<_STL::basic_string<char,_STL::char_traits<char>,_STL::allocator<char> > const ,boost::shared_ptr<TAKeyInfo> > >,_STL::less<_STL::basic_string<char,_STL::char_traits<char>,_STL::allocator<char> > >,_STL::allocator<_STL::pair<_STL::basic_string<char,_STL::char_traits<char>,_STL::allocator<char> > const ,boost::shared_ptr<TAKeyInfo> > > >::insert_unique(_STL::_Rb_tree_iterator<_STL::pair<_STL::basic_string<char,_STL::char_traits<char>,_STL::allocator<char> > const ,boost::shared_ptr<TAKeyInfo> >,_STL::_Nonconst_traits<_STL::pair<_STL::basic_string<char,_STL::char_traits<char>,_STL::allocator<char> > const ,boost::shared_ptr<TAKeyInfo> > > >,_STL::pair<_STL::basic_string<char,_STL::char_traits<char>,_STL::allocator<char> > const ,boost::shared_ptr<TAKeyInfo> > const &)
PUBLIC 14540 0 CryptoPP::ConstByteArrayParameter::ConstByteArrayParameter<_STL::basic_string<char,_STL::char_traits<char>,_STL::allocator<char> > >(_STL::basic_string<char,_STL::char_traits<char>,_STL::allocator<char> > const &,bool)
PUBLIC 145d0 0 boost::iterator_core_access::increment<boost::token_iterator<boost::escaped_list_separator<char,_STL::char_traits<char> >,char const *,_STL::basic_string<char,_STL::char_traits<char>,_STL::allocator<char> > > >(boost::token_iterator<boost::escaped_list_separator<char,_STL::char_traits<char> >,char const *,_STL::basic_string<char,_STL::char_traits<char>,_STL::allocator<char> > > &)
PUBLIC 145f0 0 _STL::map<_STL::basic_string<char,_STL::char_traits<char>,_STL::allocator<char> >,boost::shared_ptr<KeyDataInfo>,_STL::less<_STL::basic_string<char,_STL::char_traits<char>,_STL::allocator<char> > >,_STL::allocator<_STL::pair<_STL::basic_string<char,_STL::char_traits<char>,_STL::allocator<char> > const ,boost::shared_ptr<KeyDataInfo> > > >::~map<_STL::basic_string<char,_STL::char_traits<char>,_STL::allocator<char> >,boost::shared_ptr<KeyDataInfo>,_STL::less<_STL::basic_string<char,_STL::char_traits<char>,_STL::allocator<char> > >,_STL::allocator<_STL::pair<_STL::basic_string<char,_STL::char_traits<char>,_STL::allocator<char> > const ,boost::shared_ptr<KeyDataInfo> > > >()
PUBLIC 14600 0 _STL::map<_STL::basic_string<char,_STL::char_traits<char>,_STL::allocator<char> >,boost::shared_ptr<TAKeyInfo>,_STL::less<_STL::basic_string<char,_STL::char_traits<char>,_STL::allocator<char> > >,_STL::allocator<_STL::pair<_STL::basic_string<char,_STL::char_traits<char>,_STL::allocator<char> > const ,boost::shared_ptr<TAKeyInfo> > > >::~map<_STL::basic_string<char,_STL::char_traits<char>,_STL::allocator<char> >,boost::shared_ptr<TAKeyInfo>,_STL::less<_STL::basic_string<char,_STL::char_traits<char>,_STL::allocator<char> > >,_STL::allocator<_STL::pair<_STL::basic_string<char,_STL::char_traits<char>,_STL::allocator<char> > const ,boost::shared_ptr<TAKeyInfo> > > >()
PUBLIC 14610 0 KeyManager::~KeyManager()
PUBLIC 14690 0 KeyManager::`scalar deleting destructor'(unsigned int)
PUBLIC 146b0 0 _STL::map<_STL::basic_string<char,_STL::char_traits<char>,_STL::allocator<char> >,boost::shared_ptr<KeyDataInfo>,_STL::less<_STL::basic_string<char,_STL::char_traits<char>,_STL::allocator<char> > >,_STL::allocator<_STL::pair<_STL::basic_string<char,_STL::char_traits<char>,_STL::allocator<char> > const ,boost::shared_ptr<KeyDataInfo> > > >::map<_STL::basic_string<char,_STL::char_traits<char>,_STL::allocator<char> >,boost::shared_ptr<KeyDataInfo>,_STL::less<_STL::basic_string<char,_STL::char_traits<char>,_STL::allocator<char> > >,_STL::allocator<_STL::pair<_STL::basic_string<char,_STL::char_traits<char>,_STL::allocator<char> > const ,boost::shared_ptr<KeyDataInfo> > > >()
PUBLIC 146f0 0 _STL::map<_STL::basic_string<char,_STL::char_traits<char>,_STL::allocator<char> >,boost::shared_ptr<TAKeyInfo>,_STL::less<_STL::basic_string<char,_STL::char_traits<char>,_STL::allocator<char> > >,_STL::allocator<_STL::pair<_STL::basic_string<char,_STL::char_traits<char>,_STL::allocator<char> > const ,boost::shared_ptr<TAKeyInfo> > > >::map<_STL::basic_string<char,_STL::char_traits<char>,_STL::allocator<char> >,boost::shared_ptr<TAKeyInfo>,_STL::less<_STL::basic_string<char,_STL::char_traits<char>,_STL::allocator<char> > >,_STL::allocator<_STL::pair<_STL::basic_string<char,_STL::char_traits<char>,_STL::allocator<char> > const ,boost::shared_ptr<TAKeyInfo> > > >()
PUBLIC 14730 0 _STL::map<_STL::basic_string<char,_STL::char_traits<char>,_STL::allocator<char> >,_STL::basic_string<char,_STL::char_traits<char>,_STL::allocator<char> >,_STL::less<_STL::basic_string<char,_STL::char_traits<char>,_STL::allocator<char> > >,_STL::allocator<_STL::pair<_STL::basic_string<char,_STL::char_traits<char>,_STL::allocator<char> > const ,_STL::basic_string<char,_STL::char_traits<char>,_STL::allocator<char> > > > >::operator[](_STL::basic_string<char,_STL::char_traits<char>,_STL::allocator<char> > const &)
PUBLIC 147f0 0 boost::iterator_facade<boost::token_iterator<boost::escaped_list_separator<char,_STL::char_traits<char> >,char const *,_STL::basic_string<char,_STL::char_traits<char>,_STL::allocator<char> > >,_STL::basic_string<char,_STL::char_traits<char>,_STL::allocator<char> >,boost::forward_traversal_tag,_STL::basic_string<char,_STL::char_traits<char>,_STL::allocator<char> > const &,int>::operator++()
PUBLIC 14810 0 _STL::map<_STL::basic_string<char,_STL::char_traits<char>,_STL::allocator<char> >,boost::shared_ptr<KeyDataInfo>,_STL::less<_STL::basic_string<char,_STL::char_traits<char>,_STL::allocator<char> > >,_STL::allocator<_STL::pair<_STL::basic_string<char,_STL::char_traits<char>,_STL::allocator<char> > const ,boost::shared_ptr<KeyDataInfo> > > >::insert(_STL::_Rb_tree_iterator<_STL::pair<_STL::basic_string<char,_STL::char_traits<char>,_STL::allocator<char> > const ,boost::shared_ptr<KeyDataInfo> >,_STL::_Nonconst_traits<_STL::pair<_STL::basic_string<char,_STL::char_traits<char>,_STL::allocator<char> > const ,boost::shared_ptr<KeyDataInfo> > > >,_STL::pair<_STL::basic_string<char,_STL::char_traits<char>,_STL::allocator<char> > const ,boost::shared_ptr<KeyDataInfo> > const &)
PUBLIC 14830 0 _STL::map<_STL::basic_string<char,_STL::char_traits<char>,_STL::allocator<char> >,boost::shared_ptr<TAKeyInfo>,_STL::less<_STL::basic_string<char,_STL::char_traits<char>,_STL::allocator<char> > >,_STL::allocator<_STL::pair<_STL::basic_string<char,_STL::char_traits<char>,_STL::allocator<char> > const ,boost::shared_ptr<TAKeyInfo> > > >::insert(_STL::_Rb_tree_iterator<_STL::pair<_STL::basic_string<char,_STL::char_traits<char>,_STL::allocator<char> > const ,boost::shared_ptr<TAKeyInfo> >,_STL::_Nonconst_traits<_STL::pair<_STL::basic_string<char,_STL::char_traits<char>,_STL::allocator<char> > const ,boost::shared_ptr<TAKeyInfo> > > >,_STL::pair<_STL::basic_string<char,_STL::char_traits<char>,_STL::allocator<char> > const ,boost::shared_ptr<TAKeyInfo> > const &)
PUBLIC 14850 0 boost::token_iterator<boost::escaped_list_separator<char,_STL::char_traits<char> >,char const *,_STL::basic_string<char,_STL::char_traits<char>,_STL::allocator<char> > >::token_iterator<boost::escaped_list_separator<char,_STL::char_traits<char> >,char const *,_STL::basic_string<char,_STL::char_traits<char>,_STL::allocator<char> > >(boost::escaped_list_separator<char,_STL::char_traits<char> >,char const *,char const *)
PUBLIC 14900 0 KeyManager::close_singleton()
PUBLIC 149a0 0 KeyManager::readKeyGroupInfoFromFile()
PUBLIC 14cb0 0 _STL::map<_STL::basic_string<char,_STL::char_traits<char>,_STL::allocator<char> >,boost::shared_ptr<KeyDataInfo>,_STL::less<_STL::basic_string<char,_STL::char_traits<char>,_STL::allocator<char> > >,_STL::allocator<_STL::pair<_STL::basic_string<char,_STL::char_traits<char>,_STL::allocator<char> > const ,boost::shared_ptr<KeyDataInfo> > > >::operator[](_STL::basic_string<char,_STL::char_traits<char>,_STL::allocator<char> > const &)
PUBLIC 14d60 0 _STL::map<_STL::basic_string<char,_STL::char_traits<char>,_STL::allocator<char> >,boost::shared_ptr<TAKeyInfo>,_STL::less<_STL::basic_string<char,_STL::char_traits<char>,_STL::allocator<char> > >,_STL::allocator<_STL::pair<_STL::basic_string<char,_STL::char_traits<char>,_STL::allocator<char> > const ,boost::shared_ptr<TAKeyInfo> > > >::operator[](_STL::basic_string<char,_STL::char_traits<char>,_STL::allocator<char> > const &)
PUBLIC 14e10 0 CryptoPP::StringSinkTemplate<_STL::basic_string<char,_STL::char_traits<char>,_STL::allocator<char> > >::Put2(unsigned char const *,unsigned int,int,bool)
PUBLIC 14e60 0 boost::tokenizer<boost::escaped_list_separator<char,_STL::char_traits<char> >,char const *,_STL::basic_string<char,_STL::char_traits<char>,_STL::allocator<char> > >::begin()
PUBLIC 14f00 0 boost::tokenizer<boost::escaped_list_separator<char,_STL::char_traits<char> >,char const *,_STL::basic_string<char,_STL::char_traits<char>,_STL::allocator<char> > >::end()
PUBLIC 14fa0 0 CryptoPP::AlgorithmParametersBase::ParameterNotUsed::ParameterNotUsed(char const *)
PUBLIC 15060 0 CryptoPP::AlgorithmParametersBase::ParameterNotUsed::`vector deleting destructor'(unsigned int)
PUBLIC 15080 0 CryptoPP::AlgorithmParametersBase::ParameterNotUsed::~ParameterNotUsed()
PUBLIC 15090 0 CryptoPP::AlgorithmParametersBase::~AlgorithmParametersBase()
PUBLIC 15100 0 CryptoPP::AlgorithmParametersBase::ParameterNotUsed::ParameterNotUsed(CryptoPP::AlgorithmParametersBase::ParameterNotUsed const &)
PUBLIC 15120 0 CryptoPP::AlgorithmParametersBase::`scalar deleting destructor'(unsigned int)
PUBLIC 15140 0 CryptoPP::AlgorithmParametersBase2<CryptoPP::ConstByteArrayParameter>::~AlgorithmParametersBase2<CryptoPP::ConstByteArrayParameter>()
PUBLIC 15170 0 CryptoPP::AlgorithmParametersBase2<int>::~AlgorithmParametersBase2<int>()
PUBLIC 15180 0 CryptoPP::AlgorithmParametersBase2<bool>::~AlgorithmParametersBase2<bool>()
PUBLIC 15190 0 CryptoPP::AlgorithmParametersBase2<int const *>::~AlgorithmParametersBase2<int const *>()
PUBLIC 151a0 0 CryptoPP::AlgorithmParameters<CryptoPP::NullNameValuePairs,bool>::~AlgorithmParameters<CryptoPP::NullNameValuePairs,bool>()
PUBLIC 151b0 0 CryptoPP::AlgorithmParameters<CryptoPP::AlgorithmParameters<CryptoPP::NullNameValuePairs,bool>,int>::~AlgorithmParameters<CryptoPP::AlgorithmParameters<CryptoPP::NullNameValuePairs,bool>,int>()
PUBLIC 15200 0 CryptoPP::AlgorithmParameters<CryptoPP::AlgorithmParameters<CryptoPP::AlgorithmParameters<CryptoPP::NullNameValuePairs,bool>,int>,CryptoPP::ConstByteArrayParameter>::~AlgorithmParameters<CryptoPP::AlgorithmParameters<CryptoPP::AlgorithmParameters<CryptoPP::NullNameValuePairs,bool>,int>,CryptoPP::ConstByteArrayParameter>()
PUBLIC 15290 0 CryptoPP::AlgorithmParameters<CryptoPP::AlgorithmParameters<CryptoPP::AlgorithmParameters<CryptoPP::AlgorithmParameters<CryptoPP::NullNameValuePairs,bool>,int>,CryptoPP::ConstByteArrayParameter>,CryptoPP::ConstByteArrayParameter>::~AlgorithmParameters<CryptoPP::AlgorithmParameters<CryptoPP::AlgorithmParameters<CryptoPP::AlgorithmParameters<CryptoPP::NullNameValuePairs,bool>,int>,CryptoPP::ConstByteArrayParameter>,CryptoPP::ConstByteArrayParameter>()
PUBLIC 15310 0 KeyManager::checkKey(ParamKeyCheckType const &,KeyDataResult *)
PUBLIC 15700 0 KeyManager::insertKeyConfig(KeyDataConfig const &)
PUBLIC 15810 0 KeyManager::loadKeyInformation()
PUBLIC 15990 0 CryptoPP::AlgorithmParametersBase2<CryptoPP::ConstByteArrayParameter>::AlgorithmParametersBase2<CryptoPP::ConstByteArrayParameter>(char const *,CryptoPP::ConstByteArrayParameter const &,bool)
PUBLIC 159f0 0 CryptoPP::AlgorithmParametersBase2<CryptoPP::ConstByteArrayParameter>::AssignValue(char const *,type_info const &,void *)
PUBLIC 15a60 0 CryptoPP::ConstByteArrayParameter::operator=(CryptoPP::ConstByteArrayParameter const &)
PUBLIC 15ab0 0 CryptoPP::NameValuePairs::ThrowIfTypeMismatch(char const *,type_info const &,type_info const &)
PUBLIC 15b30 0 CryptoPP::NameValuePairs::ValueTypeMismatch::~ValueTypeMismatch()
PUBLIC 15b40 0 CryptoPP::NameValuePairs::ValueTypeMismatch::ValueTypeMismatch(CryptoPP::NameValuePairs::ValueTypeMismatch const &)
PUBLIC 15b70 0 CryptoPP::NameValuePairs::ValueTypeMismatch::`vector deleting destructor'(unsigned int)
PUBLIC 15b90 0 CryptoPP::NameValuePairs::ValueTypeMismatch::ValueTypeMismatch(_STL::basic_string<char,_STL::char_traits<char>,_STL::allocator<char> > const &,type_info const &,type_info const &)
PUBLIC 15cf0 0 CryptoPP::AlgorithmParametersBase2<int>::AlgorithmParametersBase2<int>(char const *,int const &,bool)
PUBLIC 15d20 0 CryptoPP::AlgorithmParametersBase2<int>::AssignValue(char const *,type_info const &,void *)
PUBLIC 15d80 0 CryptoPP::AlgorithmParametersBase2<bool>::AlgorithmParametersBase2<bool>(char const *,bool const &,bool)
PUBLIC 15db0 0 CryptoPP::AlgorithmParametersBase2<bool>::AssignValue(char const *,type_info const &,void *)
PUBLIC 15e10 0 CryptoPP::AlgorithmParametersBase2<int const *>::AlgorithmParametersBase2<int const *>(char const *,int const * const &,bool)
PUBLIC 15e40 0 CryptoPP::AlgorithmParametersBase2<int const *>::AssignValue(char const *,type_info const &,void *)
PUBLIC 15ea0 0 CryptoPP::AlgorithmParametersBase2<CryptoPP::ConstByteArrayParameter>::`vector deleting destructor'(unsigned int)
PUBLIC 15ec0 0 CryptoPP::AlgorithmParametersBase2<int>::`vector deleting destructor'(unsigned int)
PUBLIC 15ee0 0 CryptoPP::AlgorithmParametersBase2<int>::AlgorithmParametersBase2<int>(CryptoPP::AlgorithmParametersBase2<int> const &)
PUBLIC 15f10 0 CryptoPP::AlgorithmParametersBase2<bool>::AlgorithmParametersBase2<bool>(CryptoPP::AlgorithmParametersBase2<bool> const &)
PUBLIC 15f40 0 CryptoPP::AlgorithmParametersBase2<bool>::`vector deleting destructor'(unsigned int)
PUBLIC 15f60 0 CryptoPP::AlgorithmParametersBase2<int const *>::AlgorithmParametersBase2<int const *>(CryptoPP::AlgorithmParametersBase2<int const *> const &)
PUBLIC 15f90 0 CryptoPP::AlgorithmParametersBase2<int const *>::`vector deleting destructor'(unsigned int)
PUBLIC 15fb0 0 CryptoPP::AlgorithmParametersBase2<CryptoPP::ConstByteArrayParameter>::AlgorithmParametersBase2<CryptoPP::ConstByteArrayParameter>(CryptoPP::AlgorithmParametersBase2<CryptoPP::ConstByteArrayParameter> const &)
PUBLIC 16020 0 CryptoPP::AlgorithmParameters<CryptoPP::NullNameValuePairs,int const *>::~AlgorithmParameters<CryptoPP::NullNameValuePairs,int const *>()
PUBLIC 16030 0 CryptoPP::AlgorithmParameters<CryptoPP::AlgorithmParameters<CryptoPP::NullNameValuePairs,int const *>,int>::~AlgorithmParameters<CryptoPP::AlgorithmParameters<CryptoPP::NullNameValuePairs,int const *>,int>()
PUBLIC 16080 0 CryptoPP::AlgorithmParameters<CryptoPP::NullNameValuePairs,int const *>::AlgorithmParameters<CryptoPP::NullNameValuePairs,int const *>(CryptoPP::NullNameValuePairs const &,char const *,int const * const &,bool)
PUBLIC 160c0 0 CryptoPP::AlgorithmParameters<CryptoPP::NullNameValuePairs,int const *>::GetParent()
PUBLIC 160d0 0 CryptoPP::AlgorithmParameters<CryptoPP::NullNameValuePairs,bool>::AlgorithmParameters<CryptoPP::NullNameValuePairs,bool>(CryptoPP::NullNameValuePairs const &,char const *,bool const &,bool)
PUBLIC 16110 0 CryptoPP::AlgorithmParameters<CryptoPP::NullNameValuePairs,bool>::GetParent()
PUBLIC 16120 0 CryptoPP::AlgorithmParameters<CryptoPP::NullNameValuePairs,bool>::`vector deleting destructor'(unsigned int)
PUBLIC 16140 0 CryptoPP::AlgorithmParameters<CryptoPP::NullNameValuePairs,int const *>::`vector deleting destructor'(unsigned int)
PUBLIC 16160 0 CryptoPP::AlgorithmParameters<CryptoPP::NullNameValuePairs,int const *>::AlgorithmParameters<CryptoPP::NullNameValuePairs,int const *>(CryptoPP::AlgorithmParameters<CryptoPP::NullNameValuePairs,int const *> const &)
PUBLIC 161a0 0 CryptoPP::AlgorithmParameters<CryptoPP::NullNameValuePairs,bool>::AlgorithmParameters<CryptoPP::NullNameValuePairs,bool>(CryptoPP::AlgorithmParameters<CryptoPP::NullNameValuePairs,bool> const &)
PUBLIC 161e0 0 CryptoPP::AlgorithmParameters<CryptoPP::AlgorithmParameters<CryptoPP::NullNameValuePairs,bool>,int>::AlgorithmParameters<CryptoPP::AlgorithmParameters<CryptoPP::NullNameValuePairs,bool>,int>(CryptoPP::AlgorithmParameters<CryptoPP::AlgorithmParameters<CryptoPP::NullNameValuePairs,bool>,int> const &)
PUBLIC 16250 0 CryptoPP::AlgorithmParameters<CryptoPP::AlgorithmParameters<CryptoPP::NullNameValuePairs,bool>,int>::GetParent()
PUBLIC 16260 0 CryptoPP::AlgorithmParameters<CryptoPP::AlgorithmParameters<CryptoPP::NullNameValuePairs,bool>,int>::`scalar deleting destructor'(unsigned int)
PUBLIC 16280 0 CryptoPP::AlgorithmParameters<CryptoPP::AlgorithmParameters<CryptoPP::AlgorithmParameters<CryptoPP::NullNameValuePairs,bool>,int>,CryptoPP::ConstByteArrayParameter>::AlgorithmParameters<CryptoPP::AlgorithmParameters<CryptoPP::AlgorithmParameters<CryptoPP::NullNameValuePairs,bool>,int>,CryptoPP::ConstByteArrayParameter>(CryptoPP::AlgorithmParameters<CryptoPP::AlgorithmParameters<CryptoPP::AlgorithmParameters<CryptoPP::NullNameValuePairs,bool>,int>,CryptoPP::ConstByteArrayParameter> const &)
PUBLIC 162b0 0 CryptoPP::AlgorithmParameters<CryptoPP::AlgorithmParameters<CryptoPP::AlgorithmParameters<CryptoPP::NullNameValuePairs,bool>,int>,CryptoPP::ConstByteArrayParameter>::GetParent()
PUBLIC 162c0 0 CryptoPP::AlgorithmParameters<CryptoPP::AlgorithmParameters<CryptoPP::AlgorithmParameters<CryptoPP::NullNameValuePairs,bool>,int>,CryptoPP::ConstByteArrayParameter>::`vector deleting destructor'(unsigned int)
PUBLIC 162e0 0 CryptoPP::MakeParameters<int const *>(char const *,int const * const &,bool)
PUBLIC 16320 0 CryptoPP::MakeParameters<bool>(char const *,bool const &,bool)
PUBLIC 16360 0 CryptoPP::AlgorithmParameters<CryptoPP::AlgorithmParameters<CryptoPP::NullNameValuePairs,int const *>,int>::AlgorithmParameters<CryptoPP::AlgorithmParameters<CryptoPP::NullNameValuePairs,int const *>,int>(CryptoPP::AlgorithmParameters<CryptoPP::NullNameValuePairs,int const *> const &,char const *,int const &,bool)
PUBLIC 163d0 0 CryptoPP::AlgorithmParameters<CryptoPP::AlgorithmParameters<CryptoPP::NullNameValuePairs,int const *>,int>::GetParent()
PUBLIC 163e0 0 CryptoPP::AlgorithmParameters<CryptoPP::AlgorithmParameters<CryptoPP::NullNameValuePairs,int const *>,int>::`vector deleting destructor'(unsigned int)
PUBLIC 16400 0 CryptoPP::AlgorithmParameters<CryptoPP::AlgorithmParameters<CryptoPP::NullNameValuePairs,bool>,int>::AlgorithmParameters<CryptoPP::AlgorithmParameters<CryptoPP::NullNameValuePairs,bool>,int>(CryptoPP::AlgorithmParameters<CryptoPP::NullNameValuePairs,bool> const &,char const *,int const &,bool)
PUBLIC 16470 0 CryptoPP::AlgorithmParameters<CryptoPP::AlgorithmParameters<CryptoPP::AlgorithmParameters<CryptoPP::NullNameValuePairs,bool>,int>,CryptoPP::ConstByteArrayParameter>::AlgorithmParameters<CryptoPP::AlgorithmParameters<CryptoPP::AlgorithmParameters<CryptoPP::NullNameValuePairs,bool>,int>,CryptoPP::ConstByteArrayParameter>(CryptoPP::AlgorithmParameters<CryptoPP::AlgorithmParameters<CryptoPP::NullNameValuePairs,bool>,int> const &,char const *,CryptoPP::ConstByteArrayParameter const &,bool)
PUBLIC 164b0 0 CryptoPP::AlgorithmParameters<CryptoPP::AlgorithmParameters<CryptoPP::AlgorithmParameters<CryptoPP::AlgorithmParameters<CryptoPP::NullNameValuePairs,bool>,int>,CryptoPP::ConstByteArrayParameter>,CryptoPP::ConstByteArrayParameter>::AlgorithmParameters<CryptoPP::AlgorithmParameters<CryptoPP::AlgorithmParameters<CryptoPP::AlgorithmParameters<CryptoPP::NullNameValuePairs,bool>,int>,CryptoPP::ConstByteArrayParameter>,CryptoPP::ConstByteArrayParameter>(CryptoPP::AlgorithmParameters<CryptoPP::AlgorithmParameters<CryptoPP::AlgorithmParameters<CryptoPP::NullNameValuePairs,bool>,int>,CryptoPP::ConstByteArrayParameter> const &,char const *,CryptoPP::ConstByteArrayParameter const &,bool)
PUBLIC 16530 0 CryptoPP::AlgorithmParameters<CryptoPP::AlgorithmParameters<CryptoPP::AlgorithmParameters<CryptoPP::AlgorithmParameters<CryptoPP::NullNameValuePairs,bool>,int>,CryptoPP::ConstByteArrayParameter>,CryptoPP::ConstByteArrayParameter>::GetParent()
PUBLIC 16540 0 CryptoPP::AlgorithmParameters<CryptoPP::AlgorithmParameters<CryptoPP::AlgorithmParameters<CryptoPP::AlgorithmParameters<CryptoPP::NullNameValuePairs,bool>,int>,CryptoPP::ConstByteArrayParameter>,CryptoPP::ConstByteArrayParameter>::`scalar deleting destructor'(unsigned int)
PUBLIC 16560 0 CryptoPP::AlgorithmParameters<CryptoPP::NullNameValuePairs,int const *>::operator()<int>(char const *,int const &)
PUBLIC 16590 0 CryptoPP::AlgorithmParameters<CryptoPP::NullNameValuePairs,bool>::operator()<int>(char const *,int const &)
PUBLIC 165c0 0 CryptoPP::AlgorithmParameters<CryptoPP::AlgorithmParameters<CryptoPP::NullNameValuePairs,bool>,int>::operator()<CryptoPP::ConstByteArrayParameter>(char const *,CryptoPP::ConstByteArrayParameter const &)
PUBLIC 16600 0 CryptoPP::AlgorithmParameters<CryptoPP::AlgorithmParameters<CryptoPP::AlgorithmParameters<CryptoPP::NullNameValuePairs,bool>,int>,CryptoPP::ConstByteArrayParameter>::operator()<CryptoPP::ConstByteArrayParameter>(char const *,CryptoPP::ConstByteArrayParameter const &)
PUBLIC 16630 0 CryptoPP::BaseN_Decoder::BaseN_Decoder(int const *,int,CryptoPP::BufferedTransformation *)
PUBLIC 16710 0 CryptoPP::BaseN_Decoder::`vector deleting destructor'(unsigned int)
PUBLIC 16730 0 CryptoPP::HexEncoder::HexEncoder(CryptoPP::BufferedTransformation *,bool,int,_STL::basic_string<char,_STL::char_traits<char>,_STL::allocator<char> > const &,_STL::basic_string<char,_STL::char_traits<char>,_STL::allocator<char> > const &)
PUBLIC 16980 0 CryptoPP::HexEncoder::`scalar deleting destructor'(unsigned int)
PUBLIC 169a0 0 CryptoPP::HexEncoder::~HexEncoder()
PUBLIC 169b0 0 CryptoPP::HexDecoder::HexDecoder(CryptoPP::BufferedTransformation *)
PUBLIC 169e0 0 CryptoPP::HexDecoder::`scalar deleting destructor'(unsigned int)
PUBLIC 16a00 0 EncryptString(char const *,char const *)
PUBLIC 16c30 0 DecryptString(char const *,char const *)
PUBLIC 16da0 0 KeyManager::readTAKeyInfoFromFile()
PUBLIC 17470 0 KeyManager::KeyManager()
PUBLIC 17560 0 KeyManager::instance()
PUBLIC 17600 0 DataSourceActivityEvent(TDataSourceActivityEvent *)
PUBLIC 17620 0 MonitorEventData(TEvent *)
PUBLIC 17880 0 MonitorEventEnv(TEventEnvironment *)
PUBLIC 17970 0 MonitorEventMessage(TEventMessageMonitor *)
PUBLIC 17aa0 0 MonitorStatusEvent(TMonitorStatusEvent *)
PUBLIC 17bd0 0 MonitorActivityChange(char const *,TActivity)
PUBLIC 17d30 0 ACE_OS::set_errno_to_last_error()
PUBLIC 17d50 0 ACE_OS::getenv(char const *)
PUBLIC 17d60 0 ACE_OS::sleep(unsigned int)
PUBLIC 17d80 0 Layer2Error::Layer2Error(char const *,char const *,char const *)
PUBLIC 17db0 0 Layer2Error::getClassName()
PUBLIC 17dc0 0 Layer2Error::`scalar deleting destructor'(unsigned int)
PUBLIC 17de0 0 Layer2Error::~Layer2Error()
PUBLIC 17df0 0 StorageDatabaseInfo::~StorageDatabaseInfo()
PUBLIC 17e50 0 StorageDatabaseInfo::StorageDatabaseInfo()
PUBLIC 17ea0 4 CON_SetThinkServerManagerPort
PUBLIC 17f20 0 CON_StartMonitoring
PUBLIC 17fa0 10 CON_LoadMonitorLibrary
PUBLIC 17fb0 10 CON_LocalLoadMonitorLibrary
PUBLIC 18000 c CON_UnloadMonitorLibrary
PUBLIC 18010 0 setCharP(char * &,char *)
PUBLIC 180a0 0 changeStorageConfig(void *)
PUBLIC 181c0 0 disableStorage(void *)
PUBLIC 181e0 4 CON_SetConfigEnv
PUBLIC 18480 8 CON_EnumControllerClass
PUBLIC 18490 4 CON_FreeDataSourcesList
PUBLIC 184e0 4 CON_FreeControllerList
PUBLIC 18530 8 CON_ControllerChangeActivityAsync
PUBLIC 185c0 10 CON_ControllerListChangeActivity
PUBLIC 18960 0 GetAttribFromXML(xercesc_2_7::DOMNode const *,char const *)
PUBLIC 18b20 0 _STL::_Integer_limits<int,-2147483648,2147483647,-1,1>::max()
PUBLIC 18b30 0 _STL::auto_ptr<xercesc_2_7::MemBufFormatTarget>::get()
PUBLIC 18b40 0 _STL::auto_ptr<xercesc_2_7::MemBufFormatTarget>::operator->()
PUBLIC 18b50 0 _STL::auto_ptr<xercesc_2_7::MemBufFormatTarget>::auto_ptr<xercesc_2_7::MemBufFormatTarget>(xercesc_2_7::MemBufFormatTarget *)
PUBLIC 18b60 0 _STL::auto_ptr<xercesc_2_7::MemBufFormatTarget>::~auto_ptr<xercesc_2_7::MemBufFormatTarget>()
PUBLIC 18b70 0 ACE_Utils::Truncate<unsigned int>(unsigned int const &)
PUBLIC 18b90 0 ACE_OS::hostname(char *,unsigned int)
PUBLIC 18bf0 0 StorageDatabaseInfo::`scalar deleting destructor'(unsigned int)
PUBLIC 18c10 0 _STL::auto_ptr<xercesc_2_7::MemBufFormatTarget>::release()
PUBLIC 18c20 0 LoadStorageDatabase(StorageDatabaseInfo const *)
PUBLIC 18d90 0 SerializeNode(xercesc_2_7::DOMNode const *)
PUBLIC 18ed0 0 CON_LoadEnvConfig()
PUBLIC 19790 0 Layer2Error::Layer2Error(Layer2Error const &)
PUBLIC 197b0 c CON_StartUp
PUBLIC 19d50 8 CON_CleanUp
PUBLIC 19f50 8 CON_EnumControllers
PUBLIC 1a070 8 CON_EnumDataSources
PUBLIC 1a0b0 10 CON_GetMonitorInfo
PUBLIC 1a250 18 CON_ControllerCreate
PUBLIC 1a450 10 CON_ControllerSetConfig
PUBLIC 1a5e0 c CON_ControllerDestroy
PUBLIC 1a7e0 0 CON_ControllerClearError(char const *,char *,int)
PUBLIC 1aa60 10 CON_ControllerChangeActivity
PUBLIC 1ad00 18 CON_DataSourceCreate
PUBLIC 1ad50 10 CON_DataSourceSetConfig
PUBLIC 1ad90 c CON_DataSourceDestroy
PUBLIC 1add0 c CON_DataSourceRunNow
PUBLIC 1ae10 0 GetAttributeFromStr(_STL::basic_string<char,_STL::char_traits<char>,_STL::allocator<char> > const &,_STL::basic_string<char,_STL::char_traits<char>,_STL::allocator<char> > const &)
PUBLIC 1af30 14 CON_ImportGroupConfigFromXML
PUBLIC 1b820 8 CON_EnumControllersXML
PUBLIC 1b960 8 CON_EnumDataSourcesXML
PUBLIC 1b9a0 0 InitMonitorScriptsRequest::InitMonitorScriptsRequest(ControladorBase *)
PUBLIC 1b9c0 0 InitMonitorScriptsRequest::call()
PUBLIC 1b9e0 0 InitMonitorScriptsRequest::`vector deleting destructor'(unsigned int)
PUBLIC 1ba00 0 InitMonitorScriptsRequest::~InitMonitorScriptsRequest()
PUBLIC 1ba10 0 CleanUpManager::open(void *)
PUBLIC 1ba30 0 CleanUpManager::~CleanUpManager()
PUBLIC 1bac0 0 CleanUpManager::InitMonitorScripts(ControladorBase *)
PUBLIC 1bb40 0 CleanUpManager::CleanUp()
PUBLIC 1bbc0 0 CleanUpManager::svc()
PUBLIC 1bc80 0 ACE_Message_Queue<ACE_MT_SYNCH>::open(unsigned int,unsigned int,ACE_Notification_Strategy *)
PUBLIC 1bcc0 0 [thunk]:CleanUpManager::`vector deleting destructor'`adjustor{24}' (unsigned int)
PUBLIC 1bcd0 0 CleanUpManager::`vector deleting destructor'(unsigned int)
PUBLIC 1bcf0 0 ACE_Message_Queue<ACE_MT_SYNCH>::ACE_Message_Queue<ACE_MT_SYNCH>(unsigned int,unsigned int,ACE_Notification_Strategy *)
PUBLIC 1bd90 0 ACE_Message_Queue<ACE_MT_SYNCH>::flush_i()
PUBLIC 1be10 0 ACE_Message_Queue<ACE_MT_SYNCH>::enqueue(ACE_Message_Block *,ACE_Time_Value *)
PUBLIC 1be20 0 ACE_Message_Queue<ACE_MT_SYNCH>::dequeue(ACE_Message_Block * &,ACE_Time_Value *)
PUBLIC 1be30 0 ACE_Message_Queue<ACE_MT_SYNCH>::state()
PUBLIC 1be40 0 ACE_Message_Queue<ACE_MT_SYNCH>::deactivated()
PUBLIC 1be50 0 ACE_Message_Queue<ACE_MT_SYNCH>::notify()
PUBLIC 1be70 0 ACE_Message_Queue<ACE_MT_SYNCH>::notification_strategy(ACE_Notification_Strategy *)
PUBLIC 1be80 0 ACE_Message_Queue<ACE_MT_SYNCH>::notification_strategy()
PUBLIC 1be90 0 ACE_Message_Queue<ACE_MT_SYNCH>::lock()
PUBLIC 1bea0 0 ACE_Message_Queue<ACE_MT_SYNCH>::dump()
PUBLIC 1beb0 0 ACE_Message_Queue<ACE_MT_SYNCH>::enqueue_deadline_i(ACE_Message_Block *)
PUBLIC 1bec0 0 ACE_Message_Queue<ACE_MT_SYNCH>::dequeue_deadline_i(ACE_Message_Block * &)
PUBLIC 1bed0 0 ACE_Message_Queue<ACE_MT_SYNCH>::is_full_i()
PUBLIC 1bee0 0 ACE_Message_Queue<ACE_MT_SYNCH>::is_empty_i()
PUBLIC 1bef0 0 ACE_Message_Queue<ACE_MT_SYNCH>::deactivate_i(int)
PUBLIC 1bf30 0 ACE_Message_Queue<ACE_MT_SYNCH>::activate_i()
PUBLIC 1bf40 0 ACE_Message_Queue<ACE_MT_SYNCH>::wait_not_full_cond(ACE_Guard<ACE_Thread_Mutex> &,ACE_Time_Value *)
PUBLIC 1bfd0 0 ACE_Message_Queue<ACE_MT_SYNCH>::wait_not_empty_cond(ACE_Guard<ACE_Thread_Mutex> &,ACE_Time_Value *)
PUBLIC 1c060 0 ACE_Message_Queue<ACE_MT_SYNCH>::signal_enqueue_waiters()
PUBLIC 1c070 0 ACE_Message_Queue<ACE_MT_SYNCH>::signal_dequeue_waiters()
PUBLIC 1c080 0 ACE_Message_Queue<ACE_MT_SYNCH>::close()
PUBLIC 1c110 0 ACE_Message_Queue<ACE_MT_SYNCH>::flush()
PUBLIC 1c190 0 ACE_Message_Queue<ACE_MT_SYNCH>::peek_dequeue_head(ACE_Message_Block * &,ACE_Time_Value *)
PUBLIC 1c270 0 ACE_Message_Queue<ACE_MT_SYNCH>::enqueue_prio(ACE_Message_Block *,ACE_Time_Value *)
PUBLIC 1c390 0 ACE_Message_Queue<ACE_MT_SYNCH>::enqueue_deadline(ACE_Message_Block *,ACE_Time_Value *)
PUBLIC 1c4b0 0 ACE_Message_Queue<ACE_MT_SYNCH>::enqueue_tail(ACE_Message_Block *,ACE_Time_Value *)
PUBLIC 1c5d0 0 ACE_Message_Queue<ACE_MT_SYNCH>::enqueue_head(ACE_Message_Block *,ACE_Time_Value *)
PUBLIC 1c6f0 0 ACE_Message_Queue<ACE_MT_SYNCH>::dequeue_head(ACE_Message_Block * &,ACE_Time_Value *)
PUBLIC 1c7d0 0 ACE_Message_Queue<ACE_MT_SYNCH>::dequeue_prio(ACE_Message_Block * &,ACE_Time_Value *)
PUBLIC 1c8b0 0 ACE_Message_Queue<ACE_MT_SYNCH>::dequeue_tail(ACE_Message_Block * &,ACE_Time_Value *)
PUBLIC 1c990 0 ACE_Message_Queue<ACE_MT_SYNCH>::dequeue_deadline(ACE_Message_Block * &,ACE_Time_Value *)
PUBLIC 1ca70 0 ACE_Message_Queue<ACE_MT_SYNCH>::is_full()
PUBLIC 1caf0 0 ACE_Message_Queue<ACE_MT_SYNCH>::is_empty()
PUBLIC 1cb70 0 ACE_Message_Queue<ACE_MT_SYNCH>::message_bytes(unsigned int)
PUBLIC 1cbd0 0 ACE_Message_Queue<ACE_MT_SYNCH>::message_bytes()
PUBLIC 1cc40 0 ACE_Message_Queue<ACE_MT_SYNCH>::message_length(unsigned int)
PUBLIC 1cca0 0 ACE_Message_Queue<ACE_MT_SYNCH>::message_length()
PUBLIC 1cd10 0 ACE_Message_Queue<ACE_MT_SYNCH>::message_count()
PUBLIC 1cd80 0 ACE_Message_Queue<ACE_MT_SYNCH>::high_water_mark(unsigned int)
PUBLIC 1cde0 0 ACE_Message_Queue<ACE_MT_SYNCH>::high_water_mark()
PUBLIC 1ce50 0 ACE_Message_Queue<ACE_MT_SYNCH>::low_water_mark(unsigned int)
PUBLIC 1ceb0 0 ACE_Message_Queue<ACE_MT_SYNCH>::low_water_mark()
PUBLIC 1cf20 0 ACE_Message_Queue<ACE_MT_SYNCH>::deactivate()
PUBLIC 1cfb0 0 ACE_Message_Queue<ACE_MT_SYNCH>::activate()
PUBLIC 1d030 0 ACE_Message_Queue<ACE_MT_SYNCH>::pulse()
PUBLIC 1d0c0 0 ACE_Message_Queue<ACE_MT_SYNCH>::enqueue_i(ACE_Message_Block *)
PUBLIC 1d190 0 ACE_Message_Queue<ACE_MT_SYNCH>::enqueue_tail_i(ACE_Message_Block *)
PUBLIC 1d240 0 ACE_Message_Queue<ACE_MT_SYNCH>::enqueue_head_i(ACE_Message_Block *)
PUBLIC 1d300 0 ACE_Message_Queue<ACE_MT_SYNCH>::dequeue_head_i(ACE_Message_Block * &)
PUBLIC 1d400 0 ACE_Message_Queue<ACE_MT_SYNCH>::dequeue_prio_i(ACE_Message_Block * &)
PUBLIC 1d500 0 ACE_Message_Queue<ACE_MT_SYNCH>::dequeue_tail_i(ACE_Message_Block * &)
PUBLIC 1d600 0 ACE_Message_Queue<ACE_MT_SYNCH>::`vector deleting destructor'(unsigned int)
PUBLIC 1d620 0 ACE_Message_Queue<ACE_MT_SYNCH>::~ACE_Message_Queue<ACE_MT_SYNCH>()
PUBLIC 1d6f0 0 CleanUpManager::CleanUpManager()
PUBLIC 1d7d0 0 ACE_Activation_Queue::`scalar deleting destructor'(unsigned int)
PUBLIC 1d7f0 0 ACE_OS::strstr(char *,char const *)
PUBLIC 1d800 0 ACE_OS::mkdir(char const *,unsigned short)
PUBLIC 1d810 0 ConfigManagerError::ConfigManagerError(char const *,char const *,char const *)
PUBLIC 1d840 0 ConfigManagerError::getClassName()
PUBLIC 1d850 0 ConfigManagerError::`scalar deleting destructor'(unsigned int)
PUBLIC 1d870 0 ConfigManagerError::~ConfigManagerError()
PUBLIC 1d8c0 0 ConfigManager::FindClassID(_STL::basic_string<char,_STL::char_traits<char>,_STL::allocator<char> > const &,TMonitorClassInfo *)
PUBLIC 1d910 0 ConfigManager::GetClassIDFromXML(char const *)
PUBLIC 1dc90 0 _STL::auto_ptr<FileReaderThreaded<ConfigManager> >::auto_ptr<FileReaderThreaded<ConfigManager> >(FileReaderThreaded<ConfigManager> *)
PUBLIC 1dca0 0 _STL::auto_ptr<FileReaderThreaded<ConfigManager> >::get()
PUBLIC 1dcb0 0 ReadFileRequest<ConfigManager>::ReadFileRequest<ConfigManager>(ConfigManager &,_STL::basic_string<char,_STL::char_traits<char>,_STL::allocator<char> > const &)
PUBLIC 1dd10 0 ReadFileRequest<ConfigManager>::`scalar deleting destructor'(unsigned int)
PUBLIC 1dd30 0 ReadFileRequest<ConfigManager>::~ReadFileRequest<ConfigManager>()
PUBLIC 1dd90 0 _STL::_Rb_tree<_STL::basic_string<char,_STL::char_traits<char>,_STL::allocator<char> > const ,_STL::pair<_STL::basic_string<char,_STL::char_traits<char>,_STL::allocator<char> > const ,_STL::basic_string<char,_STL::char_traits<char>,_STL::allocator<char> > >,_STL::_Select1st<_STL::pair<_STL::basic_string<char,_STL::char_traits<char>,_STL::allocator<char> > const ,_STL::basic_string<char,_STL::char_traits<char>,_STL::allocator<char> > > >,_STL::less<_STL::basic_string<char,_STL::char_traits<char>,_STL::allocator<char> > const >,_STL::allocator<_STL::pair<_STL::basic_string<char,_STL::char_traits<char>,_STL::allocator<char> > const ,_STL::basic_string<char,_STL::char_traits<char>,_STL::allocator<char> > > > >::_M_root()
PUBLIC 1dda0 0 _STL::_Rb_tree<_STL::basic_string<char,_STL::char_traits<char>,_STL::allocator<char> > const ,_STL::pair<_STL::basic_string<char,_STL::char_traits<char>,_STL::allocator<char> > const ,_STL::basic_string<char,_STL::char_traits<char>,_STL::allocator<char> > >,_STL::_Select1st<_STL::pair<_STL::basic_string<char,_STL::char_traits<char>,_STL::allocator<char> > const ,_STL::basic_string<char,_STL::char_traits<char>,_STL::allocator<char> > > >,_STL::less<_STL::basic_string<char,_STL::char_traits<char>,_STL::allocator<char> > const >,_STL::allocator<_STL::pair<_STL::basic_string<char,_STL::char_traits<char>,_STL::allocator<char> > const ,_STL::basic_string<char,_STL::char_traits<char>,_STL::allocator<char> > > > >::_M_leftmost()
PUBLIC 1ddb0 0 _STL::_Rb_tree<_STL::basic_string<char,_STL::char_traits<char>,_STL::allocator<char> > const ,_STL::pair<_STL::basic_string<char,_STL::char_traits<char>,_STL::allocator<char> > const ,_STL::basic_string<char,_STL::char_traits<char>,_STL::allocator<char> > >,_STL::_Select1st<_STL::pair<_STL::basic_string<char,_STL::char_traits<char>,_STL::allocator<char> > const ,_STL::basic_string<char,_STL::char_traits<char>,_STL::allocator<char> > > >,_STL::less<_STL::basic_string<char,_STL::char_traits<char>,_STL::allocator<char> > const >,_STL::allocator<_STL::pair<_STL::basic_string<char,_STL::char_traits<char>,_STL::allocator<char> > const ,_STL::basic_string<char,_STL::char_traits<char>,_STL::allocator<char> > > > >::_M_rightmost()
PUBLIC 1ddc0 0 _STL::_Rb_tree<_STL::basic_string<char,_STL::char_traits<char>,_STL::allocator<char> > const ,_STL::pair<_STL::basic_string<char,_STL::char_traits<char>,_STL::allocator<char> > const ,_STL::basic_string<char,_STL::char_traits<char>,_STL::allocator<char> > >,_STL::_Select1st<_STL::pair<_STL::basic_string<char,_STL::char_traits<char>,_STL::allocator<char> > const ,_STL::basic_string<char,_STL::char_traits<char>,_STL::allocator<char> > > >,_STL::less<_STL::basic_string<char,_STL::char_traits<char>,_STL::allocator<char> > const >,_STL::allocator<_STL::pair<_STL::basic_string<char,_STL::char_traits<char>,_STL::allocator<char> > const ,_STL::basic_string<char,_STL::char_traits<char>,_STL::allocator<char> > > > >::key_comp()
PUBLIC 1ddd0 0 _STL::_Rb_tree<_STL::basic_string<char,_STL::char_traits<char>,_STL::allocator<char> > const ,_STL::pair<_STL::basic_string<char,_STL::char_traits<char>,_STL::allocator<char> > const ,_STL::basic_string<char,_STL::char_traits<char>,_STL::allocator<char> > >,_STL::_Select1st<_STL::pair<_STL::basic_string<char,_STL::char_traits<char>,_STL::allocator<char> > const ,_STL::basic_string<char,_STL::char_traits<char>,_STL::allocator<char> > > >,_STL::less<_STL::basic_string<char,_STL::char_traits<char>,_STL::allocator<char> > const >,_STL::allocator<_STL::pair<_STL::basic_string<char,_STL::char_traits<char>,_STL::allocator<char> > const ,_STL::basic_string<char,_STL::char_traits<char>,_STL::allocator<char> > > > >::_S_color(_STL::_Rb_tree_node<_STL::pair<_STL::basic_string<char,_STL::char_traits<char>,_STL::allocator<char> > const ,_STL::basic_string<char,_STL::char_traits<char>,_STL::allocator<char> > > > *)
PUBLIC 1dde0 0 _STL::_Rb_tree<_STL::basic_string<char,_STL::char_traits<char>,_STL::allocator<char> > const ,_STL::pair<_STL::basic_string<char,_STL::char_traits<char>,_STL::allocator<char> > const ,_STL::basic_string<char,_STL::char_traits<char>,_STL::allocator<char> > >,_STL::_Select1st<_STL::pair<_STL::basic_string<char,_STL::char_traits<char>,_STL::allocator<char> > const ,_STL::basic_string<char,_STL::char_traits<char>,_STL::allocator<char> > > >,_STL::less<_STL::basic_string<char,_STL::char_traits<char>,_STL::allocator<char> > const >,_STL::allocator<_STL::pair<_STL::basic_string<char,_STL::char_traits<char>,_STL::allocator<char> > const ,_STL::basic_string<char,_STL::char_traits<char>,_STL::allocator<char> > > > >::_S_left(_STL::_Rb_tree_node<_STL::pair<_STL::basic_string<char,_STL::char_traits<char>,_STL::allocator<char> > const ,_STL::basic_string<char,_STL::char_traits<char>,_STL::allocator<char> > > > *)
PUBLIC 1ddf0 0 _STL::_Rb_tree<_STL::basic_string<char,_STL::char_traits<char>,_STL::allocator<char> > const ,_STL::pair<_STL::basic_string<char,_STL::char_traits<char>,_STL::allocator<char> > const ,_STL::basic_string<char,_STL::char_traits<char>,_STL::allocator<char> > >,_STL::_Select1st<_STL::pair<_STL::basic_string<char,_STL::char_traits<char>,_STL::allocator<char> > const ,_STL::basic_string<char,_STL::char_traits<char>,_STL::allocator<char> > > >,_STL::less<_STL::basic_string<char,_STL::char_traits<char>,_STL::allocator<char> > const >,_STL::allocator<_STL::pair<_STL::basic_string<char,_STL::char_traits<char>,_STL::allocator<char> > const ,_STL::basic_string<char,_STL::char_traits<char>,_STL::allocator<char> > > > >::_S_right(_STL::_Rb_tree_node<_STL::pair<_STL::basic_string<char,_STL::char_traits<char>,_STL::allocator<char> > const ,_STL::basic_string<char,_STL::char_traits<char>,_STL::allocator<char> > > > *)
PUBLIC 1de00 0 _STL::_Rb_tree<_STL::basic_string<char,_STL::char_traits<char>,_STL::allocator<char> > const ,_STL::pair<_STL::basic_string<char,_STL::char_traits<char>,_STL::allocator<char> > const ,_STL::basic_string<char,_STL::char_traits<char>,_STL::allocator<char> > >,_STL::_Select1st<_STL::pair<_STL::basic_string<char,_STL::char_traits<char>,_STL::allocator<char> > const ,_STL::basic_string<char,_STL::char_traits<char>,_STL::allocator<char> > > >,_STL::less<_STL::basic_string<char,_STL::char_traits<char>,_STL::allocator<char> > const >,_STL::allocator<_STL::pair<_STL::basic_string<char,_STL::char_traits<char>,_STL::allocator<char> > const ,_STL::basic_string<char,_STL::char_traits<char>,_STL::allocator<char> > > > >::_S_value(_STL::_Rb_tree_node<_STL::pair<_STL::basic_string<char,_STL::char_traits<char>,_STL::allocator<char> > const ,_STL::basic_string<char,_STL::char_traits<char>,_STL::allocator<char> > > > *)
PUBLIC 1de10 0 _STL::_Rb_tree<_STL::basic_string<char,_STL::char_traits<char>,_STL::allocator<char> > const ,_STL::pair<_STL::basic_string<char,_STL::char_traits<char>,_STL::allocator<char> > const ,_STL::basic_string<char,_STL::char_traits<char>,_STL::allocator<char> > >,_STL::_Select1st<_STL::pair<_STL::basic_string<char,_STL::char_traits<char>,_STL::allocator<char> > const ,_STL::basic_string<char,_STL::char_traits<char>,_STL::allocator<char> > > >,_STL::less<_STL::basic_string<char,_STL::char_traits<char>,_STL::allocator<char> > const >,_STL::allocator<_STL::pair<_STL::basic_string<char,_STL::char_traits<char>,_STL::allocator<char> > const ,_STL::basic_string<char,_STL::char_traits<char>,_STL::allocator<char> > > > >::_S_right(_STL::_Rb_tree_node_base *)
PUBLIC 1de20 0 _STL::_Rb_tree<_STL::basic_string<char,_STL::char_traits<char>,_STL::allocator<char> > const ,_STL::pair<_STL::basic_string<char,_STL::char_traits<char>,_STL::allocator<char> > const ,_STL::basic_string<char,_STL::char_traits<char>,_STL::allocator<char> > >,_STL::_Select1st<_STL::pair<_STL::basic_string<char,_STL::char_traits<char>,_STL::allocator<char> > const ,_STL::basic_string<char,_STL::char_traits<char>,_STL::allocator<char> > > >,_STL::less<_STL::basic_string<char,_STL::char_traits<char>,_STL::allocator<char> > const >,_STL::allocator<_STL::pair<_STL::basic_string<char,_STL::char_traits<char>,_STL::allocator<char> > const ,_STL::basic_string<char,_STL::char_traits<char>,_STL::allocator<char> > > > >::_S_key(_STL::_Rb_tree_node_base *)
PUBLIC 1de30 0 _STL::_Rb_tree<_STL::basic_string<char,_STL::char_traits<char>,_STL::allocator<char> > const ,_STL::pair<_STL::basic_string<char,_STL::char_traits<char>,_STL::allocator<char> > const ,_STL::basic_string<char,_STL::char_traits<char>,_STL::allocator<char> > >,_STL::_Select1st<_STL::pair<_STL::basic_string<char,_STL::char_traits<char>,_STL::allocator<char> > const ,_STL::basic_string<char,_STL::char_traits<char>,_STL::allocator<char> > > >,_STL::less<_STL::basic_string<char,_STL::char_traits<char>,_STL::allocator<char> > const >,_STL::allocator<_STL::pair<_STL::basic_string<char,_STL::char_traits<char>,_STL::allocator<char> > const ,_STL::basic_string<char,_STL::char_traits<char>,_STL::allocator<char> > > > >::size()
PUBLIC 1de40 0 _STL::_Rb_tree<_STL::basic_string<char,_STL::char_traits<char>,_STL::allocator<char> > const ,_STL::pair<_STL::basic_string<char,_STL::char_traits<char>,_STL::allocator<char> > const ,_STL::basic_string<char,_STL::char_traits<char>,_STL::allocator<char> > >,_STL::_Select1st<_STL::pair<_STL::basic_string<char,_STL::char_traits<char>,_STL::allocator<char> > const ,_STL::basic_string<char,_STL::char_traits<char>,_STL::allocator<char> > > >,_STL::less<_STL::basic_string<char,_STL::char_traits<char>,_STL::allocator<char> > const >,_STL::allocator<_STL::pair<_STL::basic_string<char,_STL::char_traits<char>,_STL::allocator<char> > const ,_STL::basic_string<char,_STL::char_traits<char>,_STL::allocator<char> > > > >::_S_parent(_STL::_Rb_tree_node<_STL::pair<_STL::basic_string<char,_STL::char_traits<char>,_STL::allocator<char> > const ,_STL::basic_string<char,_STL::char_traits<char>,_STL::allocator<char> > > > *)
PUBLIC 1de50 0 FileReaderThreaded<ConfigManager>::CleanUp()
PUBLIC 1df70 0 FileReaderThreaded<ConfigManager>::AddFile(_STL::basic_string<char,_STL::char_traits<char>,_STL::allocator<char> > const &)
PUBLIC 1dff0 0 _STL::auto_ptr<FileReaderThreaded<ConfigManager> >::operator->()
PUBLIC 1e000 0 _STL::auto_ptr<FileReaderThreaded<ConfigManager> >::~auto_ptr<FileReaderThreaded<ConfigManager> >()
PUBLIC 1e010 0 _STL::map<_STL::basic_string<char,_STL::char_traits<char>,_STL::allocator<char> > const ,_STL::basic_string<char,_STL::char_traits<char>,_STL::allocator<char> >,_STL::less<_STL::basic_string<char,_STL::char_traits<char>,_STL::allocator<char> > const >,_STL::allocator<_STL::pair<_STL::basic_string<char,_STL::char_traits<char>,_STL::allocator<char> > const ,_STL::basic_string<char,_STL::char_traits<char>,_STL::allocator<char> > > > >::key_comp()
PUBLIC 1e020 0 _STL::_Rb_tree<_STL::basic_string<char,_STL::char_traits<char>,_STL::allocator<char> > const ,_STL::pair<_STL::basic_string<char,_STL::char_traits<char>,_STL::allocator<char> > const ,_STL::basic_string<char,_STL::char_traits<char>,_STL::allocator<char> > >,_STL::_Select1st<_STL::pair<_STL::basic_string<char,_STL::char_traits<char>,_STL::allocator<char> > const ,_STL::basic_string<char,_STL::char_traits<char>,_STL::allocator<char> > > >,_STL::less<_STL::basic_string<char,_STL::char_traits<char>,_STL::allocator<char> > const >,_STL::allocator<_STL::pair<_STL::basic_string<char,_STL::char_traits<char>,_STL::allocator<char> > const ,_STL::basic_string<char,_STL::char_traits<char>,_STL::allocator<char> > > > >::begin()
PUBLIC 1e030 0 _STL::_Rb_tree<_STL::basic_string<char,_STL::char_traits<char>,_STL::allocator<char> > const ,_STL::pair<_STL::basic_string<char,_STL::char_traits<char>,_STL::allocator<char> > const ,_STL::basic_string<char,_STL::char_traits<char>,_STL::allocator<char> > >,_STL::_Select1st<_STL::pair<_STL::basic_string<char,_STL::char_traits<char>,_STL::allocator<char> > const ,_STL::basic_string<char,_STL::char_traits<char>,_STL::allocator<char> > > >,_STL::less<_STL::basic_string<char,_STL::char_traits<char>,_STL::allocator<char> > const >,_STL::allocator<_STL::pair<_STL::basic_string<char,_STL::char_traits<char>,_STL::allocator<char> > const ,_STL::basic_string<char,_STL::char_traits<char>,_STL::allocator<char> > > > >::end()
PUBLIC 1e040 0 _STL::_Rb_tree<_STL::basic_string<char,_STL::char_traits<char>,_STL::allocator<char> > const ,_STL::pair<_STL::basic_string<char,_STL::char_traits<char>,_STL::allocator<char> > const ,_STL::basic_string<char,_STL::char_traits<char>,_STL::allocator<char> > >,_STL::_Select1st<_STL::pair<_STL::basic_string<char,_STL::char_traits<char>,_STL::allocator<char> > const ,_STL::basic_string<char,_STL::char_traits<char>,_STL::allocator<char> > > >,_STL::less<_STL::basic_string<char,_STL::char_traits<char>,_STL::allocator<char> > const >,_STL::allocator<_STL::pair<_STL::basic_string<char,_STL::char_traits<char>,_STL::allocator<char> > const ,_STL::basic_string<char,_STL::char_traits<char>,_STL::allocator<char> > > > >::_M_empty_initialize()
PUBLIC 1e060 0 _STL::_Rb_tree<_STL::basic_string<char,_STL::char_traits<char>,_STL::allocator<char> > const ,_STL::pair<_STL::basic_string<char,_STL::char_traits<char>,_STL::allocator<char> > const ,_STL::basic_string<char,_STL::char_traits<char>,_STL::allocator<char> > >,_STL::_Select1st<_STL::pair<_STL::basic_string<char,_STL::char_traits<char>,_STL::allocator<char> > const ,_STL::basic_string<char,_STL::char_traits<char>,_STL::allocator<char> > > >,_STL::less<_STL::basic_string<char,_STL::char_traits<char>,_STL::allocator<char> > const >,_STL::allocator<_STL::pair<_STL::basic_string<char,_STL::char_traits<char>,_STL::allocator<char> > const ,_STL::basic_string<char,_STL::char_traits<char>,_STL::allocator<char> > > > >::_S_key(_STL::_Rb_tree_node<_STL::pair<_STL::basic_string<char,_STL::char_traits<char>,_STL::allocator<char> > const ,_STL::basic_string<char,_STL::char_traits<char>,_STL::allocator<char> > > > *)
PUBLIC 1e070 0 ConfigManager::close_singleton()
PUBLIC 1e100 0 _STL::map<_STL::basic_string<char,_STL::char_traits<char>,_STL::allocator<char> > const ,_STL::basic_string<char,_STL::char_traits<char>,_STL::allocator<char> >,_STL::less<_STL::basic_string<char,_STL::char_traits<char>,_STL::allocator<char> > const >,_STL::allocator<_STL::pair<_STL::basic_string<char,_STL::char_traits<char>,_STL::allocator<char> > const ,_STL::basic_string<char,_STL::char_traits<char>,_STL::allocator<char> > > > >::begin()
PUBLIC 1e110 0 _STL::map<_STL::basic_string<char,_STL::char_traits<char>,_STL::allocator<char> > const ,_STL::basic_string<char,_STL::char_traits<char>,_STL::allocator<char> >,_STL::less<_STL::basic_string<char,_STL::char_traits<char>,_STL::allocator<char> > const >,_STL::allocator<_STL::pair<_STL::basic_string<char,_STL::char_traits<char>,_STL::allocator<char> > const ,_STL::basic_string<char,_STL::char_traits<char>,_STL::allocator<char> > > > >::end()
PUBLIC 1e120 0 FileReaderThreaded<ConfigManager>::FileReaderThreaded<ConfigManager>(ConfigManager &)
PUBLIC 1e200 0 FileReaderThreaded<ConfigManager>::open(void *)
PUBLIC 1e230 0 FileReaderThreaded<ConfigManager>::svc()
PUBLIC 1e280 0 FileReaderThreaded<ConfigManager>::`scalar deleting destructor'(unsigned int)
PUBLIC 1e2a0 0 FileReaderThreaded<ConfigManager>::~FileReaderThreaded<ConfigManager>()
PUBLIC 1e330 0 [thunk]:FileReaderThreaded<ConfigManager>::`vector deleting destructor'`adjustor{24}' (unsigned int)
PUBLIC 1e340 0 _STL::_Rb_tree<_STL::basic_string<char,_STL::char_traits<char>,_STL::allocator<char> > const ,_STL::pair<_STL::basic_string<char,_STL::char_traits<char>,_STL::allocator<char> > const ,_STL::basic_string<char,_STL::char_traits<char>,_STL::allocator<char> > >,_STL::_Select1st<_STL::pair<_STL::basic_string<char,_STL::char_traits<char>,_STL::allocator<char> > const ,_STL::basic_string<char,_STL::char_traits<char>,_STL::allocator<char> > > >,_STL::less<_STL::basic_string<char,_STL::char_traits<char>,_STL::allocator<char> > const >,_STL::allocator<_STL::pair<_STL::basic_string<char,_STL::char_traits<char>,_STL::allocator<char> > const ,_STL::basic_string<char,_STL::char_traits<char>,_STL::allocator<char> > > > >::_M_lower_bound(_STL::basic_string<char,_STL::char_traits<char>,_STL::allocator<char> > const &)
PUBLIC 1e390 0 _STL::_Rb_tree<_STL::basic_string<char,_STL::char_traits<char>,_STL::allocator<char> > const ,_STL::pair<_STL::basic_string<char,_STL::char_traits<char>,_STL::allocator<char> > const ,_STL::basic_string<char,_STL::char_traits<char>,_STL::allocator<char> > >,_STL::_Select1st<_STL::pair<_STL::basic_string<char,_STL::char_traits<char>,_STL::allocator<char> > const ,_STL::basic_string<char,_STL::char_traits<char>,_STL::allocator<char> > > >,_STL::less<_STL::basic_string<char,_STL::char_traits<char>,_STL::allocator<char> > const >,_STL::allocator<_STL::pair<_STL::basic_string<char,_STL::char_traits<char>,_STL::allocator<char> > const ,_STL::basic_string<char,_STL::char_traits<char>,_STL::allocator<char> > > > >::_M_erase(_STL::_Rb_tree_node<_STL::pair<_STL::basic_string<char,_STL::char_traits<char>,_STL::allocator<char> > const ,_STL::basic_string<char,_STL::char_traits<char>,_STL::allocator<char> > > > *)
PUBLIC 1e3d0 0 _STL::_Rb_tree<_STL::basic_string<char,_STL::char_traits<char>,_STL::allocator<char> > const ,_STL::pair<_STL::basic_string<char,_STL::char_traits<char>,_STL::allocator<char> > const ,_STL::basic_string<char,_STL::char_traits<char>,_STL::allocator<char> > >,_STL::_Select1st<_STL::pair<_STL::basic_string<char,_STL::char_traits<char>,_STL::allocator<char> > const ,_STL::basic_string<char,_STL::char_traits<char>,_STL::allocator<char> > > >,_STL::less<_STL::basic_string<char,_STL::char_traits<char>,_STL::allocator<char> > const >,_STL::allocator<_STL::pair<_STL::basic_string<char,_STL::char_traits<char>,_STL::allocator<char> > const ,_STL::basic_string<char,_STL::char_traits<char>,_STL::allocator<char> > > > >::_M_create_node(_STL::pair<_STL::basic_string<char,_STL::char_traits<char>,_STL::allocator<char> > const ,_STL::basic_string<char,_STL::char_traits<char>,_STL::allocator<char> > > const &)
PUBLIC 1e460 0 ConfigManager::InitFileClassIDMap()
PUBLIC 1e5d0 0 _STL::_Rb_tree<_STL::basic_string<char,_STL::char_traits<char>,_STL::allocator<char> > const ,_STL::pair<_STL::basic_string<char,_STL::char_traits<char>,_STL::allocator<char> > const ,_STL::basic_string<char,_STL::char_traits<char>,_STL::allocator<char> > >,_STL::_Select1st<_STL::pair<_STL::basic_string<char,_STL::char_traits<char>,_STL::allocator<char> > const ,_STL::basic_string<char,_STL::char_traits<char>,_STL::allocator<char> > > >,_STL::less<_STL::basic_string<char,_STL::char_traits<char>,_STL::allocator<char> > const >,_STL::allocator<_STL::pair<_STL::basic_string<char,_STL::char_traits<char>,_STL::allocator<char> > const ,_STL::basic_string<char,_STL::char_traits<char>,_STL::allocator<char> > > > >::_Rb_tree<_STL::basic_string<char,_STL::char_traits<char>,_STL::allocator<char> > const ,_STL::pair<_STL::basic_string<char,_STL::char_traits<char>,_STL::allocator<char> > const ,_STL::basic_string<char,_STL::char_traits<char>,_STL::allocator<char> > >,_STL::_Select1st<_STL::pair<_STL::basic_string<char,_STL::char_traits<char>,_STL::allocator<char> > const ,_STL::basic_string<char,_STL::char_traits<char>,_STL::allocator<char> > > >,_STL::less<_STL::basic_string<char,_STL::char_traits<char>,_STL::allocator<char> > const >,_STL::allocator<_STL::pair<_STL::basic_string<char,_STL::char_traits<char>,_STL::allocator<char> > const ,_STL::basic_string<char,_STL::char_traits<char>,_STL::allocator<char> > > > >(_STL::less<_STL::basic_string<char,_STL::char_traits<char>,_STL::allocator<char> > const > const &,_STL::allocator<_STL::pair<_STL::basic_string<char,_STL::char_traits<char>,_STL::allocator<char> > const ,_STL::basic_string<char,_STL::char_traits<char>,_STL::allocator<char> > > > const &)
PUBLIC 1e610 0 _STL::_Rb_tree<_STL::basic_string<char,_STL::char_traits<char>,_STL::allocator<char> > const ,_STL::pair<_STL::basic_string<char,_STL::char_traits<char>,_STL::allocator<char> > const ,_STL::basic_string<char,_STL::char_traits<char>,_STL::allocator<char> > >,_STL::_Select1st<_STL::pair<_STL::basic_string<char,_STL::char_traits<char>,_STL::allocator<char> > const ,_STL::basic_string<char,_STL::char_traits<char>,_STL::allocator<char> > > >,_STL::less<_STL::basic_string<char,_STL::char_traits<char>,_STL::allocator<char> > const >,_STL::allocator<_STL::pair<_STL::basic_string<char,_STL::char_traits<char>,_STL::allocator<char> > const ,_STL::basic_string<char,_STL::char_traits<char>,_STL::allocator<char> > > > >::clear()
PUBLIC 1e650 0 _STL::_Rb_tree<_STL::basic_string<char,_STL::char_traits<char>,_STL::allocator<char> > const ,_STL::pair<_STL::basic_string<char,_STL::char_traits<char>,_STL::allocator<char> > const ,_STL::basic_string<char,_STL::char_traits<char>,_STL::allocator<char> > >,_STL::_Select1st<_STL::pair<_STL::basic_string<char,_STL::char_traits<char>,_STL::allocator<char> > const ,_STL::basic_string<char,_STL::char_traits<char>,_STL::allocator<char> > > >,_STL::less<_STL::basic_string<char,_STL::char_traits<char>,_STL::allocator<char> > const >,_STL::allocator<_STL::pair<_STL::basic_string<char,_STL::char_traits<char>,_STL::allocator<char> > const ,_STL::basic_string<char,_STL::char_traits<char>,_STL::allocator<char> > > > >::lower_bound(_STL::basic_string<char,_STL::char_traits<char>,_STL::allocator<char> > const &)
PUBLIC 1e670 0 _STL::_Rb_tree<_STL::basic_string<char,_STL::char_traits<char>,_STL::allocator<char> > const ,_STL::pair<_STL::basic_string<char,_STL::char_traits<char>,_STL::allocator<char> > const ,_STL::basic_string<char,_STL::char_traits<char>,_STL::allocator<char> > >,_STL::_Select1st<_STL::pair<_STL::basic_string<char,_STL::char_traits<char>,_STL::allocator<char> > const ,_STL::basic_string<char,_STL::char_traits<char>,_STL::allocator<char> > > >,_STL::less<_STL::basic_string<char,_STL::char_traits<char>,_STL::allocator<char> > const >,_STL::allocator<_STL::pair<_STL::basic_string<char,_STL::char_traits<char>,_STL::allocator<char> > const ,_STL::basic_string<char,_STL::char_traits<char>,_STL::allocator<char> > > > >::_M_insert(_STL::_Rb_tree_node_base *,_STL::_Rb_tree_node_base *,_STL::pair<_STL::basic_string<char,_STL::char_traits<char>,_STL::allocator<char> > const ,_STL::basic_string<char,_STL::char_traits<char>,_STL::allocator<char> > > const &,_STL::_Rb_tree_node_base *)
PUBLIC 1e720 0 _STL::_Rb_tree<_STL::basic_string<char,_STL::char_traits<char>,_STL::allocator<char> > const ,_STL::pair<_STL::basic_string<char,_STL::char_traits<char>,_STL::allocator<char> > const ,_STL::basic_string<char,_STL::char_traits<char>,_STL::allocator<char> > >,_STL::_Select1st<_STL::pair<_STL::basic_string<char,_STL::char_traits<char>,_STL::allocator<char> > const ,_STL::basic_string<char,_STL::char_traits<char>,_STL::allocator<char> > > >,_STL::less<_STL::basic_string<char,_STL::char_traits<char>,_STL::allocator<char> > const >,_STL::allocator<_STL::pair<_STL::basic_string<char,_STL::char_traits<char>,_STL::allocator<char> > const ,_STL::basic_string<char,_STL::char_traits<char>,_STL::allocator<char> > > > >::insert_unique(_STL::pair<_STL::basic_string<char,_STL::char_traits<char>,_STL::allocator<char> > const ,_STL::basic_string<char,_STL::char_traits<char>,_STL::allocator<char> > > const &)
PUBLIC 1e820 0 _STL::_Rb_tree<_STL::basic_string<char,_STL::char_traits<char>,_STL::allocator<char> > const ,_STL::pair<_STL::basic_string<char,_STL::char_traits<char>,_STL::allocator<char> > const ,_STL::basic_string<char,_STL::char_traits<char>,_STL::allocator<char> > >,_STL::_Select1st<_STL::pair<_STL::basic_string<char,_STL::char_traits<char>,_STL::allocator<char> > const ,_STL::basic_string<char,_STL::char_traits<char>,_STL::allocator<char> > > >,_STL::less<_STL::basic_string<char,_STL::char_traits<char>,_STL::allocator<char> > const >,_STL::allocator<_STL::pair<_STL::basic_string<char,_STL::char_traits<char>,_STL::allocator<char> > const ,_STL::basic_string<char,_STL::char_traits<char>,_STL::allocator<char> > > > >::~_Rb_tree<_STL::basic_string<char,_STL::char_traits<char>,_STL::allocator<char> > const ,_STL::pair<_STL::basic_string<char,_STL::char_traits<char>,_STL::allocator<char> > const ,_STL::basic_string<char,_STL::char_traits<char>,_STL::allocator<char> > >,_STL::_Select1st<_STL::pair<_STL::basic_string<char,_STL::char_traits<char>,_STL::allocator<char> > const ,_STL::basic_string<char,_STL::char_traits<char>,_STL::allocator<char> > > >,_STL::less<_STL::basic_string<char,_STL::char_traits<char>,_STL::allocator<char> > const >,_STL::allocator<_STL::pair<_STL::basic_string<char,_STL::char_traits<char>,_STL::allocator<char> > const ,_STL::basic_string<char,_STL::char_traits<char>,_STL::allocator<char> > > > >()
PUBLIC 1e8a0 0 _STL::map<_STL::basic_string<char,_STL::char_traits<char>,_STL::allocator<char> > const ,_STL::basic_string<char,_STL::char_traits<char>,_STL::allocator<char> >,_STL::less<_STL::basic_string<char,_STL::char_traits<char>,_STL::allocator<char> > const >,_STL::allocator<_STL::pair<_STL::basic_string<char,_STL::char_traits<char>,_STL::allocator<char> > const ,_STL::basic_string<char,_STL::char_traits<char>,_STL::allocator<char> > > > >::lower_bound(_STL::basic_string<char,_STL::char_traits<char>,_STL::allocator<char> > const &)
PUBLIC 1e8c0 0 _STL::_Rb_tree<_STL::basic_string<char,_STL::char_traits<char>,_STL::allocator<char> > const ,_STL::pair<_STL::basic_string<char,_STL::char_traits<char>,_STL::allocator<char> > const ,_STL::basic_string<char,_STL::char_traits<char>,_STL::allocator<char> > >,_STL::_Select1st<_STL::pair<_STL::basic_string<char,_STL::char_traits<char>,_STL::allocator<char> > const ,_STL::basic_string<char,_STL::char_traits<char>,_STL::allocator<char> > > >,_STL::less<_STL::basic_string<char,_STL::char_traits<char>,_STL::allocator<char> > const >,_STL::allocator<_STL::pair<_STL::basic_string<char,_STL::char_traits<char>,_STL::allocator<char> > const ,_STL::basic_string<char,_STL::char_traits<char>,_STL::allocator<char> > > > >::insert_unique(_STL::_Rb_tree_iterator<_STL::pair<_STL::basic_string<char,_STL::char_traits<char>,_STL::allocator<char> > const ,_STL::basic_string<char,_STL::char_traits<char>,_STL::allocator<char> > >,_STL::_Nonconst_traits<_STL::pair<_STL::basic_string<char,_STL::char_traits<char>,_STL::allocator<char> > const ,_STL::basic_string<char,_STL::char_traits<char>,_STL::allocator<char> > > > >,_STL::pair<_STL::basic_string<char,_STL::char_traits<char>,_STL::allocator<char> > const ,_STL::basic_string<char,_STL::char_traits<char>,_STL::allocator<char> > > const &)
PUBLIC 1eb80 0 _STL::map<_STL::basic_string<char,_STL::char_traits<char>,_STL::allocator<char> > const ,_STL::basic_string<char,_STL::char_traits<char>,_STL::allocator<char> >,_STL::less<_STL::basic_string<char,_STL::char_traits<char>,_STL::allocator<char> > const >,_STL::allocator<_STL::pair<_STL::basic_string<char,_STL::char_traits<char>,_STL::allocator<char> > const ,_STL::basic_string<char,_STL::char_traits<char>,_STL::allocator<char> > > > >::~map<_STL::basic_string<char,_STL::char_traits<char>,_STL::allocator<char> > const ,_STL::basic_string<char,_STL::char_traits<char>,_STL::allocator<char> >,_STL::less<_STL::basic_string<char,_STL::char_traits<char>,_STL::allocator<char> > const >,_STL::allocator<_STL::pair<_STL::basic_string<char,_STL::char_traits<char>,_STL::allocator<char> > const ,_STL::basic_string<char,_STL::char_traits<char>,_STL::allocator<char> > > > >()
PUBLIC 1eb90 0 ConfigManager::~ConfigManager()
PUBLIC 1ebf0 0 _STL::map<_STL::basic_string<char,_STL::char_traits<char>,_STL::allocator<char> > const ,_STL::basic_string<char,_STL::char_traits<char>,_STL::allocator<char> >,_STL::less<_STL::basic_string<char,_STL::char_traits<char>,_STL::allocator<char> > const >,_STL::allocator<_STL::pair<_STL::basic_string<char,_STL::char_traits<char>,_STL::allocator<char> > const ,_STL::basic_string<char,_STL::char_traits<char>,_STL::allocator<char> > > > >::map<_STL::basic_string<char,_STL::char_traits<char>,_STL::allocator<char> > const ,_STL::basic_string<char,_STL::char_traits<char>,_STL::allocator<char> >,_STL::less<_STL::basic_string<char,_STL::char_traits<char>,_STL::allocator<char> > const >,_STL::allocator<_STL::pair<_STL::basic_string<char,_STL::char_traits<char>,_STL::allocator<char> > const ,_STL::basic_string<char,_STL::char_traits<char>,_STL::allocator<char> > > > >()
PUBLIC 1ec30 0 _STL::map<_STL::basic_string<char,_STL::char_traits<char>,_STL::allocator<char> > const ,_STL::basic_string<char,_STL::char_traits<char>,_STL::allocator<char> >,_STL::less<_STL::basic_string<char,_STL::char_traits<char>,_STL::allocator<char> > const >,_STL::allocator<_STL::pair<_STL::basic_string<char,_STL::char_traits<char>,_STL::allocator<char> > const ,_STL::basic_string<char,_STL::char_traits<char>,_STL::allocator<char> > > > >::insert(_STL::_Rb_tree_iterator<_STL::pair<_STL::basic_string<char,_STL::char_traits<char>,_STL::allocator<char> > const ,_STL::basic_string<char,_STL::char_traits<char>,_STL::allocator<char> > >,_STL::_Nonconst_traits<_STL::pair<_STL::basic_string<char,_STL::char_traits<char>,_STL::allocator<char> > const ,_STL::basic_string<char,_STL::char_traits<char>,_STL::allocator<char> > > > >,_STL::pair<_STL::basic_string<char,_STL::char_traits<char>,_STL::allocator<char> > const ,_STL::basic_string<char,_STL::char_traits<char>,_STL::allocator<char> > > const &)
PUBLIC 1ec50 0 ConfigManager::`scalar deleting destructor'(unsigned int)
PUBLIC 1ec70 0 _STL::map<_STL::basic_string<char,_STL::char_traits<char>,_STL::allocator<char> > const ,_STL::basic_string<char,_STL::char_traits<char>,_STL::allocator<char> >,_STL::less<_STL::basic_string<char,_STL::char_traits<char>,_STL::allocator<char> > const >,_STL::allocator<_STL::pair<_STL::basic_string<char,_STL::char_traits<char>,_STL::allocator<char> > const ,_STL::basic_string<char,_STL::char_traits<char>,_STL::allocator<char> > > > >::operator[](_STL::basic_string<char,_STL::char_traits<char>,_STL::allocator<char> > const &)
PUBLIC 1ed30 0 ConfigManager::ConfigManager()
PUBLIC 1ee70 0 GetAttributeFromStr(_STL::basic_string<char,_STL::char_traits<char>,_STL::allocator<char> > const &,_STL::basic_string<char,_STL::char_traits<char>,_STL::allocator<char> > const &,unsigned int)
PUBLIC 1efe0 0 ConfigManagerError::ConfigManagerError(ConfigManagerError const &)
PUBLIC 1f000 0 ConfigManager::GetClassIDFromXMLNoParsing(_STL::basic_string<char,_STL::char_traits<char>,_STL::allocator<char> > const &)
PUBLIC 1f200 0 ConfigManager::LoadMonitorFromFile(_STL::basic_string<char,_STL::char_traits<char>,_STL::allocator<char> > const &)
PUBLIC 1f4f0 0 ConfigManager::LoadDataSourceFromFile(_STL::basic_string<char,_STL::char_traits<char>,_STL::allocator<char> > const &)
PUBLIC 1f7b0 0 ConfigManager::Instance()
PUBLIC 1f850 0 ConfigManager::ObjectsByClassID(TMonitorClassInfo *)
PUBLIC 1faa0 0 ConfigManager::GetClassIDFromFile(_STL::basic_string<char,_STL::char_traits<char>,_STL::allocator<char> > const &)
PUBLIC 1fb50 0 ConfigManager::ProcessFile(_STL::basic_string<char,_STL::char_traits<char>,_STL::allocator<char> > const &)
PUBLIC 1fcf0 0 ReadFileRequest<ConfigManager>::call()
PUBLIC 1fd20 0 MyXMLReader::MyXMLReader(_STL::basic_string<char,_STL::char_traits<char>,_STL::allocator<char> > const &)
PUBLIC 1fdf0 0 XMLReader::`scalar deleting destructor'(unsigned int)
PUBLIC 1fe10 0 MyXMLReader::SetDefSchemaPath(_STL::basic_string<char,_STL::char_traits<char>,_STL::allocator<char> > const &)
PUBLIC 1fe20 0 MyXMLReader::SetSchemaPath(_STL::basic_string<char,_STL::char_traits<char>,_STL::allocator<char> > const &)
PUBLIC 1fe30 0 MyXMLReader::GetReader()
PUBLIC 1fe40 0 MyXMLReader::~MyXMLReader()
PUBLIC 1feb0 0 MyXMLReader::`vector deleting destructor'(unsigned int)
PUBLIC 1fed0 0 PythonScriptError::PythonScriptError(char const *,char const *,char const *)
PUBLIC 1ff00 0 PythonScriptError::getClassName()
PUBLIC 1ff10 0 PythonScriptError::`scalar deleting destructor'(unsigned int)
PUBLIC 1ff30 0 PythonScriptError::~PythonScriptError()
PUBLIC 1ff40 0 PythonScript::PythonScript(_STL::basic_string<char,_STL::char_traits<char>,_STL::allocator<char> > const &,ControladorBase *)
PUBLIC 1ff80 0 PythonScript::DispatchEventVariablesNoLock(TEvent *)
PUBLIC 203d0 0 PythonScript::~PythonScript()
PUBLIC 204c0 0 PythonScript::CompileNoLock()
PUBLIC 204e0 0 PythonScript::GetKind()
PUBLIC 204f0 0 PythonScript::FastSetVariableString(_STL::basic_string<char,_STL::char_traits<char>,_STL::allocator<char> > const &,char const *)
PUBLIC 20520 0 PythonScript::acquireMutexScripting()
PUBLIC 20550 0 PythonScript::releaseMutexScripting()
PUBLIC 20590 0 _STL::auto_ptr<ScriptDB>::get()
PUBLIC 205a0 0 _STL::auto_ptr<ScriptDB>::operator->()
PUBLIC 205b0 0 PythonScript::`scalar deleting destructor'(unsigned int)
PUBLIC 205d0 0 PythonScriptError::PythonScriptError(PythonScriptError const &)
PUBLIC 205f0 0 PythonScript::DispatchEventVariables(TEvent *)
PUBLIC 20650 0 PythonScript::Evaluate()
PUBLIC 206b0 0 PythonScript::FastSetVariableValue(_STL::basic_string<char,_STL::char_traits<char>,_STL::allocator<char> > const &,_StdValue *)
PUBLIC 20930 0 PythonScript::SetVariableValue(_STL::basic_string<char,_STL::char_traits<char>,_STL::allocator<char> > const &,_StdValue *)
PUBLIC 209a0 0 PythonScript::Init()
PUBLIC 20ce0 0 PythonScript::ParseWizardScriptExpression(xercesc_2_7::DOMNode const *)
PUBLIC 22510 0 PythonScript::ParseRawScriptExpression(xercesc_2_7::DOMNode const *)
PUBLIC 22b20 0 PythonScript::Compile()
PUBLIC 22d00 0 PythonScript::EvaluateNoLock()
PUBLIC 22f90 0 PythonScript::SetVariableString(_STL::basic_string<char,_STL::char_traits<char>,_STL::allocator<char> > const &,char const *)
PUBLIC 230f0 0 PythonScript::SetVariableValueNoLock(_STL::basic_string<char,_STL::char_traits<char>,_STL::allocator<char> > const &,_StdValue *)
PUBLIC 23230 0 PythonScriptAlev::GetKind()
PUBLIC 23240 0 PythonScriptAlev::InitALEV()
PUBLIC 23290 0 PythonScriptAlev::RefreshALEVVariables(TEvent *)
PUBLIC 23360 0 _STL::pair<_STL::basic_string<char,_STL::char_traits<char>,_STL::allocator<char> > const ,void *>::~pair<_STL::basic_string<char,_STL::char_traits<char>,_STL::allocator<char> > const ,void *>()
PUBLIC 23370 0 _STL::allocator<_STL::pair<_STL::basic_string<char,_STL::char_traits<char>,_STL::allocator<char> > const ,void *> >::allocator<_STL::pair<_STL::basic_string<char,_STL::char_traits<char>,_STL::allocator<char> > const ,void *> >()
PUBLIC 23380 0 _STL::allocator<_STL::pair<_STL::basic_string<char,_STL::char_traits<char>,_STL::allocator<char> > const ,void *> >::~allocator<_STL::pair<_STL::basic_string<char,_STL::char_traits<char>,_STL::allocator<char> > const ,void *> >()
PUBLIC 23390 0 _STL::_Rb_tree_iterator<_STL::pair<_STL::basic_string<char,_STL::char_traits<char>,_STL::allocator<char> > const ,void *>,_STL::_Nonconst_traits<_STL::pair<_STL::basic_string<char,_STL::char_traits<char>,_STL::allocator<char> > const ,void *> > >::_Rb_tree_iterator<_STL::pair<_STL::basic_string<char,_STL::char_traits<char>,_STL::allocator<char> > const ,void *>,_STL::_Nonconst_traits<_STL::pair<_STL::basic_string<char,_STL::char_traits<char>,_STL::allocator<char> > const ,void *> > >(_STL::_Rb_tree_iterator<_STL::pair<_STL::basic_string<char,_STL::char_traits<char>,_STL::allocator<char> > const ,void *>,_STL::_Nonconst_traits<_STL::pair<_STL::basic_string<char,_STL::char_traits<char>,_STL::allocator<char> > const ,void *> > > const &)
PUBLIC 233a0 0 _STL::_Rb_tree_iterator<_STL::pair<_STL::basic_string<char,_STL::char_traits<char>,_STL::allocator<char> > const ,void *>,_STL::_Nonconst_traits<_STL::pair<_STL::basic_string<char,_STL::char_traits<char>,_STL::allocator<char> > const ,void *> > >::operator*()
PUBLIC 233b0 0 _STL::pair<_STL::basic_string<char,_STL::char_traits<char>,_STL::allocator<char> > const ,void *>::pair<_STL::basic_string<char,_STL::char_traits<char>,_STL::allocator<char> > const ,void *>(_STL::basic_string<char,_STL::char_traits<char>,_STL::allocator<char> > const &,void * const &)
PUBLIC 233d0 0 _STL::_Rb_tree<_STL::basic_string<char,_STL::char_traits<char>,_STL::allocator<char> >,_STL::pair<_STL::basic_string<char,_STL::char_traits<char>,_STL::allocator<char> > const ,void *>,_STL::_Select1st<_STL::pair<_STL::basic_string<char,_STL::char_traits<char>,_STL::allocator<char> > const ,void *> >,_STL::less<_STL::basic_string<char,_STL::char_traits<char>,_STL::allocator<char> > >,_STL::allocator<_STL::pair<_STL::basic_string<char,_STL::char_traits<char>,_STL::allocator<char> > const ,void *> > >::_M_root()
PUBLIC 233e0 0 _STL::_Rb_tree<_STL::basic_string<char,_STL::char_traits<char>,_STL::allocator<char> >,_STL::pair<_STL::basic_string<char,_STL::char_traits<char>,_STL::allocator<char> > const ,void *>,_STL::_Select1st<_STL::pair<_STL::basic_string<char,_STL::char_traits<char>,_STL::allocator<char> > const ,void *> >,_STL::less<_STL::basic_string<char,_STL::char_traits<char>,_STL::allocator<char> > >,_STL::allocator<_STL::pair<_STL::basic_string<char,_STL::char_traits<char>,_STL::allocator<char> > const ,void *> > >::_M_leftmost()
PUBLIC 233f0 0 _STL::_Rb_tree<_STL::basic_string<char,_STL::char_traits<char>,_STL::allocator<char> >,_STL::pair<_STL::basic_string<char,_STL::char_traits<char>,_STL::allocator<char> > const ,void *>,_STL::_Select1st<_STL::pair<_STL::basic_string<char,_STL::char_traits<char>,_STL::allocator<char> > const ,void *> >,_STL::less<_STL::basic_string<char,_STL::char_traits<char>,_STL::allocator<char> > >,_STL::allocator<_STL::pair<_STL::basic_string<char,_STL::char_traits<char>,_STL::allocator<char> > const ,void *> > >::_M_rightmost()
PUBLIC 23400 0 _STL::_Rb_tree<_STL::basic_string<char,_STL::char_traits<char>,_STL::allocator<char> >,_STL::pair<_STL::basic_string<char,_STL::char_traits<char>,_STL::allocator<char> > const ,void *>,_STL::_Select1st<_STL::pair<_STL::basic_string<char,_STL::char_traits<char>,_STL::allocator<char> > const ,void *> >,_STL::less<_STL::basic_string<char,_STL::char_traits<char>,_STL::allocator<char> > >,_STL::allocator<_STL::pair<_STL::basic_string<char,_STL::char_traits<char>,_STL::allocator<char> > const ,void *> > >::key_comp()
PUBLIC 23410 0 _STL::allocator<_STL::_Rb_tree_node<_STL::pair<_STL::basic_string<char,_STL::char_traits<char>,_STL::allocator<char> > const ,void *> > >::~allocator<_STL::_Rb_tree_node<_STL::pair<_STL::basic_string<char,_STL::char_traits<char>,_STL::allocator<char> > const ,void *> > >()
PUBLIC 23420 0 _STL::allocator<_STL::_Rb_tree_node<_STL::pair<_STL::basic_string<char,_STL::char_traits<char>,_STL::allocator<char> > const ,void *> > >::deallocate(_STL::_Rb_tree_node<_STL::pair<_STL::basic_string<char,_STL::char_traits<char>,_STL::allocator<char> > const ,void *> > *,unsigned int)
PUBLIC 23440 0 _STL::_Rb_tree_iterator<_STL::pair<_STL::basic_string<char,_STL::char_traits<char>,_STL::allocator<char> > const ,void *>,_STL::_Nonconst_traits<_STL::pair<_STL::basic_string<char,_STL::char_traits<char>,_STL::allocator<char> > const ,void *> > >::_Rb_tree_iterator<_STL::pair<_STL::basic_string<char,_STL::char_traits<char>,_STL::allocator<char> > const ,void *>,_STL::_Nonconst_traits<_STL::pair<_STL::basic_string<char,_STL::char_traits<char>,_STL::allocator<char> > const ,void *> > >(_STL::_Rb_tree_node<_STL::pair<_STL::basic_string<char,_STL::char_traits<char>,_STL::allocator<char> > const ,void *> > *)
PUBLIC 23450 0 _STL::_Rb_tree<_STL::basic_string<char,_STL::char_traits<char>,_STL::allocator<char> >,_STL::pair<_STL::basic_string<char,_STL::char_traits<char>,_STL::allocator<char> > const ,void *>,_STL::_Select1st<_STL::pair<_STL::basic_string<char,_STL::char_traits<char>,_STL::allocator<char> > const ,void *> >,_STL::less<_STL::basic_string<char,_STL::char_traits<char>,_STL::allocator<char> > >,_STL::allocator<_STL::pair<_STL::basic_string<char,_STL::char_traits<char>,_STL::allocator<char> > const ,void *> > >::_S_color(_STL::_Rb_tree_node<_STL::pair<_STL::basic_string<char,_STL::char_traits<char>,_STL::allocator<char> > const ,void *> > *)
PUBLIC 23460 0 _STL::allocator<_STL::_Rb_tree_node<_STL::pair<_STL::basic_string<char,_STL::char_traits<char>,_STL::allocator<char> > const ,void *> > >::allocate(unsigned int,void const *)
PUBLIC 23480 0 _STL::_Rb_tree<_STL::basic_string<char,_STL::char_traits<char>,_STL::allocator<char> >,_STL::pair<_STL::basic_string<char,_STL::char_traits<char>,_STL::allocator<char> > const ,void *>,_STL::_Select1st<_STL::pair<_STL::basic_string<char,_STL::char_traits<char>,_STL::allocator<char> > const ,void *> >,_STL::less<_STL::basic_string<char,_STL::char_traits<char>,_STL::allocator<char> > >,_STL::allocator<_STL::pair<_STL::basic_string<char,_STL::char_traits<char>,_STL::allocator<char> > const ,void *> > >::_S_left(_STL::_Rb_tree_node<_STL::pair<_STL::basic_string<char,_STL::char_traits<char>,_STL::allocator<char> > const ,void *> > *)
PUBLIC 23490 0 _STL::_Rb_tree<_STL::basic_string<char,_STL::char_traits<char>,_STL::allocator<char> >,_STL::pair<_STL::basic_string<char,_STL::char_traits<char>,_STL::allocator<char> > const ,void *>,_STL::_Select1st<_STL::pair<_STL::basic_string<char,_STL::char_traits<char>,_STL::allocator<char> > const ,void *> >,_STL::less<_STL::basic_string<char,_STL::char_traits<char>,_STL::allocator<char> > >,_STL::allocator<_STL::pair<_STL::basic_string<char,_STL::char_traits<char>,_STL::allocator<char> > const ,void *> > >::_S_right(_STL::_Rb_tree_node<_STL::pair<_STL::basic_string<char,_STL::char_traits<char>,_STL::allocator<char> > const ,void *> > *)
PUBLIC 234a0 0 _STL::allocator<_STL::_Rb_tree_node<_STL::pair<_STL::basic_string<char,_STL::char_traits<char>,_STL::allocator<char> > const ,void *> > >::allocator<_STL::_Rb_tree_node<_STL::pair<_STL::basic_string<char,_STL::char_traits<char>,_STL::allocator<char> > const ,void *> > >(_STL::allocator<_STL::_Rb_tree_node<_STL::pair<_STL::basic_string<char,_STL::char_traits<char>,_STL::allocator<char> > const ,void *> > > const &)
PUBLIC 234b0 0 _STL::_Rb_tree<_STL::basic_string<char,_STL::char_traits<char>,_STL::allocator<char> >,_STL::pair<_STL::basic_string<char,_STL::char_traits<char>,_STL::allocator<char> > const ,void *>,_STL::_Select1st<_STL::pair<_STL::basic_string<char,_STL::char_traits<char>,_STL::allocator<char> > const ,void *> >,_STL::less<_STL::basic_string<char,_STL::char_traits<char>,_STL::allocator<char> > >,_STL::allocator<_STL::pair<_STL::basic_string<char,_STL::char_traits<char>,_STL::allocator<char> > const ,void *> > >::_S_value(_STL::_Rb_tree_node<_STL::pair<_STL::basic_string<char,_STL::char_traits<char>,_STL::allocator<char> > const ,void *> > *)
PUBLIC 234c0 0 _STL::_Select1st<_STL::pair<_STL::basic_string<char,_STL::char_traits<char>,_STL::allocator<char> > const ,void *> >::operator()(_STL::pair<_STL::basic_string<char,_STL::char_traits<char>,_STL::allocator<char> > const ,void *> const &)
PUBLIC 234d0 0 _STL::allocator<_STL::_Rb_tree_node<_STL::pair<_STL::basic_string<char,_STL::char_traits<char>,_STL::allocator<char> > const ,void *> > >::allocator<_STL::_Rb_tree_node<_STL::pair<_STL::basic_string<char,_STL::char_traits<char>,_STL::allocator<char> > const ,void *> > ><_STL::pair<_STL::basic_string<char,_STL::char_traits<char>,_STL::allocator<char> > const ,void *> >(_STL::allocator<_STL::pair<_STL::basic_string<char,_STL::char_traits<char>,_STL::allocator<char> > const ,void *> > const &)
PUBLIC 234e0 0 _STL::_Rb_tree<_STL::basic_string<char,_STL::char_traits<char>,_STL::allocator<char> >,_STL::pair<_STL::basic_string<char,_STL::char_traits<char>,_STL::allocator<char> > const ,void *>,_STL::_Select1st<_STL::pair<_STL::basic_string<char,_STL::char_traits<char>,_STL::allocator<char> > const ,void *> >,_STL::less<_STL::basic_string<char,_STL::char_traits<char>,_STL::allocator<char> > >,_STL::allocator<_STL::pair<_STL::basic_string<char,_STL::char_traits<char>,_STL::allocator<char> > const ,void *> > >::_S_right(_STL::_Rb_tree_node_base *)
PUBLIC 234f0 0 _STL::_Rb_tree<_STL::basic_string<char,_STL::char_traits<char>,_STL::allocator<char> >,_STL::pair<_STL::basic_string<char,_STL::char_traits<char>,_STL::allocator<char> > const ,void *>,_STL::_Select1st<_STL::pair<_STL::basic_string<char,_STL::char_traits<char>,_STL::allocator<char> > const ,void *> >,_STL::less<_STL::basic_string<char,_STL::char_traits<char>,_STL::allocator<char> > >,_STL::allocator<_STL::pair<_STL::basic_string<char,_STL::char_traits<char>,_STL::allocator<char> > const ,void *> > >::_S_key(_STL::_Rb_tree_node_base *)
PUBLIC 23500 0 _STL::_Rb_tree<_STL::basic_string<char,_STL::char_traits<char>,_STL::allocator<char> >,_STL::pair<_STL::basic_string<char,_STL::char_traits<char>,_STL::allocator<char> > const ,void *>,_STL::_Select1st<_STL::pair<_STL::basic_string<char,_STL::char_traits<char>,_STL::allocator<char> > const ,void *> >,_STL::less<_STL::basic_string<char,_STL::char_traits<char>,_STL::allocator<char> > >,_STL::allocator<_STL::pair<_STL::basic_string<char,_STL::char_traits<char>,_STL::allocator<char> > const ,void *> > >::size()
PUBLIC 23510 0 _STL::_Rb_tree_iterator<_STL::pair<_STL::basic_string<char,_STL::char_traits<char>,_STL::allocator<char> > const ,void *>,_STL::_Nonconst_traits<_STL::pair<_STL::basic_string<char,_STL::char_traits<char>,_STL::allocator<char> > const ,void *> > >::operator++()
PUBLIC 23530 0 _STL::_Rb_tree_iterator<_STL::pair<_STL::basic_string<char,_STL::char_traits<char>,_STL::allocator<char> > const ,void *>,_STL::_Nonconst_traits<_STL::pair<_STL::basic_string<char,_STL::char_traits<char>,_STL::allocator<char> > const ,void *> > >::operator--()
PUBLIC 23550 0 _STL::pair<_STL::basic_string<char,_STL::char_traits<char>,_STL::allocator<char> > const ,void *>::`scalar deleting destructor'(unsigned int)
PUBLIC 23570 0 _STL::_Rb_tree<_STL::basic_string<char,_STL::char_traits<char>,_STL::allocator<char> >,_STL::pair<_STL::basic_string<char,_STL::char_traits<char>,_STL::allocator<char> > const ,void *>,_STL::_Select1st<_STL::pair<_STL::basic_string<char,_STL::char_traits<char>,_STL::allocator<char> > const ,void *> >,_STL::less<_STL::basic_string<char,_STL::char_traits<char>,_STL::allocator<char> > >,_STL::allocator<_STL::pair<_STL::basic_string<char,_STL::char_traits<char>,_STL::allocator<char> > const ,void *> > >::_S_parent(_STL::_Rb_tree_node<_STL::pair<_STL::basic_string<char,_STL::char_traits<char>,_STL::allocator<char> > const ,void *> > *)
PUBLIC 23580 0 _STL::_Rb_tree<_STL::basic_string<char,_STL::char_traits<char>,_STL::allocator<char> >,_STL::pair<_STL::basic_string<char,_STL::char_traits<char>,_STL::allocator<char> > const ,void *>,_STL::_Select1st<_STL::pair<_STL::basic_string<char,_STL::char_traits<char>,_STL::allocator<char> > const ,void *> >,_STL::less<_STL::basic_string<char,_STL::char_traits<char>,_STL::allocator<char> > >,_STL::allocator<_STL::pair<_STL::basic_string<char,_STL::char_traits<char>,_STL::allocator<char> > const ,void *> > >::begin()
PUBLIC 23590 0 _STL::pair<_STL::_Rb_tree_iterator<_STL::pair<_STL::basic_string<char,_STL::char_traits<char>,_STL::allocator<char> > const ,void *>,_STL::_Nonconst_traits<_STL::pair<_STL::basic_string<char,_STL::char_traits<char>,_STL::allocator<char> > const ,void *> > >,bool>::pair<_STL::_Rb_tree_iterator<_STL::pair<_STL::basic_string<char,_STL::char_traits<char>,_STL::allocator<char> > const ,void *>,_STL::_Nonconst_traits<_STL::pair<_STL::basic_string<char,_STL::char_traits<char>,_STL::allocator<char> > const ,void *> > >,bool>(_STL::_Rb_tree_iterator<_STL::pair<_STL::basic_string<char,_STL::char_traits<char>,_STL::allocator<char> > const ,void *>,_STL::_Nonconst_traits<_STL::pair<_STL::basic_string<char,_STL::char_traits<char>,_STL::allocator<char> > const ,void *> > > const &,bool const &)
PUBLIC 235b0 0 _STL::pair<_STL::basic_string<char,_STL::char_traits<char>,_STL::allocator<char> > const ,void *>::pair<_STL::basic_string<char,_STL::char_traits<char>,_STL::allocator<char> > const ,void *>(_STL::pair<_STL::basic_string<char,_STL::char_traits<char>,_STL::allocator<char> > const ,void *> const &)
PUBLIC 235d0 0 PythonScriptAlev::Init()
PUBLIC 23660 0 _STL::map<_STL::basic_string<char,_STL::char_traits<char>,_STL::allocator<char> >,void *,_STL::less<_STL::basic_string<char,_STL::char_traits<char>,_STL::allocator<char> > >,_STL::allocator<_STL::pair<_STL::basic_string<char,_STL::char_traits<char>,_STL::allocator<char> > const ,void *> > >::key_comp()
PUBLIC 23670 0 _STL::_Rb_tree<_STL::basic_string<char,_STL::char_traits<char>,_STL::allocator<char> >,_STL::pair<_STL::basic_string<char,_STL::char_traits<char>,_STL::allocator<char> > const ,void *>,_STL::_Select1st<_STL::pair<_STL::basic_string<char,_STL::char_traits<char>,_STL::allocator<char> > const ,void *> >,_STL::less<_STL::basic_string<char,_STL::char_traits<char>,_STL::allocator<char> > >,_STL::allocator<_STL::pair<_STL::basic_string<char,_STL::char_traits<char>,_STL::allocator<char> > const ,void *> > >::end()
PUBLIC 23680 0 _STL::_STLP_alloc_proxy<_STL::_Rb_tree_node<_STL::pair<_STL::basic_string<char,_STL::char_traits<char>,_STL::allocator<char> > const ,void *> > *,_STL::_Rb_tree_node<_STL::pair<_STL::basic_string<char,_STL::char_traits<char>,_STL::allocator<char> > const ,void *> >,_STL::allocator<_STL::_Rb_tree_node<_STL::pair<_STL::basic_string<char,_STL::char_traits<char>,_STL::allocator<char> > const ,void *> > > >::~_STLP_alloc_proxy<_STL::_Rb_tree_node<_STL::pair<_STL::basic_string<char,_STL::char_traits<char>,_STL::allocator<char> > const ,void *> > *,_STL::_Rb_tree_node<_STL::pair<_STL::basic_string<char,_STL::char_traits<char>,_STL::allocator<char> > const ,void *> >,_STL::allocator<_STL::_Rb_tree_node<_STL::pair<_STL::basic_string<char,_STL::char_traits<char>,_STL::allocator<char> > const ,void *> > > >()
PUBLIC 23690 0 _STL::_Rb_tree<_STL::basic_string<char,_STL::char_traits<char>,_STL::allocator<char> >,_STL::pair<_STL::basic_string<char,_STL::char_traits<char>,_STL::allocator<char> > const ,void *>,_STL::_Select1st<_STL::pair<_STL::basic_string<char,_STL::char_traits<char>,_STL::allocator<char> > const ,void *> >,_STL::less<_STL::basic_string<char,_STL::char_traits<char>,_STL::allocator<char> > >,_STL::allocator<_STL::pair<_STL::basic_string<char,_STL::char_traits<char>,_STL::allocator<char> > const ,void *> > >::_M_empty_initialize()
PUBLIC 236b0 0 _STL::_STLP_alloc_proxy<_STL::_Rb_tree_node<_STL::pair<_STL::basic_string<char,_STL::char_traits<char>,_STL::allocator<char> > const ,void *> > *,_STL::_Rb_tree_node<_STL::pair<_STL::basic_string<char,_STL::char_traits<char>,_STL::allocator<char> > const ,void *> >,_STL::allocator<_STL::_Rb_tree_node<_STL::pair<_STL::basic_string<char,_STL::char_traits<char>,_STL::allocator<char> > const ,void *> > > >::_STLP_alloc_proxy<_STL::_Rb_tree_node<_STL::pair<_STL::basic_string<char,_STL::char_traits<char>,_STL::allocator<char> > const ,void *> > *,_STL::_Rb_tree_node<_STL::pair<_STL::basic_string<char,_STL::char_traits<char>,_STL::allocator<char> > const ,void *> >,_STL::allocator<_STL::_Rb_tree_node<_STL::pair<_STL::basic_string<char,_STL::char_traits<char>,_STL::allocator<char> > const ,void *> > > >(_STL::allocator<_STL::_Rb_tree_node<_STL::pair<_STL::basic_string<char,_STL::char_traits<char>,_STL::allocator<char> > const ,void *> > > const &,_STL::_Rb_tree_node<_STL::pair<_STL::basic_string<char,_STL::char_traits<char>,_STL::allocator<char> > const ,void *> > *)
PUBLIC 236c0 0 _STL::_Rb_tree<_STL::basic_string<char,_STL::char_traits<char>,_STL::allocator<char> >,_STL::pair<_STL::basic_string<char,_STL::char_traits<char>,_STL::allocator<char> > const ,void *>,_STL::_Select1st<_STL::pair<_STL::basic_string<char,_STL::char_traits<char>,_STL::allocator<char> > const ,void *> >,_STL::less<_STL::basic_string<char,_STL::char_traits<char>,_STL::allocator<char> > >,_STL::allocator<_STL::pair<_STL::basic_string<char,_STL::char_traits<char>,_STL::allocator<char> > const ,void *> > >::_S_key(_STL::_Rb_tree_node<_STL::pair<_STL::basic_string<char,_STL::char_traits<char>,_STL::allocator<char> > const ,void *> > *)
PUBLIC 236d0 0 _STL::_Destroy<_STL::pair<_STL::basic_string<char,_STL::char_traits<char>,_STL::allocator<char> > const ,void *> >(_STL::pair<_STL::basic_string<char,_STL::char_traits<char>,_STL::allocator<char> > const ,void *> *)
PUBLIC 236e0 0 _STL::_Rb_tree<_STL::basic_string<char,_STL::char_traits<char>,_STL::allocator<char> >,_STL::pair<_STL::basic_string<char,_STL::char_traits<char>,_STL::allocator<char> > const ,void *>,_STL::_Select1st<_STL::pair<_STL::basic_string<char,_STL::char_traits<char>,_STL::allocator<char> > const ,void *> >,_STL::less<_STL::basic_string<char,_STL::char_traits<char>,_STL::allocator<char> > >,_STL::allocator<_STL::pair<_STL::basic_string<char,_STL::char_traits<char>,_STL::allocator<char> > const ,void *> > >::_M_find<_STL::basic_string<char,_STL::char_traits<char>,_STL::allocator<char> > >(_STL::basic_string<char,_STL::char_traits<char>,_STL::allocator<char> > const &)
PUBLIC 23760 0 _STL::_Construct<_STL::pair<_STL::basic_string<char,_STL::char_traits<char>,_STL::allocator<char> > const ,void *>,_STL::pair<_STL::basic_string<char,_STL::char_traits<char>,_STL::allocator<char> > const ,void *> >(_STL::pair<_STL::basic_string<char,_STL::char_traits<char>,_STL::allocator<char> > const ,void *> *,_STL::pair<_STL::basic_string<char,_STL::char_traits<char>,_STL::allocator<char> > const ,void *> const &)
PUBLIC 237b0 0 _STL::map<_STL::basic_string<char,_STL::char_traits<char>,_STL::allocator<char> >,void *,_STL::less<_STL::basic_string<char,_STL::char_traits<char>,_STL::allocator<char> > >,_STL::allocator<_STL::pair<_STL::basic_string<char,_STL::char_traits<char>,_STL::allocator<char> > const ,void *> > >::end()
PUBLIC 237c0 0 _STL::_Rb_tree_base<_STL::pair<_STL::basic_string<char,_STL::char_traits<char>,_STL::allocator<char> > const ,void *>,_STL::allocator<_STL::pair<_STL::basic_string<char,_STL::char_traits<char>,_STL::allocator<char> > const ,void *> > >::~_Rb_tree_base<_STL::pair<_STL::basic_string<char,_STL::char_traits<char>,_STL::allocator<char> > const ,void *>,_STL::allocator<_STL::pair<_STL::basic_string<char,_STL::char_traits<char>,_STL::allocator<char> > const ,void *> > >()
PUBLIC 237e0 0 _STL::_Rb_tree_base<_STL::pair<_STL::basic_string<char,_STL::char_traits<char>,_STL::allocator<char> > const ,void *>,_STL::allocator<_STL::pair<_STL::basic_string<char,_STL::char_traits<char>,_STL::allocator<char> > const ,void *> > >::_Rb_tree_base<_STL::pair<_STL::basic_string<char,_STL::char_traits<char>,_STL::allocator<char> > const ,void *>,_STL::allocator<_STL::pair<_STL::basic_string<char,_STL::char_traits<char>,_STL::allocator<char> > const ,void *> > >(_STL::allocator<_STL::pair<_STL::basic_string<char,_STL::char_traits<char>,_STL::allocator<char> > const ,void *> > const &)
PUBLIC 23810 0 _STL::_Rb_tree<_STL::basic_string<char,_STL::char_traits<char>,_STL::allocator<char> >,_STL::pair<_STL::basic_string<char,_STL::char_traits<char>,_STL::allocator<char> > const ,void *>,_STL::_Select1st<_STL::pair<_STL::basic_string<char,_STL::char_traits<char>,_STL::allocator<char> > const ,void *> >,_STL::less<_STL::basic_string<char,_STL::char_traits<char>,_STL::allocator<char> > >,_STL::allocator<_STL::pair<_STL::basic_string<char,_STL::char_traits<char>,_STL::allocator<char> > const ,void *> > >::_M_lower_bound(_STL::basic_string<char,_STL::char_traits<char>,_STL::allocator<char> > const &)
PUBLIC 23860 0 _STL::_Rb_tree<_STL::basic_string<char,_STL::char_traits<char>,_STL::allocator<char> >,_STL::pair<_STL::basic_string<char,_STL::char_traits<char>,_STL::allocator<char> > const ,void *>,_STL::_Select1st<_STL::pair<_STL::basic_string<char,_STL::char_traits<char>,_STL::allocator<char> > const ,void *> >,_STL::less<_STL::basic_string<char,_STL::char_traits<char>,_STL::allocator<char> > >,_STL::allocator<_STL::pair<_STL::basic_string<char,_STL::char_traits<char>,_STL::allocator<char> > const ,void *> > >::_M_erase(_STL::_Rb_tree_node<_STL::pair<_STL::basic_string<char,_STL::char_traits<char>,_STL::allocator<char> > const ,void *> > *)
PUBLIC 238a0 0 _STL::_Rb_tree<_STL::basic_string<char,_STL::char_traits<char>,_STL::allocator<char> >,_STL::pair<_STL::basic_string<char,_STL::char_traits<char>,_STL::allocator<char> > const ,void *>,_STL::_Select1st<_STL::pair<_STL::basic_string<char,_STL::char_traits<char>,_STL::allocator<char> > const ,void *> >,_STL::less<_STL::basic_string<char,_STL::char_traits<char>,_STL::allocator<char> > >,_STL::allocator<_STL::pair<_STL::basic_string<char,_STL::char_traits<char>,_STL::allocator<char> > const ,void *> > >::find<_STL::basic_string<char,_STL::char_traits<char>,_STL::allocator<char> > >(_STL::basic_string<char,_STL::char_traits<char>,_STL::allocator<char> > const &)
PUBLIC 238c0 0 _STL::_Rb_tree<_STL::basic_string<char,_STL::char_traits<char>,_STL::allocator<char> >,_STL::pair<_STL::basic_string<char,_STL::char_traits<char>,_STL::allocator<char> > const ,void *>,_STL::_Select1st<_STL::pair<_STL::basic_string<char,_STL::char_traits<char>,_STL::allocator<char> > const ,void *> >,_STL::less<_STL::basic_string<char,_STL::char_traits<char>,_STL::allocator<char> > >,_STL::allocator<_STL::pair<_STL::basic_string<char,_STL::char_traits<char>,_STL::allocator<char> > const ,void *> > >::_M_create_node(_STL::pair<_STL::basic_string<char,_STL::char_traits<char>,_STL::allocator<char> > const ,void *> const &)
PUBLIC 23940 0 _STL::map<_STL::basic_string<char,_STL::char_traits<char>,_STL::allocator<char> >,void *,_STL::less<_STL::basic_string<char,_STL::char_traits<char>,_STL::allocator<char> > >,_STL::allocator<_STL::pair<_STL::basic_string<char,_STL::char_traits<char>,_STL::allocator<char> > const ,void *> > >::find(_STL::basic_string<char,_STL::char_traits<char>,_STL::allocator<char> > const &)
PUBLIC 23960 0 _STL::_Rb_tree<_STL::basic_string<char,_STL::char_traits<char>,_STL::allocator<char> >,_STL::pair<_STL::basic_string<char,_STL::char_traits<char>,_STL::allocator<char> > const ,void *>,_STL::_Select1st<_STL::pair<_STL::basic_string<char,_STL::char_traits<char>,_STL::allocator<char> > const ,void *> >,_STL::less<_STL::basic_string<char,_STL::char_traits<char>,_STL::allocator<char> > >,_STL::allocator<_STL::pair<_STL::basic_string<char,_STL::char_traits<char>,_STL::allocator<char> > const ,void *> > >::_Rb_tree<_STL::basic_string<char,_STL::char_traits<char>,_STL::allocator<char> >,_STL::pair<_STL::basic_string<char,_STL::char_traits<char>,_STL::allocator<char> > const ,void *>,_STL::_Select1st<_STL::pair<_STL::basic_string<char,_STL::char_traits<char>,_STL::allocator<char> > const ,void *> >,_STL::less<_STL::basic_string<char,_STL::char_traits<char>,_STL::allocator<char> > >,_STL::allocator<_STL::pair<_STL::basic_string<char,_STL::char_traits<char>,_STL::allocator<char> > const ,void *> > >(_STL::less<_STL::basic_string<char,_STL::char_traits<char>,_STL::allocator<char> > > const &,_STL::allocator<_STL::pair<_STL::basic_string<char,_STL::char_traits<char>,_STL::allocator<char> > const ,void *> > const &)
PUBLIC 239a0 0 _STL::_Rb_tree<_STL::basic_string<char,_STL::char_traits<char>,_STL::allocator<char> >,_STL::pair<_STL::basic_string<char,_STL::char_traits<char>,_STL::allocator<char> > const ,void *>,_STL::_Select1st<_STL::pair<_STL::basic_string<char,_STL::char_traits<char>,_STL::allocator<char> > const ,void *> >,_STL::less<_STL::basic_string<char,_STL::char_traits<char>,_STL::allocator<char> > >,_STL::allocator<_STL::pair<_STL::basic_string<char,_STL::char_traits<char>,_STL::allocator<char> > const ,void *> > >::clear()
PUBLIC 239e0 0 _STL::_Rb_tree<_STL::basic_string<char,_STL::char_traits<char>,_STL::allocator<char> >,_STL::pair<_STL::basic_string<char,_STL::char_traits<char>,_STL::allocator<char> > const ,void *>,_STL::_Select1st<_STL::pair<_STL::basic_string<char,_STL::char_traits<char>,_STL::allocator<char> > const ,void *> >,_STL::less<_STL::basic_string<char,_STL::char_traits<char>,_STL::allocator<char> > >,_STL::allocator<_STL::pair<_STL::basic_string<char,_STL::char_traits<char>,_STL::allocator<char> > const ,void *> > >::lower_bound(_STL::basic_string<char,_STL::char_traits<char>,_STL::allocator<char> > const &)
PUBLIC 23a00 0 _STL::_Rb_tree<_STL::basic_string<char,_STL::char_traits<char>,_STL::allocator<char> >,_STL::pair<_STL::basic_string<char,_STL::char_traits<char>,_STL::allocator<char> > const ,void *>,_STL::_Select1st<_STL::pair<_STL::basic_string<char,_STL::char_traits<char>,_STL::allocator<char> > const ,void *> >,_STL::less<_STL::basic_string<char,_STL::char_traits<char>,_STL::allocator<char> > >,_STL::allocator<_STL::pair<_STL::basic_string<char,_STL::char_traits<char>,_STL::allocator<char> > const ,void *> > >::_M_insert(_STL::_Rb_tree_node_base *,_STL::_Rb_tree_node_base *,_STL::pair<_STL::basic_string<char,_STL::char_traits<char>,_STL::allocator<char> > const ,void *> const &,_STL::_Rb_tree_node_base *)
PUBLIC 23ab0 0 _STL::_Rb_tree<_STL::basic_string<char,_STL::char_traits<char>,_STL::allocator<char> >,_STL::pair<_STL::basic_string<char,_STL::char_traits<char>,_STL::allocator<char> > const ,void *>,_STL::_Select1st<_STL::pair<_STL::basic_string<char,_STL::char_traits<char>,_STL::allocator<char> > const ,void *> >,_STL::less<_STL::basic_string<char,_STL::char_traits<char>,_STL::allocator<char> > >,_STL::allocator<_STL::pair<_STL::basic_string<char,_STL::char_traits<char>,_STL::allocator<char> > const ,void *> > >::insert_unique(_STL::pair<_STL::basic_string<char,_STL::char_traits<char>,_STL::allocator<char> > const ,void *> const &)
PUBLIC 23bb0 0 _STL::_Rb_tree<_STL::basic_string<char,_STL::char_traits<char>,_STL::allocator<char> >,_STL::pair<_STL::basic_string<char,_STL::char_traits<char>,_STL::allocator<char> > const ,void *>,_STL::_Select1st<_STL::pair<_STL::basic_string<char,_STL::char_traits<char>,_STL::allocator<char> > const ,void *> >,_STL::less<_STL::basic_string<char,_STL::char_traits<char>,_STL::allocator<char> > >,_STL::allocator<_STL::pair<_STL::basic_string<char,_STL::char_traits<char>,_STL::allocator<char> > const ,void *> > >::~_Rb_tree<_STL::basic_string<char,_STL::char_traits<char>,_STL::allocator<char> >,_STL::pair<_STL::basic_string<char,_STL::char_traits<char>,_STL::allocator<char> > const ,void *>,_STL::_Select1st<_STL::pair<_STL::basic_string<char,_STL::char_traits<char>,_STL::allocator<char> > const ,void *> >,_STL::less<_STL::basic_string<char,_STL::char_traits<char>,_STL::allocator<char> > >,_STL::allocator<_STL::pair<_STL::basic_string<char,_STL::char_traits<char>,_STL::allocator<char> > const ,void *> > >()
PUBLIC 23c30 0 _STL::map<_STL::basic_string<char,_STL::char_traits<char>,_STL::allocator<char> >,void *,_STL::less<_STL::basic_string<char,_STL::char_traits<char>,_STL::allocator<char> > >,_STL::allocator<_STL::pair<_STL::basic_string<char,_STL::char_traits<char>,_STL::allocator<char> > const ,void *> > >::lower_bound(_STL::basic_string<char,_STL::char_traits<char>,_STL::allocator<char> > const &)
PUBLIC 23c50 0 _STL::_Rb_tree<_STL::basic_string<char,_STL::char_traits<char>,_STL::allocator<char> >,_STL::pair<_STL::basic_string<char,_STL::char_traits<char>,_STL::allocator<char> > const ,void *>,_STL::_Select1st<_STL::pair<_STL::basic_string<char,_STL::char_traits<char>,_STL::allocator<char> > const ,void *> >,_STL::less<_STL::basic_string<char,_STL::char_traits<char>,_STL::allocator<char> > >,_STL::allocator<_STL::pair<_STL::basic_string<char,_STL::char_traits<char>,_STL::allocator<char> > const ,void *> > >::insert_unique(_STL::_Rb_tree_iterator<_STL::pair<_STL::basic_string<char,_STL::char_traits<char>,_STL::allocator<char> > const ,void *>,_STL::_Nonconst_traits<_STL::pair<_STL::basic_string<char,_STL::char_traits<char>,_STL::allocator<char> > const ,void *> > >,_STL::pair<_STL::basic_string<char,_STL::char_traits<char>,_STL::allocator<char> > const ,void *> const &)
PUBLIC 23f10 0 _STL::map<_STL::basic_string<char,_STL::char_traits<char>,_STL::allocator<char> >,void *,_STL::less<_STL::basic_string<char,_STL::char_traits<char>,_STL::allocator<char> > >,_STL::allocator<_STL::pair<_STL::basic_string<char,_STL::char_traits<char>,_STL::allocator<char> > const ,void *> > >::~map<_STL::basic_string<char,_STL::char_traits<char>,_STL::allocator<char> >,void *,_STL::less<_STL::basic_string<char,_STL::char_traits<char>,_STL::allocator<char> > >,_STL::allocator<_STL::pair<_STL::basic_string<char,_STL::char_traits<char>,_STL::allocator<char> > const ,void *> > >()
PUBLIC 23f20 0 PythonScriptAlev::~PythonScriptAlev()
PUBLIC 23fb0 0 _STL::map<_STL::basic_string<char,_STL::char_traits<char>,_STL::allocator<char> >,void *,_STL::less<_STL::basic_string<char,_STL::char_traits<char>,_STL::allocator<char> > >,_STL::allocator<_STL::pair<_STL::basic_string<char,_STL::char_traits<char>,_STL::allocator<char> > const ,void *> > >::map<_STL::basic_string<char,_STL::char_traits<char>,_STL::allocator<char> >,void *,_STL::less<_STL::basic_string<char,_STL::char_traits<char>,_STL::allocator<char> > >,_STL::allocator<_STL::pair<_STL::basic_string<char,_STL::char_traits<char>,_STL::allocator<char> > const ,void *> > >()
PUBLIC 23ff0 0 _STL::map<_STL::basic_string<char,_STL::char_traits<char>,_STL::allocator<char> >,void *,_STL::less<_STL::basic_string<char,_STL::char_traits<char>,_STL::allocator<char> > >,_STL::allocator<_STL::pair<_STL::basic_string<char,_STL::char_traits<char>,_STL::allocator<char> > const ,void *> > >::insert(_STL::_Rb_tree_iterator<_STL::pair<_STL::basic_string<char,_STL::char_traits<char>,_STL::allocator<char> > const ,void *>,_STL::_Nonconst_traits<_STL::pair<_STL::basic_string<char,_STL::char_traits<char>,_STL::allocator<char> > const ,void *> > >,_STL::pair<_STL::basic_string<char,_STL::char_traits<char>,_STL::allocator<char> > const ,void *> const &)
PUBLIC 24010 0 PythonScriptAlev::PythonScriptAlev(_STL::basic_string<char,_STL::char_traits<char>,_STL::allocator<char> > const &,ControladorBase *)
PUBLIC 240a0 0 PythonScriptAlev::`scalar deleting destructor'(unsigned int)
PUBLIC 240c0 0 _STL::map<_STL::basic_string<char,_STL::char_traits<char>,_STL::allocator<char> >,void *,_STL::less<_STL::basic_string<char,_STL::char_traits<char>,_STL::allocator<char> > >,_STL::allocator<_STL::pair<_STL::basic_string<char,_STL::char_traits<char>,_STL::allocator<char> > const ,void *> > >::operator[](_STL::basic_string<char,_STL::char_traits<char>,_STL::allocator<char> > const &)
PUBLIC 24170 0 PythonScriptAlev::CompileALEVExpr(char *)
PUBLIC 24200 0 PythonScriptAlev::EvalALEVExpr(TEvent *,char *)
PUBLIC 244c0 0 PythonError::PythonError(char const *,char const *,char const *)
PUBLIC 244f0 0 PythonError::getClassName()
PUBLIC 24500 0 PythonError::`scalar deleting destructor'(unsigned int)
PUBLIC 24520 0 PythonError::~PythonError()
PUBLIC 24530 0 ACE_Atomic_Op<ACE_Recursive_Thread_Mutex,int>::~ACE_Atomic_Op<ACE_Recursive_Thread_Mutex,int>()
PUBLIC 24540 0 PythonWrapper::StartUp()
PUBLIC 24570 0 PythonWrapper::~PythonWrapper()
PUBLIC 245e0 0 ACE_Atomic_Op_Ex<ACE_Recursive_Thread_Mutex,int>::ACE_Atomic_Op_Ex<ACE_Recursive_Thread_Mutex,int>(ACE_Recursive_Thread_Mutex &)
PUBLIC 24600 0 PythonWrapper::`vector deleting destructor'(unsigned int)
PUBLIC 24620 0 ACE_Atomic_Op<ACE_Recursive_Thread_Mutex,int>::ACE_Atomic_Op<ACE_Recursive_Thread_Mutex,int>()
PUBLIC 24640 0 ACE_Atomic_Op_Ex<ACE_Recursive_Thread_Mutex,int>::operator=(int const &)
PUBLIC 246a0 0 ACE_Atomic_Op_Ex<ACE_Recursive_Thread_Mutex,int>::value()
PUBLIC 24710 0 PythonWrapper::close_singleton()
PUBLIC 247a0 0 PythonWrapper::PythonWrapper()
PUBLIC 24800 0 ACE_Atomic_Op<ACE_Recursive_Thread_Mutex,int>::operator=(int const &)
PUBLIC 24820 0 ACE_Atomic_Op<ACE_Recursive_Thread_Mutex,int>::value()
PUBLIC 24830 0 PythonWrapper::Instance()
PUBLIC 24940 0 Timer_Handler::`vector deleting destructor'(unsigned int)
PUBLIC 24960 0 PythonWrapper::TimeExpired(int)
PUBLIC 24a30 0 PythonWrapper::PyerrorHandler()
PUBLIC 24f60 0 PythonWrapper::Run_String(char const *,_object *,_object *)
PUBLIC 25000 0 PythonError::PythonError(PythonError const &)
PUBLIC 25020 0 PythonWrapper::CompileString(_STL::basic_string<char,_STL::char_traits<char>,_STL::allocator<char> > const &)
PUBLIC 250b0 0 PythonWrapper::FormatPythonError(_STL::basic_string<char,_STL::char_traits<char>,_STL::allocator<char> > &)
PUBLIC 25640 0 PythonWrapper::EvalCode(void const *,_object *,_object *)
PUBLIC 25710 0 PythonWrapper::SetVariable(_object *,_STL::basic_string<char,_STL::char_traits<char>,_STL::allocator<char> > const &,_object *)
PUBLIC 257c0 0 UserVar::UserVar(_STL::basic_string<char,_STL::char_traits<char>,_STL::allocator<char> > const &,_STL::basic_string<char,_STL::char_traits<char>,_STL::allocator<char> > const &,_STL::basic_string<char,_STL::char_traits<char>,_STL::allocator<char> > const &)
PUBLIC 258c0 0 UserVar::GetName()
PUBLIC 258e0 0 UserVar::GetType()
PUBLIC 25910 0 UserVar::GetStrValue()
PUBLIC 25940 0 UserVar::GetStdValue()
PUBLIC 25970 0 ScriptBase::SetScriptCreated(bool)
PUBLIC 25a00 0 ScriptBase::SetScriptCreatedNoLock(bool)
PUBLIC 25a90 0 ScriptBase::SetFirstEvent(bool)
PUBLIC 25b20 0 ScriptBase::SetFirstEventNoLock(bool)
PUBLIC 25bb0 0 ScriptBase::SetScriptFirstEvent(bool)
PUBLIC 25bc0 0 ScriptBase::SetCycleBegan(bool)
PUBLIC 25bd0 0 ScriptBase::DispatchEventVariables(TEvent *)
PUBLIC 25be0 0 ScriptBase::IsEnabled()
PUBLIC 25bf0 0 ScriptBase::IsCompiled()
PUBLIC 25c00 0 ScriptBase::IsInit()
PUBLIC 25c10 0 ScriptBase::SetEnabled(bool)
PUBLIC 25c50 0 ScriptBase::setHealthOnEachEvent(int)
PUBLIC 25cd0 0 ScriptBase::SetWizardScriptConditions(xercesc_2_7::DOMNode const *)
PUBLIC 26160 0 UserVar::~UserVar()
PUBLIC 261d0 0 ScriptBase::UpdateCommonFields(xercesc_2_7::DOMNode const *)
PUBLIC 262f0 0 ScriptBase::getExpression()
PUBLIC 26300 0 _STL::auto_ptr<ScriptDB>::auto_ptr<ScriptDB>(ScriptDB *)
PUBLIC 26310 0 _STL::auto_ptr<ScriptDB>::~auto_ptr<ScriptDB>()
PUBLIC 26320 0 _STL::vector<UserVar,_STL::allocator<UserVar> >::begin()
PUBLIC 26330 0 _STL::vector<UserVar,_STL::allocator<UserVar> >::end()
PUBLIC 26340 0 _STL::allocator<UserVar>::allocator<UserVar>()
PUBLIC 26350 0 _STL::allocator<UserVar>::~allocator<UserVar>()
PUBLIC 26360 0 _STL::allocator<_STL::pair<_STL::basic_string<char,_STL::char_traits<char>,_STL::allocator<char> >,_STL::basic_string<char,_STL::char_traits<char>,_STL::allocator<char> > > >::allocator<_STL::pair<_STL::basic_string<char,_STL::char_traits<char>,_STL::allocator<char> >,_STL::basic_string<char,_STL::char_traits<char>,_STL::allocator<char> > > >()
PUBLIC 26370 0 _STL::allocator<_STL::pair<_STL::basic_string<char,_STL::char_traits<char>,_STL::allocator<char> >,_STL::basic_string<char,_STL::char_traits<char>,_STL::allocator<char> > > >::~allocator<_STL::pair<_STL::basic_string<char,_STL::char_traits<char>,_STL::allocator<char> >,_STL::basic_string<char,_STL::char_traits<char>,_STL::allocator<char> > > >()
PUBLIC 26380 0 _STL::_List_iterator<_STL::pair<_STL::basic_string<char,_STL::char_traits<char>,_STL::allocator<char> >,_STL::basic_string<char,_STL::char_traits<char>,_STL::allocator<char> > >,_STL::_Nonconst_traits<_STL::pair<_STL::basic_string<char,_STL::char_traits<char>,_STL::allocator<char> >,_STL::basic_string<char,_STL::char_traits<char>,_STL::allocator<char> > > > >::operator++()
PUBLIC 26390 0 _STL::_List_iterator<_STL::pair<_STL::basic_string<char,_STL::char_traits<char>,_STL::allocator<char> >,_STL::basic_string<char,_STL::char_traits<char>,_STL::allocator<char> > >,_STL::_Nonconst_traits<_STL::pair<_STL::basic_string<char,_STL::char_traits<char>,_STL::allocator<char> >,_STL::basic_string<char,_STL::char_traits<char>,_STL::allocator<char> > > > >::_List_iterator<_STL::pair<_STL::basic_string<char,_STL::char_traits<char>,_STL::allocator<char> >,_STL::basic_string<char,_STL::char_traits<char>,_STL::allocator<char> > >,_STL::_Nonconst_traits<_STL::pair<_STL::basic_string<char,_STL::char_traits<char>,_STL::allocator<char> >,_STL::basic_string<char,_STL::char_traits<char>,_STL::allocator<char> > > > >(_STL::_List_node<_STL::pair<_STL::basic_string<char,_STL::char_traits<char>,_STL::allocator<char> >,_STL::basic_string<char,_STL::char_traits<char>,_STL::allocator<char> > > > *)
PUBLIC 263a0 0 _STL::_List_iterator<_STL::pair<_STL::basic_string<char,_STL::char_traits<char>,_STL::allocator<char> >,_STL::basic_string<char,_STL::char_traits<char>,_STL::allocator<char> > >,_STL::_Nonconst_traits<_STL::pair<_STL::basic_string<char,_STL::char_traits<char>,_STL::allocator<char> >,_STL::basic_string<char,_STL::char_traits<char>,_STL::allocator<char> > > > >::operator*()
PUBLIC 263b0 0 _STL::_STLP_alloc_proxy<UserVar *,UserVar,_STL::allocator<UserVar> >::~_STLP_alloc_proxy<UserVar *,UserVar,_STL::allocator<UserVar> >()
PUBLIC 263c0 0 _STL::vector<UserVar,_STL::allocator<UserVar> >::size()
PUBLIC 263e0 0 _STL::vector<UserVar,_STL::allocator<UserVar> >::_M_set(UserVar *,UserVar *,UserVar *)
PUBLIC 26400 0 _STL::allocator<UserVar>::allocate(unsigned int,void const *)
PUBLIC 26420 0 _STL::allocator<UserVar>::deallocate(UserVar *,unsigned int)
PUBLIC 26440 0 _STL::allocator<_STL::_List_node<_STL::pair<_STL::basic_string<char,_STL::char_traits<char>,_STL::allocator<char> >,_STL::basic_string<char,_STL::char_traits<char>,_STL::allocator<char> > > > >::~allocator<_STL::_List_node<_STL::pair<_STL::basic_string<char,_STL::char_traits<char>,_STL::allocator<char> >,_STL::basic_string<char,_STL::char_traits<char>,_STL::allocator<char> > > > >()
PUBLIC 26450 0 _STL::allocator<_STL::_List_node<_STL::pair<_STL::basic_string<char,_STL::char_traits<char>,_STL::allocator<char> >,_STL::basic_string<char,_STL::char_traits<char>,_STL::allocator<char> > > > >::allocate(unsigned int,void const *)
PUBLIC 26470 0 _STL::allocator<_STL::_List_node<_STL::pair<_STL::basic_string<char,_STL::char_traits<char>,_STL::allocator<char> >,_STL::basic_string<char,_STL::char_traits<char>,_STL::allocator<char> > > > >::deallocate(_STL::_List_node<_STL::pair<_STL::basic_string<char,_STL::char_traits<char>,_STL::allocator<char> >,_STL::basic_string<char,_STL::char_traits<char>,_STL::allocator<char> > > > *,unsigned int)
PUBLIC 26490 0 _STL::allocator<UserVar>::allocator<UserVar>(_STL::allocator<UserVar> const &)
PUBLIC 264a0 0 _STL::allocator<_STL::_List_node<_STL::pair<_STL::basic_string<char,_STL::char_traits<char>,_STL::allocator<char> >,_STL::basic_string<char,_STL::char_traits<char>,_STL::allocator<char> > > > >::allocator<_STL::_List_node<_STL::pair<_STL::basic_string<char,_STL::char_traits<char>,_STL::allocator<char> >,_STL::basic_string<char,_STL::char_traits<char>,_STL::allocator<char> > > > >(_STL::allocator<_STL::_List_node<_STL::pair<_STL::basic_string<char,_STL::char_traits<char>,_STL::allocator<char> >,_STL::basic_string<char,_STL::char_traits<char>,_STL::allocator<char> > > > > const &)
PUBLIC 264b0 0 _STL::allocator<_STL::_List_node<_STL::pair<_STL::basic_string<char,_STL::char_traits<char>,_STL::allocator<char> >,_STL::basic_string<char,_STL::char_traits<char>,_STL::allocator<char> > > > >::allocator<_STL::_List_node<_STL::pair<_STL::basic_string<char,_STL::char_traits<char>,_STL::allocator<char> >,_STL::basic_string<char,_STL::char_traits<char>,_STL::allocator<char> > > > ><_STL::pair<_STL::basic_string<char,_STL::char_traits<char>,_STL::allocator<char> >,_STL::basic_string<char,_STL::char_traits<char>,_STL::allocator<char> > > >(_STL::allocator<_STL::pair<_STL::basic_string<char,_STL::char_traits<char>,_STL::allocator<char> >,_STL::basic_string<char,_STL::char_traits<char>,_STL::allocator<char> > > > const &)
PUBLIC 264c0 0 UserVar::UserVar(UserVar const &)
PUBLIC 26540 0 ACE_Guard<ACE_Thread_Mutex>::ACE_Guard<ACE_Thread_Mutex>(ACE_Thread_Mutex *)
PUBLIC 26550 0 ACE_Read_Guard<ACE_Thread_Mutex>::acquire_read()
PUBLIC 26560 0 UserVar::operator=(UserVar const &)
PUBLIC 265b0 0 _STL::pair<_STL::basic_string<char,_STL::char_traits<char>,_STL::allocator<char> >,_STL::basic_string<char,_STL::char_traits<char>,_STL::allocator<char> > >::~pair<_STL::basic_string<char,_STL::char_traits<char>,_STL::allocator<char> >,_STL::basic_string<char,_STL::char_traits<char>,_STL::allocator<char> > >()
PUBLIC 26600 0 UserVar::`scalar deleting destructor'(unsigned int)
PUBLIC 26620 0 ScriptBase::AddUserVariablesToScript()
PUBLIC 26770 0 ScriptBase::Init()
PUBLIC 27010 0 ScriptBase::hasStgVisitor()
PUBLIC 27020 0 _STL::auto_ptr<ScriptDB>::reset(ScriptDB *)
PUBLIC 27040 0 _STL::list<_STL::pair<_STL::basic_string<char,_STL::char_traits<char>,_STL::allocator<char> >,_STL::basic_string<char,_STL::char_traits<char>,_STL::allocator<char> > >,_STL::allocator<_STL::pair<_STL::basic_string<char,_STL::char_traits<char>,_STL::allocator<char> >,_STL::basic_string<char,_STL::char_traits<char>,_STL::allocator<char> > > > >::begin()
PUBLIC 27050 0 _STL::list<_STL::pair<_STL::basic_string<char,_STL::char_traits<char>,_STL::allocator<char> >,_STL::basic_string<char,_STL::char_traits<char>,_STL::allocator<char> > >,_STL::allocator<_STL::pair<_STL::basic_string<char,_STL::char_traits<char>,_STL::allocator<char> >,_STL::basic_string<char,_STL::char_traits<char>,_STL::allocator<char> > > > >::end()
PUBLIC 27060 0 _STL::_List_iterator<_STL::pair<_STL::basic_string<char,_STL::char_traits<char>,_STL::allocator<char> >,_STL::basic_string<char,_STL::char_traits<char>,_STL::allocator<char> > >,_STL::_Nonconst_traits<_STL::pair<_STL::basic_string<char,_STL::char_traits<char>,_STL::allocator<char> >,_STL::basic_string<char,_STL::char_traits<char>,_STL::allocator<char> > > > >::operator->()
PUBLIC 27070 0 _STL::_Vector_base<UserVar,_STL::allocator<UserVar> >::~_Vector_base<UserVar,_STL::allocator<UserVar> >()
PUBLIC 270a0 0 _STL::_STLP_alloc_proxy<_STL::_List_node<_STL::pair<_STL::basic_string<char,_STL::char_traits<char>,_STL::allocator<char> >,_STL::basic_string<char,_STL::char_traits<char>,_STL::allocator<char> > > > *,_STL::_List_node<_STL::pair<_STL::basic_string<char,_STL::char_traits<char>,_STL::allocator<char> >,_STL::basic_string<char,_STL::char_traits<char>,_STL::allocator<char> > > >,_STL::allocator<_STL::_List_node<_STL::pair<_STL::basic_string<char,_STL::char_traits<char>,_STL::allocator<char> >,_STL::basic_string<char,_STL::char_traits<char>,_STL::allocator<char> > > > > >::~_STLP_alloc_proxy<_STL::_List_node<_STL::pair<_STL::basic_string<char,_STL::char_traits<char>,_STL::allocator<char> >,_STL::basic_string<char,_STL::char_traits<char>,_STL::allocator<char> > > > *,_STL::_List_node<_STL::pair<_STL::basic_string<char,_STL::char_traits<char>,_STL::allocator<char> >,_STL::basic_string<char,_STL::char_traits<char>,_STL::allocator<char> > > >,_STL::allocator<_STL::_List_node<_STL::pair<_STL::basic_string<char,_STL::char_traits<char>,_STL::allocator<char> >,_STL::basic_string<char,_STL::char_traits<char>,_STL::allocator<char> > > > > >()
PUBLIC 270b0 0 _STL::_STLP_alloc_proxy<UserVar *,UserVar,_STL::allocator<UserVar> >::_STLP_alloc_proxy<UserVar *,UserVar,_STL::allocator<UserVar> >(_STL::allocator<UserVar> const &,UserVar *)
PUBLIC 270c0 0 _STL::_STLP_alloc_proxy<_STL::_List_node<_STL::pair<_STL::basic_string<char,_STL::char_traits<char>,_STL::allocator<char> >,_STL::basic_string<char,_STL::char_traits<char>,_STL::allocator<char> > > > *,_STL::_List_node<_STL::pair<_STL::basic_string<char,_STL::char_traits<char>,_STL::allocator<char> >,_STL::basic_string<char,_STL::char_traits<char>,_STL::allocator<char> > > >,_STL::allocator<_STL::_List_node<_STL::pair<_STL::basic_string<char,_STL::char_traits<char>,_STL::allocator<char> >,_STL::basic_string<char,_STL::char_traits<char>,_STL::allocator<char> > > > > >::_STLP_alloc_proxy<_STL::_List_node<_STL::pair<_STL::basic_string<char,_STL::char_traits<char>,_STL::allocator<char> >,_STL::basic_string<char,_STL::char_traits<char>,_STL::allocator<char> > > > *,_STL::_List_node<_STL::pair<_STL::basic_string<char,_STL::char_traits<char>,_STL::allocator<char> >,_STL::basic_string<char,_STL::char_traits<char>,_STL::allocator<char> > > >,_STL::allocator<_STL::_List_node<_STL::pair<_STL::basic_string<char,_STL::char_traits<char>,_STL::allocator<char> >,_STL::basic_string<char,_STL::char_traits<char>,_STL::allocator<char> > > > > >(_STL::allocator<_STL::_List_node<_STL::pair<_STL::basic_string<char,_STL::char_traits<char>,_STL::allocator<char> >,_STL::basic_string<char,_STL::char_traits<char>,_STL::allocator<char> > > > > const &,_STL::_List_node<_STL::pair<_STL::basic_string<char,_STL::char_traits<char>,_STL::allocator<char> >,_STL::basic_string<char,_STL::char_traits<char>,_STL::allocator<char> > > > *)
PUBLIC 270d0 0 ACE_Read_Guard<ACE_Thread_Mutex>::ACE_Read_Guard<ACE_Thread_Mutex>(ACE_Thread_Mutex &)
PUBLIC 27120 0 _STL::_Construct<UserVar,UserVar>(UserVar *,UserVar const &)
PUBLIC 27170 0 _STL::__copy<UserVar *,UserVar *,int>(UserVar *,UserVar *,UserVar *,_STL::random_access_iterator_tag const &,int *)
PUBLIC 271f0 0 _STL::pair<_STL::basic_string<char,_STL::char_traits<char>,_STL::allocator<char> >,_STL::basic_string<char,_STL::char_traits<char>,_STL::allocator<char> > >::`scalar deleting destructor'(unsigned int)
PUBLIC 27210 0 _STL::_Destroy<UserVar>(UserVar *)
PUBLIC 27220 0 ACE_Read_Guard<ACE_Thread_Mutex>::~ACE_Read_Guard<ACE_Thread_Mutex>()
PUBLIC 27240 0 ScriptBase::getStgVisitor()
PUBLIC 27330 0 ScriptDB::`vector deleting destructor'(unsigned int)
PUBLIC 27350 0 ScriptBase::calculateSummaryValuesForAllVars(int,_STL::basic_string<char,_STL::char_traits<char>,_STL::allocator<char> > const &,_STL::basic_string<char,_STL::char_traits<char>,_STL::allocator<char> > const &)
PUBLIC 27380 0 _STL::_Vector_base<UserVar,_STL::allocator<UserVar> >::_Vector_base<UserVar,_STL::allocator<UserVar> >(_STL::allocator<UserVar> const &)
PUBLIC 273b0 0 _STL::_List_base<_STL::pair<_STL::basic_string<char,_STL::char_traits<char>,_STL::allocator<char> >,_STL::basic_string<char,_STL::char_traits<char>,_STL::allocator<char> > >,_STL::allocator<_STL::pair<_STL::basic_string<char,_STL::char_traits<char>,_STL::allocator<char> >,_STL::basic_string<char,_STL::char_traits<char>,_STL::allocator<char> > > > >::_List_base<_STL::pair<_STL::basic_string<char,_STL::char_traits<char>,_STL::allocator<char> >,_STL::basic_string<char,_STL::char_traits<char>,_STL::allocator<char> > >,_STL::allocator<_STL::pair<_STL::basic_string<char,_STL::char_traits<char>,_STL::allocator<char> >,_STL::basic_string<char,_STL::char_traits<char>,_STL::allocator<char> > > > >(_STL::allocator<_STL::pair<_STL::basic_string<char,_STL::char_traits<char>,_STL::allocator<char> >,_STL::basic_string<char,_STL::char_traits<char>,_STL::allocator<char> > > > const &)
PUBLIC 273e0 0 _STL::__copy_ptrs<UserVar *,UserVar *>(UserVar *,UserVar *,UserVar *,_STL::__false_type const &)
PUBLIC 27400 0 _STL::_Destroy<_STL::pair<_STL::basic_string<char,_STL::char_traits<char>,_STL::allocator<char> >,_STL::basic_string<char,_STL::char_traits<char>,_STL::allocator<char> > > >(_STL::pair<_STL::basic_string<char,_STL::char_traits<char>,_STL::allocator<char> >,_STL::basic_string<char,_STL::char_traits<char>,_STL::allocator<char> > > *)
PUBLIC 27410 0 _STL::__destroy_aux<UserVar *>(UserVar *,UserVar *,_STL::__false_type const &)
PUBLIC 27440 0 ScriptBase::SetStorageSettings(xercesc_2_7::DOMNode const *)
PUBLIC 27800 0 _STL::vector<UserVar,_STL::allocator<UserVar> >::vector<UserVar,_STL::allocator<UserVar> >(_STL::allocator<UserVar> const &)
PUBLIC 27810 0 _STL::_List_base<_STL::pair<_STL::basic_string<char,_STL::char_traits<char>,_STL::allocator<char> >,_STL::basic_string<char,_STL::char_traits<char>,_STL::allocator<char> > >,_STL::allocator<_STL::pair<_STL::basic_string<char,_STL::char_traits<char>,_STL::allocator<char> >,_STL::basic_string<char,_STL::char_traits<char>,_STL::allocator<char> > > > >::clear()
PUBLIC 27850 0 _STL::__destroy<UserVar *,UserVar>(UserVar *,UserVar *,UserVar *)
PUBLIC 27880 0 _STL::_List_base<_STL::pair<_STL::basic_string<char,_STL::char_traits<char>,_STL::allocator<char> >,_STL::basic_string<char,_STL::char_traits<char>,_STL::allocator<char> > >,_STL::allocator<_STL::pair<_STL::basic_string<char,_STL::char_traits<char>,_STL::allocator<char> >,_STL::basic_string<char,_STL::char_traits<char>,_STL::allocator<char> > > > >::~_List_base<_STL::pair<_STL::basic_string<char,_STL::char_traits<char>,_STL::allocator<char> >,_STL::basic_string<char,_STL::char_traits<char>,_STL::allocator<char> > >,_STL::allocator<_STL::pair<_STL::basic_string<char,_STL::char_traits<char>,_STL::allocator<char> >,_STL::basic_string<char,_STL::char_traits<char>,_STL::allocator<char> > > > >()
PUBLIC 278a0 0 _STL::_Destroy<UserVar *>(UserVar *,UserVar *)
PUBLIC 278d0 0 _STL::__uninitialized_copy<UserVar *,UserVar *>(UserVar *,UserVar *,UserVar *,_STL::__false_type const &)
PUBLIC 27950 0 _STL::__uninitialized_fill_n<UserVar *,unsigned int,UserVar>(UserVar *,unsigned int,UserVar const &,_STL::__false_type const &)
PUBLIC 279d0 0 _STL::vector<UserVar,_STL::allocator<UserVar> >::~vector<UserVar,_STL::allocator<UserVar> >()
PUBLIC 27a60 0 _STL::list<_STL::pair<_STL::basic_string<char,_STL::char_traits<char>,_STL::allocator<char> >,_STL::basic_string<char,_STL::char_traits<char>,_STL::allocator<char> > >,_STL::allocator<_STL::pair<_STL::basic_string<char,_STL::char_traits<char>,_STL::allocator<char> >,_STL::basic_string<char,_STL::char_traits<char>,_STL::allocator<char> > > > >::list<_STL::pair<_STL::basic_string<char,_STL::char_traits<char>,_STL::allocator<char> >,_STL::basic_string<char,_STL::char_traits<char>,_STL::allocator<char> > >,_STL::allocator<_STL::pair<_STL::basic_string<char,_STL::char_traits<char>,_STL::allocator<char> >,_STL::basic_string<char,_STL::char_traits<char>,_STL::allocator<char> > > > >(_STL::allocator<_STL::pair<_STL::basic_string<char,_STL::char_traits<char>,_STL::allocator<char> >,_STL::basic_string<char,_STL::char_traits<char>,_STL::allocator<char> > > > const &)
PUBLIC 27a90 0 _STL::list<_STL::pair<_STL::basic_string<char,_STL::char_traits<char>,_STL::allocator<char> >,_STL::basic_string<char,_STL::char_traits<char>,_STL::allocator<char> > >,_STL::allocator<_STL::pair<_STL::basic_string<char,_STL::char_traits<char>,_STL::allocator<char> >,_STL::basic_string<char,_STL::char_traits<char>,_STL::allocator<char> > > > >::~list<_STL::pair<_STL::basic_string<char,_STL::char_traits<char>,_STL::allocator<char> >,_STL::basic_string<char,_STL::char_traits<char>,_STL::allocator<char> > >,_STL::allocator<_STL::pair<_STL::basic_string<char,_STL::char_traits<char>,_STL::allocator<char> >,_STL::basic_string<char,_STL::char_traits<char>,_STL::allocator<char> > > > >()
PUBLIC 27ab0 0 _STL::vector<UserVar,_STL::allocator<UserVar> >::erase(UserVar *,UserVar *)
PUBLIC 27b00 0 _STL::vector<UserVar,_STL::allocator<UserVar> >::_M_clear()
PUBLIC 27b50 0 ScriptBase::ScriptBase(_STL::basic_string<char,_STL::char_traits<char>,_STL::allocator<char> > const &,ControladorBase *)
PUBLIC 27c30 0 ScriptBase::~ScriptBase()
PUBLIC 27d10 0 _STL::vector<UserVar,_STL::allocator<UserVar> >::clear()
PUBLIC 27d20 0 _STL::vector<UserVar,_STL::allocator<UserVar> >::_M_insert_overflow(UserVar *,UserVar const &,_STL::__false_type const &,unsigned int,bool)
PUBLIC 27e70 0 ScriptBase::`scalar deleting destructor'(unsigned int)
PUBLIC 27e90 0 _STL::vector<UserVar,_STL::allocator<UserVar> >::push_back(UserVar const &)
PUBLIC 27ed0 0 ScriptBase::SetTemplate(_STL::basic_string<char,_STL::char_traits<char>,_STL::allocator<char> > const &,_STL::basic_string<char,_STL::char_traits<char>,_STL::allocator<char> > &,bool)
PUBLIC 281a0 0 ScriptBase::SetUserVariables(xercesc_2_7::DOMNode const *)
PUBLIC 28550 0 ScriptBase::SetTemplates(xercesc_2_7::DOMNode const *)
PUBLIC 28780 0 ScriptBase::ScriptStorageEventCall()
PUBLIC 28a00 0 ScriptBase::SetContextInfoTemplates()
PUBLIC 28af0 0 ScriptBase::CreateExpression(xercesc_2_7::DOMNode const *)
PUBLIC 29030 0 ScriptBase::InitVariablesScript(xercesc_2_7::DOMNode const *,TSetObjectHealth)
PUBLIC 290c0 0 ScriptBase::UpdateConfig(xercesc_2_7::DOMNode const *)
PUBLIC 291c0 0 SetControllerHealth(void *,int,char *,void *,char *,bool)
PUBLIC 29270 0 NeedToProcessHealthMonitor(void *,int)
PUBLIC 29290 0 SetTempControllerHealth(void *,int,char *,void *,char *,bool)
PUBLIC 29340 0 Log(void *,int,char *,char *,bool)
PUBLIC 293f0 0 SendMonMessage(void *,int,char *,void *,char *,bool,bool)
PUBLIC 294b0 0 Eval_ALEV_Expression(long,long,char *)
PUBLIC 294f0 0 L2_GetMonitorHealth(char *)
PUBLIC 29570 0 L2_GetMonitorStatus(char *)
PUBLIC 295f0 0 L2_GetMonitorSTGStatus(char *)
PUBLIC 29670 0 L2_GetMonitorStatusDescription(char *)
PUBLIC 296f0 0 L2_GetMonitorSTGStatusDescription(char *)
PUBLIC 29780 0 L2_MonitorRunNow(char *)
PUBLIC 29820 0 StoreValues(int,void *,char *,char *)
PUBLIC 299f0 0 StoreCustomValues(char *,char *,char *,char *,char *,int,void *)
PUBLIC 29ce0 0 StoreSummaryCustomValues(int,char *,char *,char *,char *,char *,double,double,double,double,double,unsigned long,int,void *)
PUBLIC 29ff0 0 DefineStoreCustomVariable(char *,int,char *,char *,int,int,void *)
PUBLIC 2a290 0 pyCallBackCalculateSummaryValue(int,char *,char *,char *,char *,char *,int,void *)
PUBLIC 2a640 0 ScriptManagerError::ScriptManagerError(char const *,char const *,char const *)
PUBLIC 2a670 0 ScriptManagerError::getClassName()
PUBLIC 2a680 0 ScriptManagerError::`scalar deleting destructor'(unsigned int)
PUBLIC 2a6a0 0 ScriptManagerError::~ScriptManagerError()
PUBLIC 2a6b0 0 ScriptManager::ScriptManager()
PUBLIC 2a6c0 0 ScriptManager::~ScriptManager()
PUBLIC 2a6d0 0 ScriptManager::CreateNewScript(xercesc_2_7::DOMNode const *,KeyDataAttributesXML const &,ControladorBase *,char *,int)
PUBLIC 2a9f0 0 ScriptManager::GetScriptGenerateIfErrorAndIsEnabled(xercesc_2_7::DOMNode const *)
PUBLIC 2ab00 0 ScriptManager::ParseScriptFromXML(xercesc_2_7::DOMNode const *,ControladorBase *)
PUBLIC 2adb0 0 ScriptManagerError::ScriptManagerError(ScriptManagerError const &)
PUBLIC 2add0 0 ScriptManager::`scalar deleting destructor'(unsigned int)
PUBLIC 2adf0 0 ScriptManager::PreParseScriptListFromXML(xercesc_2_7::DOMNode const *,bool *)
PUBLIC 2aee0 0 ScriptManager::ParseScriptListFromXML(xercesc_2_7::DOMNode const *,ControladorBase *)
PUBLIC 2b170 0 CloneDataSourceInfo(TDataSourceInfo *)
PUBLIC 2b1f0 0 CloneMonitorClassInfo(TMonitorClassInfo *)
PUBLIC 2b350 0 CloneMonitorInfo(TMonitorInfo *)
PUBLIC 2b490 0 FreePropertiesList(TMonitorPropertyInfo *)
PUBLIC 2b4d0 0 FreeMonitorClassList(TMonitorClassInfo *)
PUBLIC 2b580 0 FreeControllerList(TMonitorInfo *,bool)
PUBLIC 2b620 0 FreeDataSourcesList(TDataSourceInfo *)
PUBLIC 2b670 0 CloneConfigEnvironment(TConfigEnvironment *,TConfigEnvironment *)
PUBLIC 2b7b0 0 TAKeyInfo::getTAName()
PUBLIC 2b7d0 0 _STL::vector<_STL::basic_string<char,_STL::char_traits<char>,_STL::allocator<char> >,_STL::allocator<_STL::basic_string<char,_STL::char_traits<char>,_STL::allocator<char> > > >::begin()
PUBLIC 2b7e0 0 _STL::vector<_STL::basic_string<char,_STL::char_traits<char>,_STL::allocator<char> >,_STL::allocator<_STL::basic_string<char,_STL::char_traits<char>,_STL::allocator<char> > > >::end()
PUBLIC 2b7f0 0 _STL::vector<_STL::basic_string<char,_STL::char_traits<char>,_STL::allocator<char> >,_STL::allocator<_STL::basic_string<char,_STL::char_traits<char>,_STL::allocator<char> > > >::size()
PUBLIC 2b810 0 _STL::allocator<_STL::basic_string<char,_STL::char_traits<char>,_STL::allocator<char> > >::allocator<_STL::basic_string<char,_STL::char_traits<char>,_STL::allocator<char> > >()
PUBLIC 2b820 0 _STL::allocator<_STL::basic_string<char,_STL::char_traits<char>,_STL::allocator<char> > >::~allocator<_STL::basic_string<char,_STL::char_traits<char>,_STL::allocator<char> > >()
PUBLIC 2b830 0 _STL::vector<_STL::basic_string<char,_STL::char_traits<char>,_STL::allocator<char> >,_STL::allocator<_STL::basic_string<char,_STL::char_traits<char>,_STL::allocator<char> > > >::begin()
PUBLIC 2b840 0 _STL::_STLP_alloc_proxy<_STL::basic_string<char,_STL::char_traits<char>,_STL::allocator<char> > *,_STL::basic_string<char,_STL::char_traits<char>,_STL::allocator<char> >,_STL::allocator<_STL::basic_string<char,_STL::char_traits<char>,_STL::allocator<char> > > >::~_STLP_alloc_proxy<_STL::basic_string<char,_STL::char_traits<char>,_STL::allocator<char> > *,_STL::basic_string<char,_STL::char_traits<char>,_STL::allocator<char> >,_STL::allocator<_STL::basic_string<char,_STL::char_traits<char>,_STL::allocator<char> > > >()
PUBLIC 2b850 0 _STL::vector<_STL::basic_string<char,_STL::char_traits<char>,_STL::allocator<char> >,_STL::allocator<_STL::basic_string<char,_STL::char_traits<char>,_STL::allocator<char> > > >::_M_set(_STL::basic_string<char,_STL::char_traits<char>,_STL::allocator<char> > *,_STL::basic_string<char,_STL::char_traits<char>,_STL::allocator<char> > *,_STL::basic_string<char,_STL::char_traits<char>,_STL::allocator<char> > *)
PUBLIC 2b870 0 _STL::allocator<_STL::basic_string<char,_STL::char_traits<char>,_STL::allocator<char> > >::allocate(unsigned int,void const *)
PUBLIC 2b890 0 _STL::allocator<_STL::basic_string<char,_STL::char_traits<char>,_STL::allocator<char> > >::deallocate(_STL::basic_string<char,_STL::char_traits<char>,_STL::allocator<char> > *,unsigned int)
PUBLIC 2b8b0 0 _STL::allocator<_STL::basic_string<char,_STL::char_traits<char>,_STL::allocator<char> > >::allocator<_STL::basic_string<char,_STL::char_traits<char>,_STL::allocator<char> > >(_STL::allocator<_STL::basic_string<char,_STL::char_traits<char>,_STL::allocator<char> > > const &)
PUBLIC 2b8c0 0 _STL::_Construct<_STL::basic_string<char,_STL::char_traits<char>,_STL::allocator<char> >,_STL::basic_string<char,_STL::char_traits<char>,_STL::allocator<char> > >(_STL::basic_string<char,_STL::char_traits<char>,_STL::allocator<char> > *,_STL::basic_string<char,_STL::char_traits<char>,_STL::allocator<char> > const &)
PUBLIC 2b910 0 _STL::basic_string<char,_STL::char_traits<char>,_STL::allocator<char> >::`scalar deleting destructor'(unsigned int)
PUBLIC 2b930 0 TAKeyInfo::getNumberOfKeyGroupName()
PUBLIC 2b950 0 TAKeyInfo::isInKeyGroup(_STL::basic_string<char,_STL::char_traits<char>,_STL::allocator<char> > const &)
PUBLIC 2b990 0 _STL::vector<_STL::basic_string<char,_STL::char_traits<char>,_STL::allocator<char> >,_STL::allocator<_STL::basic_string<char,_STL::char_traits<char>,_STL::allocator<char> > > >::operator[](unsigned int)
PUBLIC 2b9a0 0 _STL::_Vector_base<_STL::basic_string<char,_STL::char_traits<char>,_STL::allocator<char> >,_STL::allocator<_STL::basic_string<char,_STL::char_traits<char>,_STL::allocator<char> > > >::~_Vector_base<_STL::basic_string<char,_STL::char_traits<char>,_STL::allocator<char> >,_STL::allocator<_STL::basic_string<char,_STL::char_traits<char>,_STL::allocator<char> > > >()
PUBLIC 2b9d0 0 _STL::_STLP_alloc_proxy<_STL::basic_string<char,_STL::char_traits<char>,_STL::allocator<char> > *,_STL::basic_string<char,_STL::char_traits<char>,_STL::allocator<char> >,_STL::allocator<_STL::basic_string<char,_STL::char_traits<char>,_STL::allocator<char> > > >::_STLP_alloc_proxy<_STL::basic_string<char,_STL::char_traits<char>,_STL::allocator<char> > *,_STL::basic_string<char,_STL::char_traits<char>,_STL::allocator<char> >,_STL::allocator<_STL::basic_string<char,_STL::char_traits<char>,_STL::allocator<char> > > >(_STL::allocator<_STL::basic_string<char,_STL::char_traits<char>,_STL::allocator<char> > > const &,_STL::basic_string<char,_STL::char_traits<char>,_STL::allocator<char> > *)
PUBLIC 2b9e0 0 _STL::_Destroy<_STL::basic_string<char,_STL::char_traits<char>,_STL::allocator<char> > >(_STL::basic_string<char,_STL::char_traits<char>,_STL::allocator<char> > *)
PUBLIC 2b9f0 0 TAKeyInfo::getKeyGroupName(int)
PUBLIC 2ba90 0 _STL::_Vector_base<_STL::basic_string<char,_STL::char_traits<char>,_STL::allocator<char> >,_STL::allocator<_STL::basic_string<char,_STL::char_traits<char>,_STL::allocator<char> > > >::_Vector_base<_STL::basic_string<char,_STL::char_traits<char>,_STL::allocator<char> >,_STL::allocator<_STL::basic_string<char,_STL::char_traits<char>,_STL::allocator<char> > > >(_STL::allocator<_STL::basic_string<char,_STL::char_traits<char>,_STL::allocator<char> > > const &)
PUBLIC 2bac0 0 _STL::__destroy_aux<_STL::basic_string<char,_STL::char_traits<char>,_STL::allocator<char> > *>(_STL::basic_string<char,_STL::char_traits<char>,_STL::allocator<char> > *,_STL::basic_string<char,_STL::char_traits<char>,_STL::allocator<char> > *,_STL::__false_type const &)
PUBLIC 2baf0 0 _STL::vector<_STL::basic_string<char,_STL::char_traits<char>,_STL::allocator<char> >,_STL::allocator<_STL::basic_string<char,_STL::char_traits<char>,_STL::allocator<char> > > >::vector<_STL::basic_string<char,_STL::char_traits<char>,_STL::allocator<char> >,_STL::allocator<_STL::basic_string<char,_STL::char_traits<char>,_STL::allocator<char> > > >(_STL::allocator<_STL::basic_string<char,_STL::char_traits<char>,_STL::allocator<char> > > const &)
PUBLIC 2bb00 0 _STL::__destroy<_STL::basic_string<char,_STL::char_traits<char>,_STL::allocator<char> > *,_STL::basic_string<char,_STL::char_traits<char>,_STL::allocator<char> > >(_STL::basic_string<char,_STL::char_traits<char>,_STL::allocator<char> > *,_STL::basic_string<char,_STL::char_traits<char>,_STL::allocator<char> > *,_STL::basic_string<char,_STL::char_traits<char>,_STL::allocator<char> > *)
PUBLIC 2bb30 0 _STL::_Destroy<_STL::basic_string<char,_STL::char_traits<char>,_STL::allocator<char> > *>(_STL::basic_string<char,_STL::char_traits<char>,_STL::allocator<char> > *,_STL::basic_string<char,_STL::char_traits<char>,_STL::allocator<char> > *)
PUBLIC 2bb60 0 _STL::__uninitialized_copy<_STL::basic_string<char,_STL::char_traits<char>,_STL::allocator<char> > *,_STL::basic_string<char,_STL::char_traits<char>,_STL::allocator<char> > *>(_STL::basic_string<char,_STL::char_traits<char>,_STL::allocator<char> > *,_STL::basic_string<char,_STL::char_traits<char>,_STL::allocator<char> > *,_STL::basic_string<char,_STL::char_traits<char>,_STL::allocator<char> > *,_STL::__false_type const &)
PUBLIC 2bbe0 0 _STL::__uninitialized_fill_n<_STL::basic_string<char,_STL::char_traits<char>,_STL::allocator<char> > *,unsigned int,_STL::basic_string<char,_STL::char_traits<char>,_STL::allocator<char> > >(_STL::basic_string<char,_STL::char_traits<char>,_STL::allocator<char> > *,unsigned int,_STL::basic_string<char,_STL::char_traits<char>,_STL::allocator<char> > const &,_STL::__false_type const &)
PUBLIC 2bc60 0 _STL::vector<_STL::basic_string<char,_STL::char_traits<char>,_STL::allocator<char> >,_STL::allocator<_STL::basic_string<char,_STL::char_traits<char>,_STL::allocator<char> > > >::~vector<_STL::basic_string<char,_STL::char_traits<char>,_STL::allocator<char> >,_STL::allocator<_STL::basic_string<char,_STL::char_traits<char>,_STL::allocator<char> > > >()
PUBLIC 2bcf0 0 _STL::vector<_STL::basic_string<char,_STL::char_traits<char>,_STL::allocator<char> >,_STL::allocator<_STL::basic_string<char,_STL::char_traits<char>,_STL::allocator<char> > > >::_M_clear()
PUBLIC 2bd40 0 TAKeyInfo::TAKeyInfo(_STL::basic_string<char,_STL::char_traits<char>,_STL::allocator<char> > const &)
PUBLIC 2bd60 0 TAKeyInfo::~TAKeyInfo()
PUBLIC 2bdb0 0 _STL::vector<_STL::basic_string<char,_STL::char_traits<char>,_STL::allocator<char> >,_STL::allocator<_STL::basic_string<char,_STL::char_traits<char>,_STL::allocator<char> > > >::_M_insert_overflow(_STL::basic_string<char,_STL::char_traits<char>,_STL::allocator<char> > *,_STL::basic_string<char,_STL::char_traits<char>,_STL::allocator<char> > const &,_STL::__false_type const &,unsigned int,bool)
PUBLIC 2bf00 0 _STL::vector<_STL::basic_string<char,_STL::char_traits<char>,_STL::allocator<char> >,_STL::allocator<_STL::basic_string<char,_STL::char_traits<char>,_STL::allocator<char> > > >::push_back(_STL::basic_string<char,_STL::char_traits<char>,_STL::allocator<char> > const &)
PUBLIC 2bf40 0 TAKeyInfo::addKeyGroup(_STL::basic_string<char,_STL::char_traits<char>,_STL::allocator<char> > const &)
PUBLIC 2bf80 0 initTEventMessageController(TEventMessageController *)
PUBLIC 2bfb0 0 initTEventEnvironment(TEventEnvironment *)
PUBLIC 2bfe0 0 initTMonitorActivityEvent(TMonitorActivityEvent *)
PUBLIC 2c010 0 initTMonitorStatusEvent(TMonitorStatusEvent *)
PUBLIC 2c040 0 initTMonitorSTGStatusEvent(TMonitorSTGStatusEvent *)
PUBLIC 2c070 0 initTMonitorStateEvent(TMonitorStateEvent *)
PUBLIC 2c0a0 0 initTDataSourceActivityEvent(TDataSourceActivityEvent *)
PUBLIC 2c0d0 0 initTStorageEvent(TStorageEvent *)
PUBLIC 2c0f9 0 CryptoPP::CombinedNameValuePairs::GetVoidValue(char const *,type_info const &,void *)
PUBLIC 2c150 0 CryptoPP::AlgorithmParametersBase::GetVoidValue(char const *,type_info const &,void *)
PUBLIC 2c1e8 0 CryptoPP::Name::IV()
PUBLIC 2c1ee 0 CryptoPP::Name::Rounds()
PUBLIC 2c1f4 0 CryptoPP::Clonable::Clonable()
PUBLIC 2c1f7 0 CryptoPP::BlockTransformation::ProcessAndXorMultipleBlocks(unsigned char const *,unsigned char const *,unsigned char *,unsigned int)
PUBLIC 2c236 0 CryptoPP::RandomNumberGenerator::GenerateBlock(unsigned char *,unsigned int)
PUBLIC 2c25a 0 CryptoPP::RandomNumberGenerator::DiscardBytes(unsigned int)
PUBLIC 2c275 0 CryptoPP::BufferedTransformation::GetMaxWaitObjectCount()
PUBLIC 2c28e 0 CryptoPP::BufferedTransformation::GetWaitObjects(CryptoPP::WaitObjectContainer &,CryptoPP::CallStack const &)
PUBLIC 2c2a8 0 CryptoPP::BufferedTransformation::Initialize(CryptoPP::NameValuePairs const &,int)
PUBLIC 2c2b4 0 CryptoPP::BufferedTransformation::Flush(bool,int,bool)
PUBLIC 2c2c4 0 CryptoPP::BufferedTransformation::MessageSeriesEnd(int,bool)
PUBLIC 2c2d0 0 CryptoPP::BufferedTransformation::ChannelPutModifiable2(_STL::basic_string<char,_STL::char_traits<char>,_STL::allocator<char> > const &,unsigned char *,unsigned int,int,bool)
PUBLIC 2c2fd 0 CryptoPP::BufferedTransformation::AnyRetrievable()
PUBLIC 2c333 0 CryptoPP::BufferedTransformation::Get(unsigned char &)
PUBLIC 2c361 0 CryptoPP::NotImplemented::NotImplemented(_STL::basic_string<char,_STL::char_traits<char>,_STL::allocator<char> > const &)
PUBLIC 2c37b 0 CryptoPP::BufferedTransformation::Peek(unsigned char &)
PUBLIC 2c3a9 0 CryptoPP::BufferedTransformation::TotalBytesRetrievable()
PUBLIC 2c3ce 0 CryptoPP::BufferedTransformation::AnyMessages()
PUBLIC 2c3fa 0 CryptoPP::BufferedTransformation::GetNextMessage()
PUBLIC 2c41f 0 CryptoPP::DecodingResult::DecodingResult()
PUBLIC 2c429 0 CryptoPP::BufferedTransformation::CopyMessagesTo(CryptoPP::BufferedTransformation &,unsigned int,_STL::basic_string<char,_STL::char_traits<char>,_STL::allocator<char> > const &)
PUBLIC 2c44c 0 CryptoPP::BufferedTransformation::SkipAll()
PUBLIC 2c48b 0 CryptoPP::BufferedTransformation::CopyAllTo(CryptoPP::BufferedTransformation &,_STL::basic_string<char,_STL::char_traits<char>,_STL::allocator<char> > const &)
PUBLIC 2c4c3 0 CryptoPP::BufferedTransformation::SetRetrievalChannel(_STL::basic_string<char,_STL::char_traits<char>,_STL::allocator<char> > const &)
PUBLIC 2c4eb 0 CryptoPP::BufferedTransformation::PeekWord16(unsigned short &,CryptoPP::ByteOrder)
PUBLIC 2c525 0 CryptoPP::BufferedTransformation::PeekWord32(unsigned int &,CryptoPP::ByteOrder)
PUBLIC 2c58b 0 CryptoPP::BufferedTransformation::GetWord16(unsigned short &,CryptoPP::ByteOrder)
PUBLIC 2c5ab 0 CryptoPP::BufferedTransformation::GetWord32(unsigned int &,CryptoPP::ByteOrder)
PUBLIC 2c5cb 0 CryptoPP::BufferedTransformation::Attach(CryptoPP::BufferedTransformation *)
PUBLIC 2c619 0 CryptoPP::SimpleKeyingInterface::IsResynchronizable()
PUBLIC 2c629 0 CryptoPP::SimpleKeyAgreementDomain::GenerateKeyPair(CryptoPP::RandomNumberGenerator &,unsigned char *,unsigned char *)
PUBLIC 2c64f 0 CryptoPP::BufferedTransformation::TransferTo(CryptoPP::BufferedTransformation &,unsigned __int64,_STL::basic_string<char,_STL::char_traits<char>,_STL::allocator<char> > const &)
PUBLIC 2c66d 0 CryptoPP::AuthenticatedKeyAgreementDomain::GenerateStaticKeyPair(CryptoPP::RandomNumberGenerator &,unsigned char *,unsigned char *)
PUBLIC 2c693 0 CryptoPP::AuthenticatedKeyAgreementDomain::GenerateEphemeralKeyPair(CryptoPP::RandomNumberGenerator &,unsigned char *,unsigned char *)
PUBLIC 2c6b9 0 CryptoPP::BufferedTransformation::CopyRangeTo(CryptoPP::BufferedTransformation &,unsigned __int64,unsigned __int64,_STL::basic_string<char,_STL::char_traits<char>,_STL::allocator<char> > const &)
PUBLIC 2c6fe 0 CryptoPP::BufferedTransformation::NoChannelSupport::NoChannelSupport()
PUBLIC 2c76b 0 CryptoPP::BufferedTransformation::ChannelPut(_STL::basic_string<char,_STL::char_traits<char>,_STL::allocator<char> > const &,unsigned char const *,unsigned int,bool)
PUBLIC 2c788 0 CryptoPP::SecBlock<unsigned char,CryptoPP::AllocatorWithCleanup<unsigned char> >::operator void *()
PUBLIC 2c78c 0 CryptoPP::SecBlock<unsigned char,CryptoPP::AllocatorWithCleanup<unsigned char> >::operator unsigned char *()
PUBLIC 2c790 0 CryptoPP::BufferedTransformation::ChannelMessageEnd(_STL::basic_string<char,_STL::char_traits<char>,_STL::allocator<char> > const &,int,bool)
PUBLIC 2c7bc 0 _STL::auto_ptr<CryptoPP::PK_MessageAccumulator>::auto_ptr<CryptoPP::PK_MessageAccumulator>(CryptoPP::PK_MessageAccumulator *)
PUBLIC 2c7c7 0 _STL::auto_ptr<CryptoPP::PK_MessageAccumulator>::get()
PUBLIC 2c7ca 0 CryptoPP::rotlFixed<unsigned int>(unsigned int,unsigned int)
PUBLIC 2c7d9 0 CryptoPP::rotrFixed<unsigned int>(unsigned int,unsigned int)
PUBLIC 2c7e8 0 CryptoPP::ByteReverse(unsigned int)
PUBLIC 2c802 0 _STL::operator+<char,_STL::char_traits<char>,_STL::allocator<char> >(char,_STL::basic_string<char,_STL::char_traits<char>,_STL::allocator<char> > const &)
PUBLIC 2c892 0 CryptoPP::UnalignedPutWord(CryptoPP::ByteOrder,unsigned char *,unsigned short,unsigned char const *)
PUBLIC 2c8c1 0 CryptoPP::UnalignedPutWord(CryptoPP::ByteOrder,unsigned char *,unsigned int,unsigned char const *)
PUBLIC 2c91b 0 CryptoPP::NameValuePairs::GetValue<unsigned char const *>(char const *,unsigned char const * &)
PUBLIC 2c930 0 CryptoPP::Parity<unsigned char>(unsigned char)
PUBLIC 2c94b 0 CryptoPP::BytePrecision<unsigned int>(unsigned int const &)
PUBLIC 2c982 0 CryptoPP::BitPrecision<unsigned int>(unsigned int const &)
PUBLIC 2c9b6 0 CryptoPP::Crop<unsigned int>(unsigned int,unsigned int)
PUBLIC 2c9cf 0 CryptoPP::EnumToType<CryptoPP::ByteOrder,0>::ToEnum()
PUBLIC 2c9d2 0 CryptoPP::rotlFixed<unsigned short>(unsigned short,unsigned int)
PUBLIC 2c9ec 0 CryptoPP::ArraySink::~ArraySink()
PUBLIC 2c9ed 0 CryptoPP::SelfTestFailure::SelfTestFailure(_STL::basic_string<char,_STL::char_traits<char>,_STL::allocator<char> > const &)
PUBLIC 2ca07 0 CryptoPP::NullNameValuePairs::NullNameValuePairs()
PUBLIC 2ca10 0 CryptoPP::BitBucket::~BitBucket()
PUBLIC 2ca11 0 CryptoPP::Algorithm::Algorithm(bool)
PUBLIC 2caea 0 CryptoPP::SelfTestFailure::~SelfTestFailure()
PUBLIC 2caef 0 CryptoPP::SelfTestFailure::SelfTestFailure(CryptoPP::SelfTestFailure const &)
PUBLIC 2cb07 0 CryptoPP::StreamTransformation::ProcessLastBlock(unsigned char *,unsigned char const *,unsigned int)
PUBLIC 2cb89 0 CryptoPP::RandomNumberGenerator::GenerateBit()
PUBLIC 2cb96 0 CryptoPP::RandomNumberGenerator::GenerateWord32(unsigned int,unsigned int)
PUBLIC 2cbfe 0 CryptoPP::RandomNumberGenerator::RandomNumberGenerator()
PUBLIC 2cc0c 0 CryptoPP::RandomNumberGenerator::~RandomNumberGenerator()
PUBLIC 2cc0d 0 CryptoPP::BufferedTransformation::ChannelCreatePutSpace(_STL::basic_string<char,_STL::char_traits<char>,_STL::allocator<char> > const &,unsigned int &)
PUBLIC 2cc40 0 CryptoPP::BufferedTransformation::NoChannelSupport::~NoChannelSupport()
PUBLIC 2cc45 0 CryptoPP::BufferedTransformation::NoChannelSupport::NoChannelSupport(CryptoPP::BufferedTransformation::NoChannelSupport const &)
PUBLIC 2cc5d 0 CryptoPP::BufferedTransformation::ChannelPut2(_STL::basic_string<char,_STL::char_traits<char>,_STL::allocator<char> > const &,unsigned char const *,unsigned int,int,bool)
PUBLIC 2cc99 0 CryptoPP::BufferedTransformation::ChannelFlush(_STL::basic_string<char,_STL::char_traits<char>,_STL::allocator<char> > const &,bool,int,bool)
PUBLIC 2ccd2 0 CryptoPP::BufferedTransformation::ChannelMessageSeriesEnd(_STL::basic_string<char,_STL::char_traits<char>,_STL::allocator<char> > const &,int,bool)
PUBLIC 2cd08 0 CryptoPP::BufferedTransformation::TransferMessagesTo2(CryptoPP::BufferedTransformation &,unsigned int &,_STL::basic_string<char,_STL::char_traits<char>,_STL::allocator<char> > const &,bool)
PUBLIC 2cda1 0 CryptoPP::BufferedTransformation::TransferAllTo2(CryptoPP::BufferedTransformation &,_STL::basic_string<char,_STL::char_traits<char>,_STL::allocator<char> > const &,bool)
PUBLIC 2ce16 0 CryptoPP::BufferedTransformation::CopyTo(CryptoPP::BufferedTransformation &,unsigned __int64,_STL::basic_string<char,_STL::char_traits<char>,_STL::allocator<char> > const &)
PUBLIC 2ce32 0 CryptoPP::BufferedTransformation::TransferMessagesTo(CryptoPP::BufferedTransformation &,unsigned int,_STL::basic_string<char,_STL::char_traits<char>,_STL::allocator<char> > const &)
PUBLIC 2ce4d 0 CryptoPP::BufferedTransformation::NoChannelSupport::`scalar deleting destructor'(unsigned int)
PUBLIC 2ce69 0 _STL::auto_ptr<CryptoPP::PK_MessageAccumulator>::operator->()
PUBLIC 2ce6c 0 _STL::auto_ptr<CryptoPP::PK_MessageAccumulator>::operator*()
PUBLIC 2ce6f 0 _STL::auto_ptr<CryptoPP::PK_MessageAccumulator>::~auto_ptr<CryptoPP::PK_MessageAccumulator>()
PUBLIC 2ce7c 0 CryptoPP::GetNativeByteOrder()
PUBLIC 2ce7f 0 CryptoPP::NativeByteOrderIs(CryptoPP::ByteOrder)
PUBLIC 2ce89 0 CryptoPP::ByteReverse(unsigned short)
PUBLIC 2ce99 0 CryptoPP::ConditionalByteReverse<unsigned short>(CryptoPP::ByteOrder,unsigned short)
PUBLIC 2ceb0 0 CryptoPP::ConditionalByteReverse<unsigned int>(CryptoPP::ByteOrder,unsigned int)
PUBLIC 2ced6 0 CryptoPP::SelfTestFailure::`scalar deleting destructor'(unsigned int)
PUBLIC 2cef2 0 CryptoPP::BitBucket::BitBucket()
PUBLIC 2cf0b 0 CryptoPP::BitBucket::AlgorithmName()
PUBLIC 2cf5c 0 CryptoPP::BitBucket::IsolatedInitialize(CryptoPP::NameValuePairs const &)
PUBLIC 2cf5f 0 CryptoPP::BitBucket::Put2(unsigned char const *,unsigned int,int,bool)
PUBLIC 2cf64 0 CryptoPP::BitBucket::`scalar deleting destructor'(unsigned int)
PUBLIC 2cf7b 0 CryptoPP::ClassNullRNG::ClassNullRNG()
PUBLIC 2cf8d 0 CryptoPP::ClassNullRNG::AlgorithmName()
PUBLIC 2cfde 0 CryptoPP::ClassNullRNG::GenerateByte()
PUBLIC 2d02f 0 CryptoPP::ClassNullRNG::~ClassNullRNG()
PUBLIC 2d030 0 CryptoPP::ClassNullRNG::`vector deleting destructor'(unsigned int)
PUBLIC 2d047 0 CryptoPP::PK_Signer::Sign(CryptoPP::RandomNumberGenerator &,CryptoPP::PK_MessageAccumulator *,unsigned char *)
PUBLIC 2d08f 0 CryptoPP::PK_Signer::SignMessage(CryptoPP::RandomNumberGenerator &,unsigned char const *,unsigned int,unsigned char *)
PUBLIC 2d0ec 0 CryptoPP::PK_Signer::SignMessageWithRecovery(CryptoPP::RandomNumberGenerator &,unsigned char const *,unsigned int,unsigned char const *,unsigned int,unsigned char *)
PUBLIC 2d157 0 CryptoPP::PK_Verifier::Verify(CryptoPP::PK_MessageAccumulator *)
PUBLIC 2d197 0 CryptoPP::PK_Verifier::VerifyMessage(unsigned char const *,unsigned int,unsigned char const *,unsigned int)
PUBLIC 2d1f9 0 CryptoPP::PK_Verifier::Recover(unsigned char *,CryptoPP::PK_MessageAccumulator *)
PUBLIC 2d23c 0 CryptoPP::PK_Verifier::RecoverMessage(unsigned char *,unsigned char const *,unsigned int,unsigned char const *,unsigned int)
PUBLIC 2d2a1 0 CryptoPP::PutWord<unsigned short>(bool,CryptoPP::ByteOrder,unsigned char *,unsigned short,unsigned char const *)
PUBLIC 2d2e1 0 CryptoPP::PutWord<unsigned int>(bool,CryptoPP::ByteOrder,unsigned char *,unsigned int,unsigned char const *)
PUBLIC 2d31f 0 CryptoPP::ArraySink::ArraySink(unsigned char *,unsigned int)
PUBLIC 2d350 0 CryptoPP::ArraySink::`scalar deleting destructor'(unsigned int)
PUBLIC 2d367 0 CryptoPP::TheBitBucket()
PUBLIC 2d3ac 0 CryptoPP::BufferedTransformation::MaxRetrievable()
PUBLIC 2d3e9 0 CryptoPP::BufferedTransformation::Get(unsigned char *,unsigned int)
PUBLIC 2d462 0 CryptoPP::BufferedTransformation::Peek(unsigned char *,unsigned int)
PUBLIC 2d4d0 0 CryptoPP::BufferedTransformation::Skip(unsigned __int64)
PUBLIC 2d518 0 CryptoPP::BufferedTransformation::NumberOfMessages()
PUBLIC 2d54f 0 CryptoPP::BufferedTransformation::SkipMessages(unsigned int)
PUBLIC 2d59a 0 CryptoPP::BufferedTransformation::ChannelPutWord16(_STL::basic_string<char,_STL::char_traits<char>,_STL::allocator<char> > const &,unsigned short,CryptoPP::ByteOrder,bool)
PUBLIC 2d5d0 0 CryptoPP::BufferedTransformation::ChannelPutWord32(_STL::basic_string<char,_STL::char_traits<char>,_STL::allocator<char> > const &,unsigned int,CryptoPP::ByteOrder,bool)
PUBLIC 2d606 0 CryptoPP::BufferedTransformation::PutWord16(unsigned short,CryptoPP::ByteOrder,bool)
PUBLIC 2d61f 0 CryptoPP::BufferedTransformation::PutWord32(unsigned int,CryptoPP::ByteOrder,bool)
PUBLIC 2d638 0 CryptoPP::PK_DefaultEncryptionFilter::PK_DefaultEncryptionFilter(CryptoPP::RandomNumberGenerator &,CryptoPP::PK_Encryptor const &,CryptoPP::BufferedTransformation *,CryptoPP::NameValuePairs const &)
PUBLIC 2d6aa 0 CryptoPP::BufferedTransformation::IsolatedInitialize(CryptoPP::NameValuePairs const &)
PUBLIC 2d6fb 0 CryptoPP::PK_DefaultEncryptionFilter::`vector deleting destructor'(unsigned int)
PUBLIC 2d717 0 CryptoPP::PK_DefaultEncryptionFilter::~PK_DefaultEncryptionFilter()
PUBLIC 2d75b 0 CryptoPP::PK_Encryptor::CreateEncryptionFilter(CryptoPP::RandomNumberGenerator &,CryptoPP::BufferedTransformation *,CryptoPP::NameValuePairs const &)
PUBLIC 2d79d 0 CryptoPP::PK_DefaultDecryptionFilter::PK_DefaultDecryptionFilter(CryptoPP::RandomNumberGenerator &,CryptoPP::PK_Decryptor const &,CryptoPP::BufferedTransformation *,CryptoPP::NameValuePairs const &)
PUBLIC 2d815 0 CryptoPP::PK_DefaultDecryptionFilter::`vector deleting destructor'(unsigned int)
PUBLIC 2d831 0 CryptoPP::PK_DefaultDecryptionFilter::~PK_DefaultDecryptionFilter()
PUBLIC 2d875 0 CryptoPP::PK_Decryptor::CreateDecryptionFilter(CryptoPP::RandomNumberGenerator &,CryptoPP::BufferedTransformation *,CryptoPP::NameValuePairs const &)
PUBLIC 2d8b7 0 CryptoPP::NullRNG()
PUBLIC 2d90a 0 CryptoPP::PK_DefaultEncryptionFilter::Put2(unsigned char const *,unsigned int,int,bool)
PUBLIC 2da68 0 CryptoPP::SecBlock<unsigned char,CryptoPP::AllocatorWithCleanup<unsigned char> >::resize(unsigned int)
PUBLIC 2da8f 0 CryptoPP::IntToString<unsigned int>(unsigned int,unsigned int)
PUBLIC 2db5d 0 CryptoPP::AlgorithmParameters<CryptoPP::NullNameValuePairs,int>::~AlgorithmParameters<CryptoPP::NullNameValuePairs,int>()
PUBLIC 2db62 0 CryptoPP::AlgorithmParametersBase2<unsigned char const *>::~AlgorithmParametersBase2<unsigned char const *>()
PUBLIC 2db67 0 CryptoPP::SimpleKeyingInterface::ThrowIfResynchronizable()
PUBLIC 2dbd1 0 CryptoPP::SimpleKeyingInterface::ThrowIfInvalidIV(unsigned char const *)
PUBLIC 2dc5a 0 CryptoPP::SimpleKeyingInterface::GetIVAndThrowIfInvalid(CryptoPP::NameValuePairs const &)
PUBLIC 2dc93 0 CryptoPP::HashTransformation::ThrowIfInvalidTruncatedSize(unsigned int)
PUBLIC 2dd50 0 CryptoPP::PK_DefaultDecryptionFilter::Put2(unsigned char const *,unsigned int,int,bool)
PUBLIC 2df08 0 CryptoPP::InvalidCiphertext::~InvalidCiphertext()
PUBLIC 2df0d 0 CryptoPP::InvalidDataFormat::~InvalidDataFormat()
PUBLIC 2df12 0 CryptoPP::InvalidDataFormat::InvalidDataFormat(CryptoPP::InvalidDataFormat const &)
PUBLIC 2df2a 0 CryptoPP::InvalidDataFormat::`scalar deleting destructor'(unsigned int)
PUBLIC 2df46 0 CryptoPP::InvalidCiphertext::`vector deleting destructor'(unsigned int)
PUBLIC 2df62 0 CryptoPP::InvalidCiphertext::InvalidCiphertext(CryptoPP::InvalidCiphertext const &)
PUBLIC 2df7a 0 CryptoPP::InvalidKeyLength::InvalidKeyLength(_STL::basic_string<char,_STL::char_traits<char>,_STL::allocator<char> > const &,unsigned int)
PUBLIC 2e030 0 CryptoPP::InvalidKeyLength::`scalar deleting destructor'(unsigned int)
PUBLIC 2e04c 0 CryptoPP::InvalidKeyLength::~InvalidKeyLength()
PUBLIC 2e051 0 CryptoPP::AlgorithmParametersBase2<unsigned char const *>::AlgorithmParametersBase2<unsigned char const *>(char const *,unsigned char const * const &,bool)
PUBLIC 2e077 0 CryptoPP::AlgorithmParametersBase2<unsigned char const *>::AssignValue(char const *,type_info const &,void *)
PUBLIC 2e0d1 0 CryptoPP::AlgorithmParametersBase2<unsigned char const *>::`scalar deleting destructor'(unsigned int)
PUBLIC 2e0ed 0 CryptoPP::AlgorithmParameters<CryptoPP::NullNameValuePairs,unsigned char const *>::~AlgorithmParameters<CryptoPP::NullNameValuePairs,unsigned char const *>()
PUBLIC 2e0f2 0 CryptoPP::SimpleKeyingInterface::ThrowIfInvalidKeyLength(unsigned int)
PUBLIC 2e14d 0 CryptoPP::InvalidKeyLength::InvalidKeyLength(CryptoPP::InvalidKeyLength const &)
PUBLIC 2e165 0 CryptoPP::HashTransformation::TruncatedVerify(unsigned char const *,unsigned int)
PUBLIC 2e1d0 0 CryptoPP::AlgorithmParameters<CryptoPP::NullNameValuePairs,int>::AlgorithmParameters<CryptoPP::NullNameValuePairs,int>(CryptoPP::NullNameValuePairs const &,char const *,int const &,bool)
PUBLIC 2e1f7 0 CryptoPP::AlgorithmParameters<CryptoPP::NullNameValuePairs,int>::GetParent()
PUBLIC 2e1fb 0 CryptoPP::AlgorithmParameters<CryptoPP::NullNameValuePairs,int>::`vector deleting destructor'(unsigned int)
PUBLIC 2e217 0 CryptoPP::AlgorithmParameters<CryptoPP::NullNameValuePairs,unsigned char const *>::AlgorithmParameters<CryptoPP::NullNameValuePairs,unsigned char const *>(CryptoPP::NullNameValuePairs const &,char const *,unsigned char const * const &,bool)
PUBLIC 2e23e 0 CryptoPP::AlgorithmParameters<CryptoPP::NullNameValuePairs,unsigned char const *>::GetParent()
PUBLIC 2e242 0 CryptoPP::AlgorithmParameters<CryptoPP::NullNameValuePairs,unsigned char const *>::`vector deleting destructor'(unsigned int)
PUBLIC 2e25e 0 CryptoPP::SimpleKeyingInterface::SetKey(unsigned char const *,unsigned int,CryptoPP::NameValuePairs const &)
PUBLIC 2e281 0 CryptoPP::MakeParameters<int>(char const *,int const &,bool)
PUBLIC 2e2a4 0 CryptoPP::MakeParameters<unsigned char const *>(char const *,unsigned char const * const &,bool)
PUBLIC 2e2c7 0 CryptoPP::SimpleKeyingInterface::SetKeyWithRounds(unsigned char const *,unsigned int,int)
PUBLIC 2e31b 0 CryptoPP::SimpleKeyingInterface::SetKeyWithIV(unsigned char const *,unsigned int,unsigned char const *)
PUBLIC 2e36f 0 CryptoPP::GeneratableCryptoMaterial::GenerateRandomWithKeySize(CryptoPP::RandomNumberGenerator &,unsigned int)
PUBLIC 2e3c5 0 CryptoPP::ByteArrayParameter::ByteArrayParameter(unsigned char *,unsigned int)
PUBLIC 2e3d7 0 CryptoPP::ByteArrayParameter::begin()
PUBLIC 2e3da 0 CryptoPP::ByteArrayParameter::size()
PUBLIC 2e3de 0 _STL::__copy_trivial_backward(void const *,void const *,void *)
PUBLIC 2e405 0 CryptoPP::MeterFilter::MessageRange::operator<(CryptoPP::MeterFilter::MessageRange const &)
PUBLIC 2e431 0 CryptoPP::FilterWithBufferedInput::NextPutMaybeModifiable(unsigned char *,unsigned int,bool)
PUBLIC 2e454 0 CryptoPP::FilterWithBufferedInput::BlockQueue::CurrentSize()
PUBLIC 2e458 0 CryptoPP::Redirector::GetPassSignals()
PUBLIC 2e45f 0 CryptoPP::Name::PutMessage()
PUBLIC 2e465 0 CryptoPP::Name::TruncatedDigestSize()
PUBLIC 2e46b 0 CryptoPP::Name::HashVerificationFilterFlags()
PUBLIC 2e471 0 CryptoPP::Name::SignatureVerificationFilterFlags()
PUBLIC 2e477 0 CryptoPP::Name::InputBuffer()
PUBLIC 2e47d 0 CryptoPP::Name::OutputBuffer()
PUBLIC 2e483 0 CryptoPP::Filter::NewDefaultAttachment()
PUBLIC 2e4bd 0 CryptoPP::Filter::CopyRangeTo2(CryptoPP::BufferedTransformation &,unsigned __int64 &,unsigned __int64,_STL::basic_string<char,_STL::char_traits<char>,_STL::allocator<char> > const &,bool)
PUBLIC 2e4e8 0 CryptoPP::Filter::TransferTo2(CryptoPP::BufferedTransformation &,unsigned __int64 &,_STL::basic_string<char,_STL::char_traits<char>,_STL::allocator<char> > const &,bool)
PUBLIC 2e4f7 0 CryptoPP::Filter::PropagateInitialize(CryptoPP::NameValuePairs const &,int)
PUBLIC 2e519 0 CryptoPP::Filter::OutputModifiable(int,unsigned char *,unsigned int,int,bool,_STL::basic_string<char,_STL::char_traits<char>,_STL::allocator<char> > const &)
PUBLIC 2e556 0 CryptoPP::Filter::Output(int,unsigned char const *,unsigned int,int,bool,_STL::basic_string<char,_STL::char_traits<char>,_STL::allocator<char> > const &)
PUBLIC 2e593 0 CryptoPP::Filter::OutputFlush(int,bool,int,bool,_STL::basic_string<char,_STL::char_traits<char>,_STL::allocator<char> > const &)
PUBLIC 2e5d8 0 CryptoPP::Filter::OutputMessageSeriesEnd(int,int,bool,_STL::basic_string<char,_STL::char_traits<char>,_STL::allocator<char> > const &)
PUBLIC 2e61a 0 CryptoPP::MeterFilter::IsolatedMessageSeriesEnd(bool)
PUBLIC 2e62d 0 CryptoPP::InvalidDataFormat::InvalidDataFormat(_STL::basic_string<char,_STL::char_traits<char>,_STL::allocator<char> > const &)
PUBLIC 2e647 0 CryptoPP::InvalidCiphertext::InvalidCiphertext(_STL::basic_string<char,_STL::char_traits<char>,_STL::allocator<char> > const &)
PUBLIC 2e65f 0 CryptoPP::FilterWithBufferedInput::NextPutMultiple(unsigned char const *,unsigned int)
PUBLIC 2e688 0 CryptoPP::StreamTransformation::ProcessString(unsigned char *,unsigned int)
PUBLIC 2e69c 0 CryptoPP::StreamTransformation::ProcessString(unsigned char *,unsigned char const *,unsigned int)
PUBLIC 2e6a1 0 CryptoPP::StreamTransformationFilter::LastBlockSize(CryptoPP::StreamTransformation &,CryptoPP::StreamTransformationFilter::BlockPaddingScheme)
PUBLIC 2e6e6 0 CryptoPP::BufferedTransformation::PutModifiable(unsigned char *,unsigned int,bool)
PUBLIC 2e6fc 0 CryptoPP::BufferedTransformation::TransferAllTo(CryptoPP::BufferedTransformation &,_STL::basic_string<char,_STL::char_traits<char>,_STL::allocator<char> > const &)
PUBLIC 2e70e 0 CryptoPP::HashVerificationFilter::NextPutMultiple(unsigned char const *,unsigned int)
PUBLIC 2e748 0 CryptoPP::Source::PumpAll2(bool)
PUBLIC 2e773 0 CryptoPP::Store::GetNextMessage()
PUBLIC 2e791 0 CryptoPP::StringStore::TransferTo2(CryptoPP::BufferedTransformation &,unsigned __int64 &,_STL::basic_string<char,_STL::char_traits<char>,_STL::allocator<char> > const &,bool)
PUBLIC 2e7d5 0 CryptoPP::NotCopyable::NotCopyable()
PUBLIC 2e7d8 0 CryptoPP::SecBlock<unsigned char,CryptoPP::AllocatorWithCleanup<unsigned char> >::begin()
PUBLIC 2e7dc 0 CryptoPP::SecBlock<unsigned char,CryptoPP::AllocatorWithCleanup<unsigned char> >::begin()
PUBLIC 2e7e0 0 CryptoPP::SecBlock<unsigned char,CryptoPP::AllocatorWithCleanup<unsigned char> >::end()
PUBLIC 2e7e7 0 CryptoPP::SecBlock<unsigned char,CryptoPP::AllocatorWithCleanup<unsigned char> >::size()
PUBLIC 2e7eb 0 CryptoPP::member_ptr<CryptoPP::BufferedTransformation>::member_ptr<CryptoPP::BufferedTransformation>(CryptoPP::BufferedTransformation *)
PUBLIC 2e7f6 0 CryptoPP::member_ptr<CryptoPP::BufferedTransformation>::operator->()
PUBLIC 2e7f9 0 CryptoPP::member_ptr<CryptoPP::BufferedTransformation>::get()
PUBLIC 2e7fc 0 CryptoPP::member_ptr<CryptoPP::BufferedTransformation>::get()
PUBLIC 2e7ff 0 CryptoPP::member_ptr<CryptoPP::BufferedTransformation>::release()
PUBLIC 2e805 0 CryptoPP::member_ptr<CryptoPP::PK_MessageAccumulator>::member_ptr<CryptoPP::PK_MessageAccumulator>(CryptoPP::PK_MessageAccumulator *)
PUBLIC 2e810 0 CryptoPP::member_ptr<CryptoPP::PK_MessageAccumulator>::operator*()
PUBLIC 2e813 0 CryptoPP::member_ptr<CryptoPP::PK_MessageAccumulator>::operator->()
PUBLIC 2e816 0 CryptoPP::member_ptr<CryptoPP::PK_MessageAccumulator>::release()
PUBLIC 2e81c 0 _STL::auto_ptr<CryptoPP::OutputProxy>::auto_ptr<CryptoPP::OutputProxy>(CryptoPP::OutputProxy *)
PUBLIC 2e827 0 _STL::_Deque_iterator<CryptoPP::MeterFilter::MessageRange,_STL::_Nonconst_traits<CryptoPP::MeterFilter::MessageRange> >::_Deque_iterator<CryptoPP::MeterFilter::MessageRange,_STL::_Nonconst_traits<CryptoPP::MeterFilter::MessageRange> >(_STL::_Deque_iterator<CryptoPP::MeterFilter::MessageRange,_STL::_Nonconst_traits<CryptoPP::MeterFilter::MessageRange> > const &)
PUBLIC 2e83a 0 _STL::_Deque_iterator<CryptoPP::MeterFilter::MessageRange,_STL::_Nonconst_traits<CryptoPP::MeterFilter::MessageRange> >::operator*()
PUBLIC 2e83d 0 _STL::auto_ptr<CryptoPP::OutputProxy>::get()
PUBLIC 2e840 0 CryptoPP::NameValuePairs::GetValue<int>(char const *,int &)
PUBLIC 2e855 0 CryptoPP::NameValuePairs::GetValueWithDefault<int>(char const *,int)
PUBLIC 2e86f 0 CryptoPP::IsPowerOf2<unsigned int>(unsigned int const &)
PUBLIC 2e887 0 CryptoPP::ModPowerOf2<unsigned int,unsigned int>(unsigned int const &,unsigned int const &)
PUBLIC 2e895 0 CryptoPP::member_ptr<CryptoPP::BufferedTransformation>::reset(CryptoPP::BufferedTransformation *)
PUBLIC 2e8ae 0 CryptoPP::member_ptr<CryptoPP::PK_MessageAccumulator>::~member_ptr<CryptoPP::PK_MessageAccumulator>()
PUBLIC 2e8bb 0 CryptoPP::member_ptr<CryptoPP::PK_MessageAccumulator>::reset(CryptoPP::PK_MessageAccumulator *)
PUBLIC 2e8d4 0 CryptoPP::SaturatingSubtract<unsigned int,unsigned __int64>(unsigned int const &,unsigned __int64 const &)
PUBLIC 2e901 0 CryptoPP::SaturatingSubtract<unsigned __int64,unsigned __int64>(unsigned __int64 const &,unsigned __int64 const &)
PUBLIC 2e92c 0 CryptoPP::STDMAX<unsigned int>(unsigned int const &,unsigned int const &)
PUBLIC 2e93d 0 CryptoPP::RoundDownToMultipleOf<unsigned int,unsigned int>(unsigned int const &,unsigned int const &)
PUBLIC 2e96a 0 CryptoPP::NameValuePairs::GetValue<CryptoPP::ByteArrayParameter>(char const *,CryptoPP::ByteArrayParameter &)
PUBLIC 2e97f 0 CryptoPP::NameValuePairs::GetValue<CryptoPP::ConstByteArrayParameter>(char const *,CryptoPP::ConstByteArrayParameter &)
PUBLIC 2e994 0 CryptoPP::UnsignedMin<unsigned int,unsigned __int64>(unsigned int const &,unsigned __int64 const &)
PUBLIC 2e9b7 0 CryptoPP::STDMIN<unsigned __int64>(unsigned __int64 const &,unsigned __int64 const &)
PUBLIC 2e9d2 0 _STL::operator==<CryptoPP::MeterFilter::MessageRange>(_STL::_Deque_iterator_base<CryptoPP::MeterFilter::MessageRange> const &,_STL::_Deque_iterator_base<CryptoPP::MeterFilter::MessageRange> const &)
PUBLIC 2e9e4 0 _STL::_Construct<CryptoPP::MeterFilter::MessageRange,CryptoPP::MeterFilter::MessageRange>(CryptoPP::MeterFilter::MessageRange *,CryptoPP::MeterFilter::MessageRange const &)
PUBLIC 2e9fa 0 _STL::_Destroy<CryptoPP::MeterFilter::MessageRange>(CryptoPP::MeterFilter::MessageRange *)
PUBLIC 2e9fb 0 _STL::_Deque_base<CryptoPP::MeterFilter::MessageRange,_STL::allocator<CryptoPP::MeterFilter::MessageRange> >::buffer_size()
PUBLIC 2e9ff 0 _STL::allocator<CryptoPP::MeterFilter::MessageRange>::allocate(unsigned int,void const *)
PUBLIC 2ea1c 0 _STL::allocator<CryptoPP::MeterFilter::MessageRange>::deallocate(CryptoPP::MeterFilter::MessageRange *,unsigned int)
PUBLIC 2ea3d 0 _STL::_Deque_iterator_base<CryptoPP::MeterFilter::MessageRange>::_M_set_node(CryptoPP::MeterFilter::MessageRange * *)
PUBLIC 2ea52 0 _STL::allocator<CryptoPP::MeterFilter::MessageRange *>::allocate(unsigned int,void const *)
PUBLIC 2ea6c 0 _STL::allocator<CryptoPP::MeterFilter::MessageRange *>::deallocate(CryptoPP::MeterFilter::MessageRange * *,unsigned int)
PUBLIC 2ea8a 0 _STL::binder2nd<_STL::not_equal_to<unsigned char> >::binder2nd<_STL::not_equal_to<unsigned char> >(_STL::not_equal_to<unsigned char> const &,unsigned char const &)
PUBLIC 2ea98 0 _STL::_Deque_iterator_base<CryptoPP::MeterFilter::MessageRange>::_M_subtract(_STL::_Deque_iterator_base<CryptoPP::MeterFilter::MessageRange> const &)
PUBLIC 2eac8 0 _STL::operator!=<CryptoPP::MeterFilter::MessageRange>(_STL::_Deque_iterator_base<CryptoPP::MeterFilter::MessageRange> const &,_STL::_Deque_iterator_base<CryptoPP::MeterFilter::MessageRange> const &)
PUBLIC 2eadc 0 _STL::__lg<int>(int)
PUBLIC 2eaed 0 _STL::__less<CryptoPP::MeterFilter::MessageRange>(CryptoPP::MeterFilter::MessageRange *)
PUBLIC 2eaf2 0 CryptoPP::NameValuePairs::GetValue<CryptoPP::BufferedTransformation *>(char const *,CryptoPP::BufferedTransformation * &)
PUBLIC 2eb07 0 CryptoPP::NameValuePairs::GetValue<bool>(char const *,bool &)
PUBLIC 2eb1c 0 CryptoPP::NameValuePairs::GetValue<unsigned int>(char const *,unsigned int &)
PUBLIC 2eb31 0 CryptoPP::NameValuePairs::GetValue<CryptoPP::RandomNumberGenerator *>(char const *,CryptoPP::RandomNumberGenerator * &)
PUBLIC 2eb46 0 _STL::not_equal_to<unsigned char>::operator()(unsigned char const &,unsigned char const &)
PUBLIC 2eb5c 0 _STL::_Deque_iterator_base<CryptoPP::MeterFilter::MessageRange>::_M_advance(int)
PUBLIC 2ebc0 0 _STL::less<CryptoPP::MeterFilter::MessageRange>::operator()(CryptoPP::MeterFilter::MessageRange const &,CryptoPP::MeterFilter::MessageRange const &)
PUBLIC 2ebd0 0 _STL::_BothPtrType<CryptoPP::MeterFilter::MessageRange * *,CryptoPP::MeterFilter::MessageRange * *>::_Ret()
PUBLIC 2ebe1 0 _STL::_Deque_iterator_base<CryptoPP::MeterFilter::MessageRange>::_M_increment()
PUBLIC 2ec05 0 _STL::_Deque_iterator_base<CryptoPP::MeterFilter::MessageRange>::_M_decrement()
PUBLIC 2ec26 0 _STL::__destroy_aux<CryptoPP::MeterFilter::MessageRange *>(CryptoPP::MeterFilter::MessageRange *,CryptoPP::MeterFilter::MessageRange *,_STL::__false_type const &)
PUBLIC 2ec27 0 _STL::operator<<CryptoPP::MeterFilter::MessageRange>(_STL::_Deque_iterator_base<CryptoPP::MeterFilter::MessageRange> const &,_STL::_Deque_iterator_base<CryptoPP::MeterFilter::MessageRange> const &)
PUBLIC 2ec44 0 _STL::_OKToMemCpy<CryptoPP::MeterFilter::MessageRange *,CryptoPP::MeterFilter::MessageRange *>::_Ret()
PUBLIC 2ec55 0 _STL::_IsOKToMemCpy<CryptoPP::MeterFilter::MessageRange *,CryptoPP::MeterFilter::MessageRange *>(CryptoPP::MeterFilter::MessageRange * *,CryptoPP::MeterFilter::MessageRange * *)
PUBLIC 2ec66 0 _STL::__copy_ptrs<CryptoPP::MeterFilter::MessageRange * *,CryptoPP::MeterFilter::MessageRange * *>(CryptoPP::MeterFilter::MessageRange * *,CryptoPP::MeterFilter::MessageRange * *,CryptoPP::MeterFilter::MessageRange * *,_STL::__true_type const &)
PUBLIC 2ec7b 0 _STL::__copy_backward_ptrs<CryptoPP::MeterFilter::MessageRange * *,CryptoPP::MeterFilter::MessageRange * *>(CryptoPP::MeterFilter::MessageRange * *,CryptoPP::MeterFilter::MessageRange * *,CryptoPP::MeterFilter::MessageRange * *,_STL::__true_type const &)
PUBLIC 2ec90 0 _STL::swap<CryptoPP::MeterFilter::MessageRange>(CryptoPP::MeterFilter::MessageRange &,CryptoPP::MeterFilter::MessageRange &)
PUBLIC 2ecbd 0 _STL::_BothPtrType<_STL::_Deque_iterator<CryptoPP::MeterFilter::MessageRange,_STL::_Nonconst_traits<CryptoPP::MeterFilter::MessageRange> >,_STL::_Deque_iterator<CryptoPP::MeterFilter::MessageRange,_STL::_Nonconst_traits<CryptoPP::MeterFilter::MessageRange> > >::_Ret()
PUBLIC 2ecce 0 CryptoPP::ConstByteArrayParameter::begin()
PUBLIC 2ecdb 0 CryptoPP::ConstByteArrayParameter::size()
PUBLIC 2ece8 0 CryptoPP::HashVerificationFilter::HashVerificationFailed::HashVerificationFailed()
PUBLIC 2ed57 0 CryptoPP::SignatureVerificationFilter::SignatureVerificationFailed::SignatureVerificationFailed()
PUBLIC 2edc6 0 CryptoPP::Filter::AttachedTransformation()
PUBLIC 2ede3 0 CryptoPP::Filter::AttachedTransformation()
PUBLIC 2ee00 0 CryptoPP::Filter::Detach(CryptoPP::BufferedTransformation *)
PUBLIC 2ee08 0 CryptoPP::Filter::Insert(CryptoPP::Filter *)
PUBLIC 2ee2c 0 CryptoPP::Filter::Initialize(CryptoPP::NameValuePairs const &,int)
PUBLIC 2ee4f 0 CryptoPP::Filter::Flush(bool,int,bool)
PUBLIC 2ee97 0 CryptoPP::Filter::MessageSeriesEnd(int,bool)
PUBLIC 2eee6 0 CryptoPP::FilterWithBufferedInput::BlockQueue::GetBlock()
PUBLIC 2ef18 0 CryptoPP::FilterWithBufferedInput::BlockQueue::GetContigousBlocks(unsigned int &)
PUBLIC 2ef6a 0 CryptoPP::FilterWithBufferedInput::BlockQueue::GetAll(unsigned char *)
PUBLIC 2efb7 0 CryptoPP::FilterWithBufferedInput::BlockQueue::Put(unsigned char const *,unsigned int)
PUBLIC 2f021 0 CryptoPP::NameValuePairs::GetIntValue(char const *,int &)
PUBLIC 2f036 0 CryptoPP::NameValuePairs::GetIntValueWithDefault(char const *,int)
PUBLIC 2f03b 0 CryptoPP::FilterWithBufferedInput::ForceNextPut()
PUBLIC 2f0aa 0 CryptoPP::ProxyFilter::IsolatedFlush(bool,bool)
PUBLIC 2f0c7 0 CryptoPP::ProxyFilter::NextPutMultiple(unsigned char const *,unsigned int)
PUBLIC 2f0e2 0 CryptoPP::ProxyFilter::NextPutModifiable(unsigned char *,unsigned int)
PUBLIC 2f0fd 0 CryptoPP::ArraySink::Put2(unsigned char const *,unsigned int,int,bool)
PUBLIC 2f147 0 CryptoPP::ArraySink::CreatePutSpace(unsigned int &)
PUBLIC 2f16a 0 CryptoPP::ArraySink::IsolatedInitialize(CryptoPP::NameValuePairs const &)
PUBLIC 2f201 0 CryptoPP::ArrayXorSink::Put2(unsigned char const *,unsigned int,int,bool)
PUBLIC 2f24b 0 CryptoPP::StreamTransformationFilter::FirstPut(unsigned char const *)
PUBLIC 2f287 0 CryptoPP::BufferedTransformation::Put(unsigned char,bool)
PUBLIC 2f29c 0 CryptoPP::StreamTransformationFilter::NextPutModifiable(unsigned char *,unsigned int)
PUBLIC 2f2d3 0 CryptoPP::BufferedTransformation::ChannelPut(_STL::basic_string<char,_STL::char_traits<char>,_STL::allocator<char> > const &,unsigned char,bool)
PUBLIC 2f2ef 0 CryptoPP::HashVerificationFilter::LastPut(unsigned char const *,unsigned int)
PUBLIC 2f3a1 0 CryptoPP::HashVerificationFilter::HashVerificationFailed::HashVerificationFailed(CryptoPP::HashVerificationFilter::HashVerificationFailed const &)
PUBLIC 2f3b9 0 CryptoPP::HashVerificationFilter::HashVerificationFailed::~HashVerificationFailed()
PUBLIC 2f3be 0 CryptoPP::SignatureVerificationFilter::NextPutMultiple(unsigned char const *,unsigned int)
PUBLIC 2f3f8 0 CryptoPP::SignatureVerificationFilter::LastPut(unsigned char const *,unsigned int)
PUBLIC 2f4b3 0 CryptoPP::SignatureVerificationFilter::SignatureVerificationFailed::SignatureVerificationFailed(CryptoPP::SignatureVerificationFilter::SignatureVerificationFailed const &)
PUBLIC 2f4cb 0 CryptoPP::SignatureVerificationFilter::SignatureVerificationFailed::~SignatureVerificationFailed()
PUBLIC 2f4d0 0 CryptoPP::Store::CopyMessagesTo(CryptoPP::BufferedTransformation &,unsigned int,_STL::basic_string<char,_STL::char_traits<char>,_STL::allocator<char> > const &)
PUBLIC 2f51d 0 CryptoPP::StringStore::CopyRangeTo2(CryptoPP::BufferedTransformation &,unsigned __int64 &,unsigned __int64,_STL::basic_string<char,_STL::char_traits<char>,_STL::allocator<char> > const &,bool)
PUBLIC 2f5a4 0 CryptoPP::RandomNumberStore::TransferTo2(CryptoPP::BufferedTransformation &,unsigned __int64 &,_STL::basic_string<char,_STL::char_traits<char>,_STL::allocator<char> > const &,bool)
PUBLIC 2f677 0 CryptoPP::NullStore::CopyRangeTo2(CryptoPP::BufferedTransformation &,unsigned __int64 &,unsigned __int64,_STL::basic_string<char,_STL::char_traits<char>,_STL::allocator<char> > const &,bool)
PUBLIC 2f6ff 0 CryptoPP::NullStore::TransferTo2(CryptoPP::BufferedTransformation &,unsigned __int64 &,_STL::basic_string<char,_STL::char_traits<char>,_STL::allocator<char> > const &,bool)
PUBLIC 2f741 0 _STL::deque<CryptoPP::MeterFilter::MessageRange,_STL::allocator<CryptoPP::MeterFilter::MessageRange> >::begin()
PUBLIC 2f754 0 _STL::deque<CryptoPP::MeterFilter::MessageRange,_STL::allocator<CryptoPP::MeterFilter::MessageRange> >::end()
PUBLIC 2f768 0 _STL::deque<CryptoPP::MeterFilter::MessageRange,_STL::allocator<CryptoPP::MeterFilter::MessageRange> >::front()
PUBLIC 2f76b 0 _STL::deque<CryptoPP::MeterFilter::MessageRange,_STL::allocator<CryptoPP::MeterFilter::MessageRange> >::empty()
PUBLIC 2f776 0 _STL::auto_ptr<CryptoPP::OutputProxy>::release()
PUBLIC 2f77c 0 _STL::auto_ptr<CryptoPP::OutputProxy>::~auto_ptr<CryptoPP::OutputProxy>()
PUBLIC 2f789 0 _STL::deque<CryptoPP::MeterFilter::MessageRange,_STL::allocator<CryptoPP::MeterFilter::MessageRange> >::_M_pop_front_aux()
PUBLIC 2f7b4 0 CryptoPP::NameValuePairs::GetValueWithDefault<CryptoPP::BufferedTransformation *>(char const *,CryptoPP::BufferedTransformation *)
PUBLIC 2f7ce 0 _STL::bind2nd<_STL::not_equal_to<unsigned char>,unsigned char>(_STL::not_equal_to<unsigned char> const &,unsigned char const &)
PUBLIC 2f7dc 0 CryptoPP::NameValuePairs::GetValueWithDefault<bool>(char const *,bool)
PUBLIC 2f7f6 0 CryptoPP::NameValuePairs::GetValueWithDefault<unsigned int>(char const *,unsigned int)
PUBLIC 2f810 0 _STL::_Deque_iterator<CryptoPP::MeterFilter::MessageRange,_STL::_Nonconst_traits<CryptoPP::MeterFilter::MessageRange> >::operator-(_STL::_Deque_iterator<CryptoPP::MeterFilter::MessageRange,_STL::_Nonconst_traits<CryptoPP::MeterFilter::MessageRange> > const &)
PUBLIC 2f815 0 _STL::binder2nd<_STL::not_equal_to<unsigned char> >::operator()(unsigned char &)
PUBLIC 2f828 0 _STL::_Deque_iterator<CryptoPP::MeterFilter::MessageRange,_STL::_Nonconst_traits<CryptoPP::MeterFilter::MessageRange> >::operator+=(int)
PUBLIC 2f83a 0 _STL::_Deque_iterator<CryptoPP::MeterFilter::MessageRange,_STL::_Nonconst_traits<CryptoPP::MeterFilter::MessageRange> >::operator-=(int)
PUBLIC 2f84f 0 _STL::__destroy<CryptoPP::MeterFilter::MessageRange *,CryptoPP::MeterFilter::MessageRange>(CryptoPP::MeterFilter::MessageRange *,CryptoPP::MeterFilter::MessageRange *,CryptoPP::MeterFilter::MessageRange *)
PUBLIC 2f850 0 _STL::__median<CryptoPP::MeterFilter::MessageRange,_STL::less<CryptoPP::MeterFilter::MessageRange> >(CryptoPP::MeterFilter::MessageRange const &,CryptoPP::MeterFilter::MessageRange const &,CryptoPP::MeterFilter::MessageRange const &,_STL::less<CryptoPP::MeterFilter::MessageRange>)
PUBLIC 2f8ae 0 _STL::_Deque_iterator<CryptoPP::MeterFilter::MessageRange,_STL::_Nonconst_traits<CryptoPP::MeterFilter::MessageRange> >::operator++()
PUBLIC 2f8ba 0 _STL::_Deque_iterator<CryptoPP::MeterFilter::MessageRange,_STL::_Nonconst_traits<CryptoPP::MeterFilter::MessageRange> >::operator--()
PUBLIC 2f8c6 0 _STL::__copy_aux<CryptoPP::MeterFilter::MessageRange * *,CryptoPP::MeterFilter::MessageRange * *>(CryptoPP::MeterFilter::MessageRange * *,CryptoPP::MeterFilter::MessageRange * *,CryptoPP::MeterFilter::MessageRange * *,_STL::__true_type const &)
PUBLIC 2f8db 0 _STL::__copy_backward_aux<CryptoPP::MeterFilter::MessageRange * *,CryptoPP::MeterFilter::MessageRange * *>(CryptoPP::MeterFilter::MessageRange * *,CryptoPP::MeterFilter::MessageRange * *,CryptoPP::MeterFilter::MessageRange * *,_STL::__true_type const &)
PUBLIC 2f8f0 0 _STL::iter_swap<_STL::_Deque_iterator<CryptoPP::MeterFilter::MessageRange,_STL::_Nonconst_traits<CryptoPP::MeterFilter::MessageRange> >,_STL::_Deque_iterator<CryptoPP::MeterFilter::MessageRange,_STL::_Nonconst_traits<CryptoPP::MeterFilter::MessageRange> > >(_STL::_Deque_iterator<CryptoPP::MeterFilter::MessageRange,_STL::_Nonconst_traits<CryptoPP::MeterFilter::MessageRange> >,_STL::_Deque_iterator<CryptoPP::MeterFilter::MessageRange,_STL::_Nonconst_traits<CryptoPP::MeterFilter::MessageRange> >)
PUBLIC 2f900 0 _STL::__unguarded_linear_insert<_STL::_Deque_iterator<CryptoPP::MeterFilter::MessageRange,_STL::_Nonconst_traits<CryptoPP::MeterFilter::MessageRange> >,CryptoPP::MeterFilter::MessageRange,_STL::less<CryptoPP::MeterFilter::MessageRange> >(_STL::_Deque_iterator<CryptoPP::MeterFilter::MessageRange,_STL::_Nonconst_traits<CryptoPP::MeterFilter::MessageRange> >,CryptoPP::MeterFilter::MessageRange,_STL::less<CryptoPP::MeterFilter::MessageRange>)
PUBLIC 2f945 0 _STL::_Deque_iterator<CryptoPP::MeterFilter::MessageRange,_STL::_Nonconst_traits<CryptoPP::MeterFilter::MessageRange> >::operator--(int)
PUBLIC 2f96d 0 _STL::__copy_backward<_STL::_Deque_iterator<CryptoPP::MeterFilter::MessageRange,_STL::_Nonconst_traits<CryptoPP::MeterFilter::MessageRange> >,_STL::_Deque_iterator<CryptoPP::MeterFilter::MessageRange,_STL::_Nonconst_traits<CryptoPP::MeterFilter::MessageRange> >,int>(_STL::_Deque_iterator<CryptoPP::MeterFilter::MessageRange,_STL::_Nonconst_traits<CryptoPP::MeterFilter::MessageRange> >,_STL::_Deque_iterator<CryptoPP::MeterFilter::MessageRange,_STL::_Nonconst_traits<CryptoPP::MeterFilter::MessageRange> >,_STL::_Deque_iterator<CryptoPP::MeterFilter::MessageRange,_STL::_Nonconst_traits<CryptoPP::MeterFilter::MessageRange> >,_STL::random_access_iterator_tag const &,int *)
PUBLIC 2f9b4 0 CryptoPP::FilterPutSpaceHelper::~FilterPutSpaceHelper()
PUBLIC 2f9c0 0 CryptoPP::HashVerificationFilter::HashVerificationFailed::`scalar deleting destructor'(unsigned int)
PUBLIC 2f9dc 0 CryptoPP::SignatureVerificationFilter::SignatureVerificationFailed::`scalar deleting destructor'(unsigned int)
PUBLIC 2f9f8 0 CryptoPP::CustomFlushPropagation<CryptoPP::Sink>::~CustomFlushPropagation<CryptoPP::Sink>()
PUBLIC 2f9f9 0 CryptoPP::Filter::Filter(CryptoPP::BufferedTransformation *)
PUBLIC 2fa14 0 CryptoPP::Redirector::Initialize(CryptoPP::NameValuePairs const &,int)
PUBLIC 2fa7a 0 CryptoPP::HashFilter::IsolatedInitialize(CryptoPP::NameValuePairs const &)
PUBLIC 2fad1 0 CryptoPP::HashVerificationFilter::InitializeDerivedAndReturnNewSizes(CryptoPP::NameValuePairs const &,unsigned int &,unsigned int &,unsigned int &)
PUBLIC 2fb40 0 CryptoPP::SignerFilter::IsolatedInitialize(CryptoPP::NameValuePairs const &)
PUBLIC 2fb80 0 CryptoPP::SignatureVerificationFilter::InitializeDerivedAndReturnNewSizes(CryptoPP::NameValuePairs const &,unsigned int &,unsigned int &,unsigned int &)
PUBLIC 2fbf8 0 _STL::deque<CryptoPP::MeterFilter::MessageRange,_STL::allocator<CryptoPP::MeterFilter::MessageRange> >::pop_front()
PUBLIC 2fc0f 0 _STL::_Destroy<CryptoPP::MeterFilter::MessageRange *>(CryptoPP::MeterFilter::MessageRange *,CryptoPP::MeterFilter::MessageRange *)
PUBLIC 2fc10 0 _STL::__find_if<unsigned char *,_STL::binder2nd<_STL::not_equal_to<unsigned char> > >(unsigned char *,unsigned char *,_STL::binder2nd<_STL::not_equal_to<unsigned char> >,_STL::random_access_iterator_tag const &)
PUBLIC 2fc5d 0 _STL::_Deque_iterator<CryptoPP::MeterFilter::MessageRange,_STL::_Nonconst_traits<CryptoPP::MeterFilter::MessageRange> >::operator+(int)
PUBLIC 2fc8b 0 _STL::_Deque_iterator<CryptoPP::MeterFilter::MessageRange,_STL::_Nonconst_traits<CryptoPP::MeterFilter::MessageRange> >::operator-(int)
PUBLIC 2fcbc 0 _STL::copy<CryptoPP::MeterFilter::MessageRange * *,CryptoPP::MeterFilter::MessageRange * *>(CryptoPP::MeterFilter::MessageRange * *,CryptoPP::MeterFilter::MessageRange * *,CryptoPP::MeterFilter::MessageRange * *)
PUBLIC 2fcc1 0 _STL::copy_backward<CryptoPP::MeterFilter::MessageRange * *,CryptoPP::MeterFilter::MessageRange * *>(CryptoPP::MeterFilter::MessageRange * *,CryptoPP::MeterFilter::MessageRange * *,CryptoPP::MeterFilter::MessageRange * *)
PUBLIC 2fcc6 0 _STL::__unguarded_partition<_STL::_Deque_iterator<CryptoPP::MeterFilter::MessageRange,_STL::_Nonconst_traits<CryptoPP::MeterFilter::MessageRange> >,CryptoPP::MeterFilter::MessageRange,_STL::less<CryptoPP::MeterFilter::MessageRange> >(_STL::_Deque_iterator<CryptoPP::MeterFilter::MessageRange,_STL::_Nonconst_traits<CryptoPP::MeterFilter::MessageRange> >,_STL::_Deque_iterator<CryptoPP::MeterFilter::MessageRange,_STL::_Nonconst_traits<CryptoPP::MeterFilter::MessageRange> >,CryptoPP::MeterFilter::MessageRange,_STL::less<CryptoPP::MeterFilter::MessageRange>)
PUBLIC 2fd45 0 _STL::__unguarded_insertion_sort_aux<_STL::_Deque_iterator<CryptoPP::MeterFilter::MessageRange,_STL::_Nonconst_traits<CryptoPP::MeterFilter::MessageRange> >,CryptoPP::MeterFilter::MessageRange,_STL::less<CryptoPP::MeterFilter::MessageRange> >(_STL::_Deque_iterator<CryptoPP::MeterFilter::MessageRange,_STL::_Nonconst_traits<CryptoPP::MeterFilter::MessageRange> >,_STL::_Deque_iterator<CryptoPP::MeterFilter::MessageRange,_STL::_Nonconst_traits<CryptoPP::MeterFilter::MessageRange> >,CryptoPP::MeterFilter::MessageRange *,_STL::less<CryptoPP::MeterFilter::MessageRange>)
PUBLIC 2fd93 0 _STL::__copy_backward_aux<_STL::_Deque_iterator<CryptoPP::MeterFilter::MessageRange,_STL::_Nonconst_traits<CryptoPP::MeterFilter::MessageRange> >,_STL::_Deque_iterator<CryptoPP::MeterFilter::MessageRange,_STL::_Nonconst_traits<CryptoPP::MeterFilter::MessageRange> > >(_STL::_Deque_iterator<CryptoPP::MeterFilter::MessageRange,_STL::_Nonconst_traits<CryptoPP::MeterFilter::MessageRange> >,_STL::_Deque_iterator<CryptoPP::MeterFilter::MessageRange,_STL::_Nonconst_traits<CryptoPP::MeterFilter::MessageRange> >,_STL::_Deque_iterator<CryptoPP::MeterFilter::MessageRange,_STL::_Nonconst_traits<CryptoPP::MeterFilter::MessageRange> >,_STL::__false_type const &)
PUBLIC 2fdd4 0 _STL::__push_heap<_STL::_Deque_iterator<CryptoPP::MeterFilter::MessageRange,_STL::_Nonconst_traits<CryptoPP::MeterFilter::MessageRange> >,int,CryptoPP::MeterFilter::MessageRange,_STL::less<CryptoPP::MeterFilter::MessageRange> >(_STL::_Deque_iterator<CryptoPP::MeterFilter::MessageRange,_STL::_Nonconst_traits<CryptoPP::MeterFilter::MessageRange> >,int,int,CryptoPP::MeterFilter::MessageRange,_STL::less<CryptoPP::MeterFilter::MessageRange>)
PUBLIC 2fe58 0 CryptoPP::FilterPutSpaceHelper::FilterPutSpaceHelper()
PUBLIC 2fe66 0 CryptoPP::CustomSignalPropagation<CryptoPP::Sink>::~CustomSignalPropagation<CryptoPP::Sink>()
PUBLIC 2fe67 0 CryptoPP::CustomFlushPropagation<CryptoPP::Sink>::CustomFlushPropagation<CryptoPP::Sink>()
PUBLIC 2fe73 0 CryptoPP::MeterFilter::PutMaybeModifiable(unsigned char *,unsigned int,int,bool,bool)
PUBLIC 3003b 0 CryptoPP::MeterFilter::Put2(unsigned char const *,unsigned int,int,bool)
PUBLIC 30055 0 CryptoPP::MeterFilter::PutModifiable2(unsigned char *,unsigned int,int,bool)
PUBLIC 3006f 0 CryptoPP::FilterWithBufferedInput::BlockQueue::BlockQueue()
PUBLIC 3007d 0 _STL::deque<CryptoPP::MeterFilter::MessageRange,_STL::allocator<CryptoPP::MeterFilter::MessageRange> >::clear()
PUBLIC 300c3 0 _STL::find_if<unsigned char *,_STL::binder2nd<_STL::not_equal_to<unsigned char> > >(unsigned char *,unsigned char *,_STL::binder2nd<_STL::not_equal_to<unsigned char> >)
PUBLIC 300de 0 _STL::deque<CryptoPP::MeterFilter::MessageRange,_STL::allocator<CryptoPP::MeterFilter::MessageRange> >::_M_reallocate_map(unsigned int,bool)
PUBLIC 301db 0 _STL::__unguarded_insertion_sort<_STL::_Deque_iterator<CryptoPP::MeterFilter::MessageRange,_STL::_Nonconst_traits<CryptoPP::MeterFilter::MessageRange> >,_STL::less<CryptoPP::MeterFilter::MessageRange> >(_STL::_Deque_iterator<CryptoPP::MeterFilter::MessageRange,_STL::_Nonconst_traits<CryptoPP::MeterFilter::MessageRange> >,_STL::_Deque_iterator<CryptoPP::MeterFilter::MessageRange,_STL::_Nonconst_traits<CryptoPP::MeterFilter::MessageRange> >,_STL::less<CryptoPP::MeterFilter::MessageRange>)
PUBLIC 30208 0 _STL::copy_backward<_STL::_Deque_iterator<CryptoPP::MeterFilter::MessageRange,_STL::_Nonconst_traits<CryptoPP::MeterFilter::MessageRange> >,_STL::_Deque_iterator<CryptoPP::MeterFilter::MessageRange,_STL::_Nonconst_traits<CryptoPP::MeterFilter::MessageRange> > >(_STL::_Deque_iterator<CryptoPP::MeterFilter::MessageRange,_STL::_Nonconst_traits<CryptoPP::MeterFilter::MessageRange> >,_STL::_Deque_iterator<CryptoPP::MeterFilter::MessageRange,_STL::_Nonconst_traits<CryptoPP::MeterFilter::MessageRange> >,_STL::_Deque_iterator<CryptoPP::MeterFilter::MessageRange,_STL::_Nonconst_traits<CryptoPP::MeterFilter::MessageRange> >)
PUBLIC 30247 0 _STL::__adjust_heap<_STL::_Deque_iterator<CryptoPP::MeterFilter::MessageRange,_STL::_Nonconst_traits<CryptoPP::MeterFilter::MessageRange> >,int,CryptoPP::MeterFilter::MessageRange,_STL::less<CryptoPP::MeterFilter::MessageRange> >(_STL::_Deque_iterator<CryptoPP::MeterFilter::MessageRange,_STL::_Nonconst_traits<CryptoPP::MeterFilter::MessageRange> >,int,int,CryptoPP::MeterFilter::MessageRange,_STL::less<CryptoPP::MeterFilter::MessageRange>)
PUBLIC 3031e 0 CryptoPP::FilterPutSpaceHelper::HelpCreatePutSpace(CryptoPP::BufferedTransformation &,_STL::basic_string<char,_STL::char_traits<char>,_STL::allocator<char> > const &,unsigned int,unsigned int,unsigned int &)
PUBLIC 30368 0 CryptoPP::FilterPutSpaceHelper::HelpCreatePutSpace(CryptoPP::BufferedTransformation &,_STL::basic_string<char,_STL::char_traits<char>,_STL::allocator<char> > const &,unsigned int)
PUBLIC 30384 0 CryptoPP::FilterPutSpaceHelper::HelpCreatePutSpace(CryptoPP::BufferedTransformation &,_STL::basic_string<char,_STL::char_traits<char>,_STL::allocator<char> > const &,unsigned int,unsigned int)
PUBLIC 303a0 0 CryptoPP::CustomSignalPropagation<CryptoPP::Sink>::CustomSignalPropagation<CryptoPP::Sink>()
PUBLIC 303ac 0 CryptoPP::OutputProxy::OutputProxy(CryptoPP::BufferedTransformation &,bool)
PUBLIC 303d5 0 CryptoPP::OutputProxy::CreatePutSpace(unsigned int &)
PUBLIC 303e7 0 CryptoPP::OutputProxy::Put2(unsigned char const *,unsigned int,int,bool)
PUBLIC 30418 0 CryptoPP::OutputProxy::PutModifiable2(unsigned char *,unsigned int,int,bool)
PUBLIC 30449 0 CryptoPP::OutputProxy::Initialize(CryptoPP::NameValuePairs const &,int)
PUBLIC 30464 0 CryptoPP::OutputProxy::Flush(bool,int,bool)
PUBLIC 30480 0 CryptoPP::OutputProxy::MessageSeriesEnd(int,bool)
PUBLIC 3049c 0 CryptoPP::OutputProxy::ChannelPut2(_STL::basic_string<char,_STL::char_traits<char>,_STL::allocator<char> > const &,unsigned char const *,unsigned int,int,bool)
PUBLIC 304d3 0 CryptoPP::OutputProxy::ChannelPutModifiable2(_STL::basic_string<char,_STL::char_traits<char>,_STL::allocator<char> > const &,unsigned char *,unsigned int,int,bool)
PUBLIC 3050a 0 CryptoPP::OutputProxy::ChannelFlush(_STL::basic_string<char,_STL::char_traits<char>,_STL::allocator<char> > const &,bool,int,bool)
PUBLIC 30529 0 CryptoPP::OutputProxy::ChannelMessageSeriesEnd(_STL::basic_string<char,_STL::char_traits<char>,_STL::allocator<char> > const &,int,bool)
PUBLIC 30548 0 CryptoPP::CustomSignalPropagation<CryptoPP::Sink>::IsolatedInitialize(CryptoPP::NameValuePairs const &)
PUBLIC 3054b 0 CryptoPP::CustomFlushPropagation<CryptoPP::Sink>::IsolatedFlush(bool,bool)
PUBLIC 30550 0 CryptoPP::OutputProxy::`scalar deleting destructor'(unsigned int)
PUBLIC 3056c 0 CryptoPP::OutputProxy::~OutputProxy()
PUBLIC 3056d 0 CryptoPP::MeterFilter::ResetMeter()
PUBLIC 3058c 0 CryptoPP::FilterWithBufferedInput::BlockQueue::ResetQueue(unsigned int,unsigned int)
PUBLIC 305ba 0 CryptoPP::FilterWithBufferedInput::FilterWithBufferedInput(CryptoPP::BufferedTransformation *)
PUBLIC 305ff 0 CryptoPP::FilterWithBufferedInput::NextPutModifiable(unsigned char *,unsigned int)
PUBLIC 30607 0 CryptoPP::FilterWithBufferedInput::`vector deleting destructor'(unsigned int)
PUBLIC 30623 0 CryptoPP::FilterWithBufferedInput::FilterWithBufferedInput(unsigned int,unsigned int,unsigned int,CryptoPP::BufferedTransformation *)
PUBLIC 306dd 0 CryptoPP::FilterWithBufferedInput::IsolatedInitialize(CryptoPP::NameValuePairs const &)
PUBLIC 30772 0 CryptoPP::ProxyFilter::ProxyFilter(CryptoPP::BufferedTransformation *,unsigned int,unsigned int,CryptoPP::BufferedTransformation *)
PUBLIC 307f4 0 CryptoPP::ProxyFilter::`vector deleting destructor'(unsigned int)
PUBLIC 30810 0 CryptoPP::ProxyFilter::SetFilter(CryptoPP::Filter *)
PUBLIC 3088a 0 CryptoPP::StreamTransformationFilter::NextPutMultiple(unsigned char const *,unsigned int)
PUBLIC 3093a 0 CryptoPP::StreamTransformationFilter::LastPut(unsigned char const *,unsigned int)
PUBLIC 30d00 0 CryptoPP::HashFilter::Put2(unsigned char const *,unsigned int,int,bool)
PUBLIC 30df4 0 CryptoPP::HashVerificationFilter::FirstPut(unsigned char const *)
PUBLIC 30e49 0 CryptoPP::SignerFilter::Put2(unsigned char const *,unsigned int,int,bool)
PUBLIC 30f2d 0 CryptoPP::SignatureVerificationFilter::FirstPut(unsigned char const *)
PUBLIC 30faa 0 _STL::deque<CryptoPP::MeterFilter::MessageRange,_STL::allocator<CryptoPP::MeterFilter::MessageRange> >::_M_reserve_map_at_back(unsigned int)
PUBLIC 30fd0 0 _STL::__linear_insert<_STL::_Deque_iterator<CryptoPP::MeterFilter::MessageRange,_STL::_Nonconst_traits<CryptoPP::MeterFilter::MessageRange> >,CryptoPP::MeterFilter::MessageRange,_STL::less<CryptoPP::MeterFilter::MessageRange> >(_STL::_Deque_iterator<CryptoPP::MeterFilter::MessageRange,_STL::_Nonconst_traits<CryptoPP::MeterFilter::MessageRange> >,_STL::_Deque_iterator<CryptoPP::MeterFilter::MessageRange,_STL::_Nonconst_traits<CryptoPP::MeterFilter::MessageRange> >,CryptoPP::MeterFilter::MessageRange,_STL::less<CryptoPP::MeterFilter::MessageRange>)
PUBLIC 31050 0 _STL::__pop_heap<_STL::_Deque_iterator<CryptoPP::MeterFilter::MessageRange,_STL::_Nonconst_traits<CryptoPP::MeterFilter::MessageRange> >,CryptoPP::MeterFilter::MessageRange,_STL::less<CryptoPP::MeterFilter::MessageRange>,int>(_STL::_Deque_iterator<CryptoPP::MeterFilter::MessageRange,_STL::_Nonconst_traits<CryptoPP::MeterFilter::MessageRange> >,_STL::_Deque_iterator<CryptoPP::MeterFilter::MessageRange,_STL::_Nonconst_traits<CryptoPP::MeterFilter::MessageRange> >,_STL::_Deque_iterator<CryptoPP::MeterFilter::MessageRange,_STL::_Nonconst_traits<CryptoPP::MeterFilter::MessageRange> >,CryptoPP::MeterFilter::MessageRange,_STL::less<CryptoPP::MeterFilter::MessageRange>,int *)
PUBLIC 31097 0 _STL::__make_heap<_STL::_Deque_iterator<CryptoPP::MeterFilter::MessageRange,_STL::_Nonconst_traits<CryptoPP::MeterFilter::MessageRange> >,_STL::less<CryptoPP::MeterFilter::MessageRange>,CryptoPP::MeterFilter::MessageRange,int>(_STL::_Deque_iterator<CryptoPP::MeterFilter::MessageRange,_STL::_Nonconst_traits<CryptoPP::MeterFilter::MessageRange> >,_STL::_Deque_iterator<CryptoPP::MeterFilter::MessageRange,_STL::_Nonconst_traits<CryptoPP::MeterFilter::MessageRange> >,_STL::less<CryptoPP::MeterFilter::MessageRange>,CryptoPP::MeterFilter::MessageRange *,int *)
PUBLIC 3110c 0 _STL::__pop_heap_aux<_STL::_Deque_iterator<CryptoPP::MeterFilter::MessageRange,_STL::_Nonconst_traits<CryptoPP::MeterFilter::MessageRange> >,CryptoPP::MeterFilter::MessageRange,_STL::less<CryptoPP::MeterFilter::MessageRange> >(_STL::_Deque_iterator<CryptoPP::MeterFilter::MessageRange,_STL::_Nonconst_traits<CryptoPP::MeterFilter::MessageRange> >,_STL::_Deque_iterator<CryptoPP::MeterFilter::MessageRange,_STL::_Nonconst_traits<CryptoPP::MeterFilter::MessageRange> >,CryptoPP::MeterFilter::MessageRange *,_STL::less<CryptoPP::MeterFilter::MessageRange>)
PUBLIC 3116d 0 _STL::deque<CryptoPP::MeterFilter::MessageRange,_STL::allocator<CryptoPP::MeterFilter::MessageRange> >::_M_push_back_aux_v(CryptoPP::MeterFilter::MessageRange const &)
PUBLIC 311cb 0 _STL::__insertion_sort<_STL::_Deque_iterator<CryptoPP::MeterFilter::MessageRange,_STL::_Nonconst_traits<CryptoPP::MeterFilter::MessageRange> >,_STL::less<CryptoPP::MeterFilter::MessageRange> >(_STL::_Deque_iterator<CryptoPP::MeterFilter::MessageRange,_STL::_Nonconst_traits<CryptoPP::MeterFilter::MessageRange> >,_STL::_Deque_iterator<CryptoPP::MeterFilter::MessageRange,_STL::_Nonconst_traits<CryptoPP::MeterFilter::MessageRange> >,_STL::less<CryptoPP::MeterFilter::MessageRange>)
PUBLIC 3122b 0 _STL::make_heap<_STL::_Deque_iterator<CryptoPP::MeterFilter::MessageRange,_STL::_Nonconst_traits<CryptoPP::MeterFilter::MessageRange> >,_STL::less<CryptoPP::MeterFilter::MessageRange> >(_STL::_Deque_iterator<CryptoPP::MeterFilter::MessageRange,_STL::_Nonconst_traits<CryptoPP::MeterFilter::MessageRange> >,_STL::_Deque_iterator<CryptoPP::MeterFilter::MessageRange,_STL::_Nonconst_traits<CryptoPP::MeterFilter::MessageRange> >,_STL::less<CryptoPP::MeterFilter::MessageRange>)
PUBLIC 3125a 0 _STL::pop_heap<_STL::_Deque_iterator<CryptoPP::MeterFilter::MessageRange,_STL::_Nonconst_traits<CryptoPP::MeterFilter::MessageRange> >,_STL::less<CryptoPP::MeterFilter::MessageRange> >(_STL::_Deque_iterator<CryptoPP::MeterFilter::MessageRange,_STL::_Nonconst_traits<CryptoPP::MeterFilter::MessageRange> >,_STL::_Deque_iterator<CryptoPP::MeterFilter::MessageRange,_STL::_Nonconst_traits<CryptoPP::MeterFilter::MessageRange> >,_STL::less<CryptoPP::MeterFilter::MessageRange>)
PUBLIC 31287 0 CryptoPP::ConstByteArrayParameter::ConstByteArrayParameter(char const *,bool)
PUBLIC 312d8 0 CryptoPP::StringStore::StoreInitialize(CryptoPP::NameValuePairs const &)
PUBLIC 31392 0 _STL::deque<CryptoPP::MeterFilter::MessageRange,_STL::allocator<CryptoPP::MeterFilter::MessageRange> >::push_back(CryptoPP::MeterFilter::MessageRange const &)
PUBLIC 313bf 0 _STL::__final_insertion_sort<_STL::_Deque_iterator<CryptoPP::MeterFilter::MessageRange,_STL::_Nonconst_traits<CryptoPP::MeterFilter::MessageRange> >,_STL::less<CryptoPP::MeterFilter::MessageRange> >(_STL::_Deque_iterator<CryptoPP::MeterFilter::MessageRange,_STL::_Nonconst_traits<CryptoPP::MeterFilter::MessageRange> >,_STL::_Deque_iterator<CryptoPP::MeterFilter::MessageRange,_STL::_Nonconst_traits<CryptoPP::MeterFilter::MessageRange> >,_STL::less<CryptoPP::MeterFilter::MessageRange>)
PUBLIC 31443 0 _STL::sort_heap<_STL::_Deque_iterator<CryptoPP::MeterFilter::MessageRange,_STL::_Nonconst_traits<CryptoPP::MeterFilter::MessageRange> >,_STL::less<CryptoPP::MeterFilter::MessageRange> >(_STL::_Deque_iterator<CryptoPP::MeterFilter::MessageRange,_STL::_Nonconst_traits<CryptoPP::MeterFilter::MessageRange> >,_STL::_Deque_iterator<CryptoPP::MeterFilter::MessageRange,_STL::_Nonconst_traits<CryptoPP::MeterFilter::MessageRange> >,_STL::less<CryptoPP::MeterFilter::MessageRange>)
PUBLIC 31486 0 CryptoPP::NameValuePairs::GetRequiredParameter<CryptoPP::RandomNumberGenerator *>(char const *,char const *,CryptoPP::RandomNumberGenerator * &)
PUBLIC 31524 0 _STL::__partial_sort<_STL::_Deque_iterator<CryptoPP::MeterFilter::MessageRange,_STL::_Nonconst_traits<CryptoPP::MeterFilter::MessageRange> >,CryptoPP::MeterFilter::MessageRange,_STL::less<CryptoPP::MeterFilter::MessageRange> >(_STL::_Deque_iterator<CryptoPP::MeterFilter::MessageRange,_STL::_Nonconst_traits<CryptoPP::MeterFilter::MessageRange> >,_STL::_Deque_iterator<CryptoPP::MeterFilter::MessageRange,_STL::_Nonconst_traits<CryptoPP::MeterFilter::MessageRange> >,_STL::_Deque_iterator<CryptoPP::MeterFilter::MessageRange,_STL::_Nonconst_traits<CryptoPP::MeterFilter::MessageRange> >,CryptoPP::MeterFilter::MessageRange *,_STL::less<CryptoPP::MeterFilter::MessageRange>)
PUBLIC 315f6 0 CryptoPP::NameValuePairs::GetRequiredIntParameter(char const *,char const *,int &)
PUBLIC 31694 0 CryptoPP::StreamTransformationFilter::StreamTransformationFilter(CryptoPP::StreamTransformation &,CryptoPP::BufferedTransformation *,CryptoPP::StreamTransformationFilter::BlockPaddingScheme)
PUBLIC 31787 0 CryptoPP::StreamTransformationFilter::`vector deleting destructor'(unsigned int)
PUBLIC 317a3 0 CryptoPP::StreamTransformationFilter::~StreamTransformationFilter()
PUBLIC 317c2 0 CryptoPP::BufferedTransformation::BlockingInputOnly::BlockingInputOnly(_STL::basic_string<char,_STL::char_traits<char>,_STL::allocator<char> > const &)
PUBLIC 31819 0 CryptoPP::BufferedTransformation::BlockingInputOnly::`vector deleting destructor'(unsigned int)
PUBLIC 31835 0 CryptoPP::BufferedTransformation::BlockingInputOnly::~BlockingInputOnly()
PUBLIC 3183a 0 CryptoPP::AlgorithmParametersBase2<unsigned int>::~AlgorithmParametersBase2<unsigned int>()
PUBLIC 3183f 0 CryptoPP::RandomNumberStore::StoreInitialize(CryptoPP::NameValuePairs const &)
PUBLIC 31880 0 CryptoPP::AlgorithmParametersBase2<unsigned int>::AlgorithmParametersBase2<unsigned int>(char const *,unsigned int const &,bool)
PUBLIC 318a6 0 CryptoPP::AlgorithmParametersBase2<unsigned int>::AssignValue(char const *,type_info const &,void *)
PUBLIC 31900 0 CryptoPP::AlgorithmParametersBase2<unsigned int>::`scalar deleting destructor'(unsigned int)
PUBLIC 3191c 0 _STL::partial_sort<_STL::_Deque_iterator<CryptoPP::MeterFilter::MessageRange,_STL::_Nonconst_traits<CryptoPP::MeterFilter::MessageRange> >,_STL::less<CryptoPP::MeterFilter::MessageRange> >(_STL::_Deque_iterator<CryptoPP::MeterFilter::MessageRange,_STL::_Nonconst_traits<CryptoPP::MeterFilter::MessageRange> >,_STL::_Deque_iterator<CryptoPP::MeterFilter::MessageRange,_STL::_Nonconst_traits<CryptoPP::MeterFilter::MessageRange> >,_STL::_Deque_iterator<CryptoPP::MeterFilter::MessageRange,_STL::_Nonconst_traits<CryptoPP::MeterFilter::MessageRange> >,_STL::less<CryptoPP::MeterFilter::MessageRange>)
PUBLIC 31956 0 CryptoPP::FilterWithBufferedInput::IsolatedFlush(bool,bool)
PUBLIC 319ce 0 CryptoPP::BufferedTransformation::BlockingInputOnly::BlockingInputOnly(CryptoPP::BufferedTransformation::BlockingInputOnly const &)
PUBLIC 319e6 0 CryptoPP::FilterWithBufferedInput::PutMaybeModifiable(unsigned char *,unsigned int,int,bool,bool)
PUBLIC 31c4e 0 CryptoPP::AlgorithmParameters<CryptoPP::NullNameValuePairs,unsigned int>::~AlgorithmParameters<CryptoPP::NullNameValuePairs,unsigned int>()
PUBLIC 31c53 0 CryptoPP::AlgorithmParameters<CryptoPP::NullNameValuePairs,unsigned int>::AlgorithmParameters<CryptoPP::NullNameValuePairs,unsigned int>(CryptoPP::NullNameValuePairs const &,char const *,unsigned int const &,bool)
PUBLIC 31c7a 0 CryptoPP::AlgorithmParameters<CryptoPP::NullNameValuePairs,unsigned int>::GetParent()
PUBLIC 31c7e 0 CryptoPP::AlgorithmParameters<CryptoPP::NullNameValuePairs,unsigned int>::`scalar deleting destructor'(unsigned int)
PUBLIC 31c9a 0 _STL::__introsort_loop<_STL::_Deque_iterator<CryptoPP::MeterFilter::MessageRange,_STL::_Nonconst_traits<CryptoPP::MeterFilter::MessageRange> >,CryptoPP::MeterFilter::MessageRange,int,_STL::less<CryptoPP::MeterFilter::MessageRange> >(_STL::_Deque_iterator<CryptoPP::MeterFilter::MessageRange,_STL::_Nonconst_traits<CryptoPP::MeterFilter::MessageRange> >,_STL::_Deque_iterator<CryptoPP::MeterFilter::MessageRange,_STL::_Nonconst_traits<CryptoPP::MeterFilter::MessageRange> >,CryptoPP::MeterFilter::MessageRange *,int,_STL::less<CryptoPP::MeterFilter::MessageRange>)
PUBLIC 31db0 0 _STL::sort<_STL::_Deque_iterator<CryptoPP::MeterFilter::MessageRange,_STL::_Nonconst_traits<CryptoPP::MeterFilter::MessageRange> > >(_STL::_Deque_iterator<CryptoPP::MeterFilter::MessageRange,_STL::_Nonconst_traits<CryptoPP::MeterFilter::MessageRange> >,_STL::_Deque_iterator<CryptoPP::MeterFilter::MessageRange,_STL::_Nonconst_traits<CryptoPP::MeterFilter::MessageRange> >)
PUBLIC 31e25 0 CryptoPP::MakeParameters<unsigned int>(char const *,unsigned int const &,bool)
PUBLIC 31e48 0 CryptoPP::MeterFilter::AddRangeToSkip(unsigned int,unsigned __int64,unsigned __int64,bool)
PUBLIC 31eab 0 CryptoPP::HashVerificationFilter::HashVerificationFilter(CryptoPP::HashTransformation &,CryptoPP::BufferedTransformation *,unsigned int)
PUBLIC 31f27 0 CryptoPP::HashVerificationFilter::AlgorithmName()
PUBLIC 31f41 0 CryptoPP::HashVerificationFilter::`scalar deleting destructor'(unsigned int)
PUBLIC 31f5d 0 CryptoPP::HashVerificationFilter::~HashVerificationFilter()
PUBLIC 31f76 0 CryptoPP::SignatureVerificationFilter::SignatureVerificationFilter(CryptoPP::PK_Verifier const &,CryptoPP::BufferedTransformation *,unsigned int)
PUBLIC 31ff9 0 CryptoPP::SignatureVerificationFilter::AlgorithmName()
PUBLIC 32016 0 CryptoPP::SignatureVerificationFilter::`vector deleting destructor'(unsigned int)
PUBLIC 32032 0 CryptoPP::SignatureVerificationFilter::~SignatureVerificationFilter()
PUBLIC 32075 0 CryptoPP::Name::Pad()
PUBLIC 3207b 0 CryptoPP::Name::PaddingByte()
PUBLIC 32081 0 CryptoPP::Name::EncodingLookupArray()
PUBLIC 32087 0 CryptoPP::NameValuePairs::GetValue<unsigned char>(char const *,unsigned char &)
PUBLIC 3209c 0 _STL::fill<int *,int>(int *,int *,int const &)
PUBLIC 320b4 0 CryptoPP::NameValuePairs::GetValue<int const *>(char const *,int const * &)
PUBLIC 320c9 0 CryptoPP::BaseN_Encoder::Put2(unsigned char const *,unsigned int,int,bool)
PUBLIC 3227d 0 CryptoPP::BaseN_Decoder::Put2(unsigned char const *,unsigned int,int,bool)
PUBLIC 323cb 0 CryptoPP::BaseN_Decoder::InitializeDecodingLookupArray(int *,unsigned char const *,unsigned int,bool)
PUBLIC 32439 0 CryptoPP::Grouper::Put2(unsigned char const *,unsigned int,int,bool)
PUBLIC 3256f 0 CryptoPP::NameValuePairs::GetRequiredParameter<unsigned char const *>(char const *,char const *,unsigned char const * &)
PUBLIC 3260d 0 CryptoPP::NameValuePairs::GetRequiredParameter<int const *>(char const *,char const *,int const * &)
PUBLIC 326ab 0 CryptoPP::NameValuePairs::GetRequiredParameter<CryptoPP::ConstByteArrayParameter>(char const *,char const *,CryptoPP::ConstByteArrayParameter &)
PUBLIC 32749 0 CryptoPP::BaseN_Encoder::IsolatedInitialize(CryptoPP::NameValuePairs const &)
PUBLIC 3286c 0 CryptoPP::BaseN_Decoder::IsolatedInitialize(CryptoPP::NameValuePairs const &)
PUBLIC 32934 0 CryptoPP::Grouper::IsolatedInitialize(CryptoPP::NameValuePairs const &)
PUBLIC 32a35 0 CryptoPP::HexDecoder::GetDefaultDecodingLookupArray()
PUBLIC 32a61 0 CryptoPP::CombinedNameValuePairs::CombinedNameValuePairs(CryptoPP::NameValuePairs const &,CryptoPP::NameValuePairs const &)
PUBLIC 32a7a 0 CryptoPP::CombinedNameValuePairs::~CombinedNameValuePairs()
PUBLIC 32a7b 0 CryptoPP::CombinedNameValuePairs::`scalar deleting destructor'(unsigned int)
PUBLIC 32a92 0 CryptoPP::AlgorithmParametersBase2<unsigned char const *>::AlgorithmParametersBase2<unsigned char const *>(CryptoPP::AlgorithmParametersBase2<unsigned char const *> const &)
PUBLIC 32ab3 0 CryptoPP::AlgorithmParameters<CryptoPP::AlgorithmParameters<CryptoPP::NullNameValuePairs,unsigned char const *>,int>::~AlgorithmParameters<CryptoPP::AlgorithmParameters<CryptoPP::NullNameValuePairs,unsigned char const *>,int>()
PUBLIC 32ae8 0 CryptoPP::AlgorithmParameters<CryptoPP::NullNameValuePairs,unsigned char const *>::AlgorithmParameters<CryptoPP::NullNameValuePairs,unsigned char const *>(CryptoPP::AlgorithmParameters<CryptoPP::NullNameValuePairs,unsigned char const *> const &)
PUBLIC 32b0e 0 CryptoPP::AlgorithmParameters<CryptoPP::AlgorithmParameters<CryptoPP::NullNameValuePairs,unsigned char const *>,int>::AlgorithmParameters<CryptoPP::AlgorithmParameters<CryptoPP::NullNameValuePairs,unsigned char const *>,int>(CryptoPP::AlgorithmParameters<CryptoPP::NullNameValuePairs,unsigned char const *> const &,char const *,int const &,bool)
PUBLIC 32b3a 0 CryptoPP::AlgorithmParameters<CryptoPP::AlgorithmParameters<CryptoPP::NullNameValuePairs,unsigned char const *>,int>::GetParent()
PUBLIC 32b3e 0 CryptoPP::AlgorithmParameters<CryptoPP::AlgorithmParameters<CryptoPP::NullNameValuePairs,unsigned char const *>,int>::`scalar deleting destructor'(unsigned int)
PUBLIC 32b5a 0 CryptoPP::AlgorithmParameters<CryptoPP::NullNameValuePairs,unsigned char const *>::operator()<int>(char const *,int const &,bool)
PUBLIC 32b7b 0 CryptoPP::AlgorithmParameters<CryptoPP::NullNameValuePairs,int const *>::operator()<int>(char const *,int const &,bool)
PUBLIC 32b9c 0 CryptoPP::HexEncoder::IsolatedInitialize(CryptoPP::NameValuePairs const &)
PUBLIC 32c5c 0 CryptoPP::HexDecoder::IsolatedInitialize(CryptoPP::NameValuePairs const &)
PUBLIC 32cf2 0 CryptoPP::SimpleKeyingInterface::SimpleKeyingInterface()
PUBLIC 32cf5 0 CryptoPP::HashVerificationFilter::GetLastResult()
PUBLIC 32cf9 0 CryptoPP::DefaultDecryptor::Err::Err(_STL::basic_string<char,_STL::char_traits<char>,_STL::allocator<char> > const &)
PUBLIC 32d13 0 CryptoPP::DefaultDecryptor::CurrentState()
PUBLIC 32d17 0 CryptoPP::DefaultDecryptor::Err::~Err()
PUBLIC 32d1c 0 CryptoPP::DefaultDecryptorWithMAC::MACBadErr::MACBadErr()
PUBLIC 32d89 0 CryptoPP::HashTransformation::Final(unsigned char *)
PUBLIC 32da1 0 CryptoPP::DefaultDecryptorWithMAC::CheckLastMAC()
PUBLIC 32da8 0 CryptoPP::VariableKeyLength<16,0,2147483647,1,4,0>::StaticGetValidKeyLength(unsigned int)
PUBLIC 32db8 0 CryptoPP::member_ptr<CryptoPP::FilterWithBufferedInput>::member_ptr<CryptoPP::FilterWithBufferedInput>(CryptoPP::FilterWithBufferedInput *)
PUBLIC 32dc3 0 CryptoPP::member_ptr<CryptoPP::HMAC<CryptoPP::SHA1> >::member_ptr<CryptoPP::HMAC<CryptoPP::SHA1> >(CryptoPP::HMAC<CryptoPP::SHA1> *)
PUBLIC 32dce 0 CryptoPP::member_ptr<CryptoPP::HMAC<CryptoPP::SHA1> >::operator*()
PUBLIC 32dd1 0 _STL::auto_ptr<CryptoPP::StreamTransformationFilter>::auto_ptr<CryptoPP::StreamTransformationFilter>(CryptoPP::StreamTransformationFilter *)
PUBLIC 32ddc 0 CryptoPP::StreamTransformation::StreamTransformation()
PUBLIC 32dea 0 CryptoPP::AllocatorWithCleanup<unsigned int>::deallocate(void *,unsigned int)
PUBLIC 32e0c 0 CryptoPP::SecBlock<unsigned int,CryptoPP::AllocatorWithCleanup<unsigned int> >::operator unsigned int *()
PUBLIC 32e10 0 _STL::auto_ptr<CryptoPP::StreamTransformationFilter>::get()
PUBLIC 32e13 0 CryptoPP::BlockTransformation::BlockTransformation()
PUBLIC 32e21 0 CryptoPP::FixedSizeAllocatorWithCleanup<unsigned int,32,CryptoPP::NullAllocator<unsigned int> >::FixedSizeAllocatorWithCleanup<unsigned int,32,CryptoPP::NullAllocator<unsigned int> >()
PUBLIC 32e2b 0 CryptoPP::NullAllocator<unsigned int>::deallocate(void *,unsigned int)
PUBLIC 32e2e 0 CryptoPP::AllocatorBase<unsigned int>::CheckSize(unsigned int)
PUBLIC 32e93 0 CryptoPP::NullAllocator<unsigned int>::allocate(unsigned int,void const *)
PUBLIC 32e98 0 CryptoPP::member_ptr<CryptoPP::FilterWithBufferedInput>::~member_ptr<CryptoPP::FilterWithBufferedInput>()
PUBLIC 32ea5 0 _STL::swap<CryptoPP::AllocatorWithCleanup<unsigned int> >(CryptoPP::AllocatorWithCleanup<unsigned int> &,CryptoPP::AllocatorWithCleanup<unsigned int> &)
PUBLIC 32ea6 0 CryptoPP::HashTransformation::HashTransformation()
PUBLIC 32eb4 0 CryptoPP::HashTransformation::~HashTransformation()
PUBLIC 32eb5 0 CryptoPP::CipherModeBase::BlockSize()
PUBLIC 32eb9 0 CryptoPP::DefaultDecryptor::KeyBadErr::KeyBadErr()
PUBLIC 32f26 0 CryptoPP::DefaultDecryptor::Err::`scalar deleting destructor'(unsigned int)
PUBLIC 32f42 0 CryptoPP::DefaultDecryptor::KeyBadErr::`vector deleting destructor'(unsigned int)
PUBLIC 32f5e 0 CryptoPP::DefaultDecryptor::KeyBadErr::~KeyBadErr()
PUBLIC 32f63 0 CryptoPP::DefaultDecryptorWithMAC::MACBadErr::`scalar deleting destructor'(unsigned int)
PUBLIC 32f7f 0 CryptoPP::DefaultDecryptorWithMAC::MACBadErr::~MACBadErr()
PUBLIC 32f84 0 CryptoPP::StreamTransformation::~StreamTransformation()
PUBLIC 32f85 0 CryptoPP::BlockTransformation::~BlockTransformation()
PUBLIC 32f86 0 CryptoPP::DefaultEncryptor::LastPut(unsigned char const *,unsigned int)
PUBLIC 32f99 0 CryptoPP::DefaultDecryptor::LastPut(unsigned char const *,unsigned int)
PUBLIC 32fe4 0 CryptoPP::DefaultDecryptor::Err::Err(CryptoPP::DefaultDecryptor::Err const &)
PUBLIC 32ffc 0 CryptoPP::DefaultDecryptor::KeyBadErr::KeyBadErr(CryptoPP::DefaultDecryptor::KeyBadErr const &)
PUBLIC 33014 0 CryptoPP::DefaultEncryptorWithMAC::LastPut(unsigned char const *,unsigned int)
PUBLIC 33027 0 CryptoPP::DefaultDecryptorWithMAC::CurrentState()
PUBLIC 3302e 0 CryptoPP::DefaultDecryptorWithMAC::LastPut(unsigned char const *,unsigned int)
PUBLIC 33071 0 CryptoPP::DefaultDecryptorWithMAC::MACBadErr::MACBadErr(CryptoPP::DefaultDecryptorWithMAC::MACBadErr const &)
PUBLIC 33089 0 CryptoPP::SecBlock<unsigned int,CryptoPP::AllocatorWithCleanup<unsigned int> >::~SecBlock<unsigned int,CryptoPP::AllocatorWithCleanup<unsigned int> >()
PUBLIC 33095 0 CryptoPP::IteratedHashWithStaticTransform<unsigned int,CryptoPP::EnumToType<CryptoPP::ByteOrder,1>,64,20,CryptoPP::SHA1,0>::Init()
PUBLIC 3309f 0 _STL::auto_ptr<CryptoPP::StreamTransformationFilter>::release()
PUBLIC 330a5 0 _STL::auto_ptr<CryptoPP::StreamTransformationFilter>::operator->()
PUBLIC 330a8 0 _STL::auto_ptr<CryptoPP::StreamTransformationFilter>::~auto_ptr<CryptoPP::StreamTransformationFilter>()
PUBLIC 330b5 0 CryptoPP::SimpleKeyedTransformation<CryptoPP::StreamTransformation>::SimpleKeyedTransformation<CryptoPP::StreamTransformation>()
PUBLIC 330c1 0 CryptoPP::FixedSizeAllocatorWithCleanup<unsigned int,32,CryptoPP::NullAllocator<unsigned int> >::deallocate(void *,unsigned int)
PUBLIC 330e7 0 CryptoPP::SimpleKeyedTransformation<CryptoPP::BlockTransformation>::SimpleKeyedTransformation<CryptoPP::BlockTransformation>()
PUBLIC 330f3 0 CryptoPP::AllocatorWithCleanup<unsigned int>::allocate(unsigned int,void const *)
PUBLIC 33117 0 CryptoPP::FixedSizeAllocatorWithCleanup<unsigned int,32,CryptoPP::NullAllocator<unsigned int> >::allocate(unsigned int,void const *)
PUBLIC 33135 0 CryptoPP::SecBlock<unsigned int,CryptoPP::AllocatorWithCleanup<unsigned int> >::SecBlock<unsigned int,CryptoPP::AllocatorWithCleanup<unsigned int> >(unsigned int)
PUBLIC 33150 0 CryptoPP::SecBlock<unsigned int,CryptoPP::FixedSizeAllocatorWithCleanup<unsigned int,32,CryptoPP::NullAllocator<unsigned int> > >::SecBlock<unsigned int,CryptoPP::FixedSizeAllocatorWithCleanup<unsigned int,32,CryptoPP::NullAllocator<unsigned int> > >(unsigned int)
PUBLIC 33178 0 CryptoPP::RoundUpToMultipleOf<unsigned int,unsigned int>(unsigned int const &,unsigned int const &)
PUBLIC 331f5 0 CryptoPP::StandardReallocate<unsigned int,CryptoPP::AllocatorWithCleanup<unsigned int> >(CryptoPP::AllocatorWithCleanup<unsigned int> &,unsigned int *,unsigned int,unsigned int,bool)
PUBLIC 3326b 0 CryptoPP::SimpleKeyedTransformation<CryptoPP::HashTransformation>::SimpleKeyedTransformation<CryptoPP::HashTransformation>()
PUBLIC 33277 0 CryptoPP::SimpleKeyedTransformation<CryptoPP::HashTransformation>::~SimpleKeyedTransformation<CryptoPP::HashTransformation>()
PUBLIC 33278 0 CryptoPP::HMAC_Base::~HMAC_Base()
PUBLIC 33287 0 CryptoPP::IteratedHashBase<unsigned int,CryptoPP::HashTransformation>::~IteratedHashBase<unsigned int,CryptoPP::HashTransformation>()
PUBLIC 332a8 0 CryptoPP::SimpleKeyedTransformation<CryptoPP::StreamTransformation>::~SimpleKeyedTransformation<CryptoPP::StreamTransformation>()
PUBLIC 332a9 0 CryptoPP::SimpleKeyedTransformation<CryptoPP::BlockTransformation>::~SimpleKeyedTransformation<CryptoPP::BlockTransformation>()
PUBLIC 332aa 0 CryptoPP::SecBlock<unsigned char,CryptoPP::AllocatorWithCleanup<unsigned char> >::SecBlock<unsigned char,CryptoPP::AllocatorWithCleanup<unsigned char> >(unsigned char const *,unsigned int)
PUBLIC 332e6 0 CryptoPP::SecBlock<unsigned int,CryptoPP::FixedSizeAllocatorWithCleanup<unsigned int,32,CryptoPP::NullAllocator<unsigned int> > >::~SecBlock<unsigned int,CryptoPP::FixedSizeAllocatorWithCleanup<unsigned int,32,CryptoPP::NullAllocator<unsigned int> > >()
PUBLIC 332f8 0 CryptoPP::SimpleKeyingInterfaceImpl<CryptoPP::HMAC_Base,CryptoPP::HMAC<CryptoPP::SHA1> >::~SimpleKeyingInterfaceImpl<CryptoPP::HMAC_Base,CryptoPP::HMAC<CryptoPP::SHA1> >()
PUBLIC 33307 0 CryptoPP::CipherModeBase::CipherModeBase()
PUBLIC 3331f 0 CryptoPP::TwoBases<CryptoPP::SimpleKeyedTransformation<CryptoPP::BlockTransformation>,CryptoPP::DES_EDE2_Info>::TwoBases<CryptoPP::SimpleKeyedTransformation<CryptoPP::BlockTransformation>,CryptoPP::DES_EDE2_Info>()
PUBLIC 3332b 0 CryptoPP::IteratedHashBase<unsigned int,CryptoPP::HashTransformation>::IteratedHashBase<unsigned int,CryptoPP::HashTransformation>()
PUBLIC 33371 0 CryptoPP::FixedSizeSecBlock<unsigned int,32,CryptoPP::FixedSizeAllocatorWithCleanup<unsigned int,32,CryptoPP::NullAllocator<unsigned int> > >::FixedSizeSecBlock<unsigned int,32,CryptoPP::FixedSizeAllocatorWithCleanup<unsigned int,32,CryptoPP::NullAllocator<unsigned int> > >()
PUBLIC 3337f 0 CryptoPP::AllocatorWithCleanup<unsigned int>::reallocate(unsigned int *,unsigned int,unsigned int,bool)
PUBLIC 3339b 0 CryptoPP::HMAC_Base::HMAC_Base()
PUBLIC 333b7 0 CryptoPP::IteratedHash<unsigned int,CryptoPP::EnumToType<CryptoPP::ByteOrder,1>,64,CryptoPP::HashTransformation>::~IteratedHash<unsigned int,CryptoPP::EnumToType<CryptoPP::ByteOrder,1>,64,CryptoPP::HashTransformation>()
PUBLIC 333bc 0 CryptoPP::CipherModeBase::~CipherModeBase()
PUBLIC 333cb 0 CryptoPP::FixedSizeSecBlock<unsigned int,32,CryptoPP::FixedSizeAllocatorWithCleanup<unsigned int,32,CryptoPP::NullAllocator<unsigned int> > >::~FixedSizeSecBlock<unsigned int,32,CryptoPP::FixedSizeAllocatorWithCleanup<unsigned int,32,CryptoPP::NullAllocator<unsigned int> > >()
PUBLIC 333dd 0 CryptoPP::TwoBases<CryptoPP::SimpleKeyedTransformation<CryptoPP::BlockTransformation>,CryptoPP::DES_EDE2_Info>::~TwoBases<CryptoPP::SimpleKeyedTransformation<CryptoPP::BlockTransformation>,CryptoPP::DES_EDE2_Info>()
PUBLIC 333de 0 CryptoPP::AlgorithmImpl<CryptoPP::SimpleKeyingInterfaceImpl<CryptoPP::HMAC_Base,CryptoPP::HMAC<CryptoPP::SHA1> >,CryptoPP::HMAC<CryptoPP::SHA1> >::~AlgorithmImpl<CryptoPP::SimpleKeyingInterfaceImpl<CryptoPP::HMAC_Base,CryptoPP::HMAC<CryptoPP::SHA1> >,CryptoPP::HMAC<CryptoPP::SHA1> >()
